Certificate:
    Data:
        Version: 3 (0x2)
        Serial Number: 1 (0x1)
        Signature Algorithm: sha256WithRSAEncryption
        Issuer: C=PL, ST=Dolny\xC3\x85\xC2\x9Bl\xC3\x84\xC2\x85sk, L=Wroc\xC3\x85\xC2\x82aw, O=Cyfrowy Notariusz, OU=Notariusz Wroc\xC3\x85\xC2\x82awski, CN=notariusz.pl/emailAddress=sekretariat@notariusz.pl
        Validity
            Not Before: Dec  3 18:57:24 2023 GMT
            Not After : Dec  2 18:57:24 2024 GMT
        Subject: C=PL, ST=Dolny\xC5\x9Bl\xC4\x85sk, O=Us\xC5\x82ugi Kryptograficzne Sp. z o.o., OU=Kryptografia Wroc\xC5\x82aw, CN=www.krypto.example/emailAddress=administracja@krypto.example
        Subject Public Key Info:
            Public Key Algorithm: rsaEncryption
                Public-Key: (4096 bit)
                Modulus:
                    00:a9:c0:46:62:b7:51:3d:8c:71:a3:97:e1:75:86:
                    a4:3f:50:f0:85:2a:47:52:5b:ed:23:05:87:58:7a:
                    9b:28:40:0d:2f:47:a5:92:c7:48:97:ca:8b:6b:fd:
                    06:64:2d:33:5d:0b:86:81:a3:cd:32:06:d2:9c:bd:
                    4c:66:76:89:a8:6a:dd:bd:1b:28:62:c3:92:b9:b5:
                    e4:f2:a6:f4:c5:e1:d6:d6:73:a3:b9:03:99:7e:cb:
                    8d:c0:8e:5a:16:b4:c6:50:6d:c3:51:62:0f:49:63:
                    2e:95:b8:1c:df:e6:34:4d:22:be:63:73:9f:c5:20:
                    b6:cf:7c:e9:dd:a9:89:8f:3e:21:b7:20:7a:1f:dc:
                    4a:65:03:27:34:55:4b:5e:59:c9:70:d8:b8:cc:d7:
                    53:8c:52:fc:ec:95:cb:09:62:5b:b0:dd:29:7c:c5:
                    c1:ea:2c:79:a5:ca:5a:33:e6:8a:f1:e3:d9:d7:a5:
                    14:13:e1:6f:95:a6:83:5b:bc:a6:fb:c4:dd:7e:eb:
                    0a:9c:fc:20:f9:f8:40:b2:9b:30:93:fb:24:1b:32:
                    e1:24:3b:38:37:8b:1e:cb:00:92:58:53:45:96:9b:
                    2c:63:5b:8a:03:e5:b6:f2:b8:61:bf:ee:f8:77:8a:
                    61:0a:b5:34:e6:dd:4a:aa:2e:e8:ff:18:1b:2b:8b:
                    6b:08:19:72:20:71:5e:5a:40:6b:86:a6:11:d3:83:
                    33:b6:b9:c5:e2:f4:7e:5e:9c:7b:f0:1d:61:16:1e:
                    7a:3f:c3:94:66:d4:de:72:fe:fa:3b:64:fa:05:77:
                    e2:6b:05:7e:43:64:20:3e:9d:a1:6b:43:0a:79:f7:
                    16:16:d2:08:d6:4e:7d:26:be:db:e0:fd:54:09:50:
                    fb:85:d5:64:78:4f:1b:a5:64:13:dd:cd:ce:f7:c5:
                    00:42:18:a1:4d:62:8f:9a:1f:a9:45:e0:02:59:5b:
                    ac:0a:8e:24:f2:84:37:47:12:50:20:f7:87:cb:86:
                    98:50:af:0c:3f:39:fd:6f:97:2e:08:27:35:d0:77:
                    e3:ca:6c:8e:64:09:3b:85:80:0a:7b:22:f4:c6:fb:
                    6f:d9:88:5d:e0:f1:fd:69:14:84:9b:a9:96:02:ab:
                    7f:34:8a:32:5a:e8:9e:b5:62:5a:e5:cc:ca:6c:f1:
                    9d:b5:ef:ea:ce:47:7e:c5:a7:dc:a4:4d:14:37:63:
                    96:42:09:34:ec:55:e5:8a:63:62:75:6a:dd:27:5a:
                    90:15:f9:d2:41:ec:f2:c1:5d:b1:33:91:24:b8:7f:
                    00:94:26:bb:c3:7f:ba:9c:69:48:e5:45:6a:f7:c8:
                    5d:7d:06:da:f0:ea:57:e4:49:bd:bc:c8:13:fb:b6:
                    5b:69:c3
                Exponent: 65537 (0x10001)
        X509v3 extensions:
            X509v3 Authority Key Identifier: 
                keyid:93:1D:54:28:DC:81:C0:87:C2:2E:0D:03:37:6D:CA:89:90:66:71:14
                DirName:/C=PL/ST=Dolny\xC3\x85\xC2\x9Bl\xC3\x84\xC2\x85sk/L=Wroc\xC3\x85\xC2\x82aw/O=Cyfrowy Notariusz/OU=Notariusz Wroc\xC3\x85\xC2\x82awski/CN=notariusz.pl/emailAddress=sekretariat@notariusz.pl
                serial:7B:93:44:E6:C8:33:24:C8:67:7D:0B:92:27:BD:1C:81:EB:A4:79:71
            X509v3 Basic Constraints: 
                CA:FALSE
            X509v3 Key Usage: 
                Digital Signature, Non Repudiation, Key Encipherment, Key Agreement
            X509v3 Subject Alternative Name: 
                email:administracja@krypto.example, DNS:www.krypto.example, IP Address:127.0.0.1
            X509v3 Subject Key Identifier: 
                AB:59:E0:CE:9D:30:B8:85:C7:A5:DB:B5:61:CD:81:C5:66:AA:FA:D5
    Signature Algorithm: sha256WithRSAEncryption
    Signature Value:
        3c:08:1c:af:5c:3d:f4:d2:7f:a5:7f:04:36:f5:ba:61:66:e4:
        0f:eb:b9:c4:35:58:3f:bb:3c:9e:09:21:99:1d:f8:3e:77:ad:
        cd:45:07:be:6e:df:cc:63:fe:96:f4:64:07:8d:6a:c2:23:91:
        18:90:a7:14:4a:bf:96:49:0f:15:07:28:33:84:83:3c:7c:57:
        dc:b0:68:9b:2d:ed:be:15:5c:d3:58:0a:f4:81:90:51:ed:15:
        4f:1b:83:57:fc:0d:db:1e:f2:cb:2b:15:9d:db:5b:8c:38:af:
        41:a7:63:35:1c:1f:0c:cb:50:b6:da:5e:c1:2a:3a:25:69:46:
        ab:1f:1b:3a:45:41:42:1a:89:56:94:12:d2:e6:0f:c7:b8:eb:
        1b:a2:a0:be:c4:db:0b:83:cc:5f:8b:b8:b8:ca:b9:57:89:79:
        f9:bf:13:b0:94:44:ff:16:a5:a9:8b:bf:3c:da:66:a8:85:9e:
        7b:6c:21:88:58:99:fc:ad:19:94:b1:ad:80:89:86:73:91:cc:
        b2:30:9c:4a:69:09:ce:69:02:32:a2:82:5f:43:6b:2b:15:fc:
        92:f4:8f:28:ef:da:16:e5:cc:4f:f7:ff:6f:a0:3a:b1:c8:38:
        38:a7:9e:5f:c7:7f:23:54:88:7b:5e:b3:cc:ab:31:c5:52:14:
        ec:58:05:3f:3d:1d:85:24:1b:00:f0:6b:cc:a1:0b:82:15:fd:
        80:d7:7b:a6:a5:94:e8:b0:b1:90:e3:cf:80:e0:2f:f0:11:76:
        8b:07:cc:26:0c:83:99:4a:44:47:3f:34:96:c4:ff:55:b2:d5:
        dc:6c:28:82:2d:49:34:d9:0f:88:f7:a8:b8:44:e0:33:71:c4:
        95:f0:67:f3:3d:6d:4e:cd:c6:09:2b:2a:d7:85:43:e1:a5:e4:
        6d:7f:53:6b:9b:65:13:57:5f:0d:2f:a6:2f:c5:a6:21:53:23:
        65:65:8a:78:80:70:1e:32:c0:fb:ec:f2:0c:51:f4:2e:bc:db:
        7e:51:95:b6:62:fa:54:c5:7f:89:ad:14:33:40:c3:e2:16:34:
        2e:cb:14:1c:ad:9e:f9:3b:a5:25:a1:a0:a5:4e:e9:0a:7f:2f:
        fc:95:2c:74:6d:4b:d5:65:3f:8f:65:57:2b:d8:7c:ee:a6:45:
        c4:e4:a0:a7:77:cb:dd:e3:ef:34:e9:1e:fa:c4:2c:c5:28:6e:
        d1:0e:59:fe:2f:71:f3:9b:77:0d:11:ae:65:3a:bf:e4:2d:7f:
        d3:de:96:ca:c8:bf:b3:67:c3:3e:a5:ce:c0:23:c3:df:f2:01:
        a5:3f:2e:d3:b8:9e:30:d1:1c:5e:ec:e4:67:f2:bf:3f:6c:43:
        a0:d9:80:8e:a0:6b:b5:a2
-----BEGIN CERTIFICATE-----
MIIHcTCCBVmgAwIBAgIBATANBgkqhkiG9w0BAQsFADCBuzELMAkGA1UEBhMCUEwx
GTAXBgNVBAgMEERvbG55w4XCm2zDhMKFc2sxEzARBgNVBAcMCldyb2PDhcKCYXcx
GjAYBgNVBAoMEUN5ZnJvd3kgTm90YXJpdXN6MSAwHgYDVQQLDBdOb3Rhcml1c3og
V3JvY8OFwoJhd3NraTEVMBMGA1UEAwwMbm90YXJpdXN6LnBsMScwJQYJKoZIhvcN
AQkBFhhzZWtyZXRhcmlhdEBub3Rhcml1c3oucGwwHhcNMjMxMjAzMTg1NzI0WhcN
MjQxMjAyMTg1NzI0WjCBuzELMAkGA1UEBhMCUEwxFTATBgNVBAgMDERvbG55xZts
xIVzazErMCkGA1UECgwiVXPFgnVnaSBLcnlwdG9ncmFmaWN6bmUgU3AuIHogby5v
LjEeMBwGA1UECwwVS3J5cHRvZ3JhZmlhIFdyb2PFgmF3MRswGQYDVQQDDBJ3d3cu
a3J5cHRvLmV4YW1wbGUxKzApBgkqhkiG9w0BCQEWHGFkbWluaXN0cmFjamFAa3J5
cHRvLmV4YW1wbGUwggIiMA0GCSqGSIb3DQEBAQUAA4ICDwAwggIKAoICAQCpwEZi
t1E9jHGjl+F1hqQ/UPCFKkdSW+0jBYdYepsoQA0vR6WSx0iXyotr/QZkLTNdC4aB
o80yBtKcvUxmdomoat29Gyhiw5K5teTypvTF4dbWc6O5A5l+y43AjloWtMZQbcNR
Yg9JYy6VuBzf5jRNIr5jc5/FILbPfOndqYmPPiG3IHof3EplAyc0VUteWclw2LjM
11OMUvzslcsJYluw3Sl8xcHqLHmlyloz5orx49nXpRQT4W+VpoNbvKb7xN1+6wqc
/CD5+ECymzCT+yQbMuEkOzg3ix7LAJJYU0WWmyxjW4oD5bbyuGG/7vh3imEKtTTm
3UqqLuj/GBsri2sIGXIgcV5aQGuGphHTgzO2ucXi9H5enHvwHWEWHno/w5Rm1N5y
/vo7ZPoFd+JrBX5DZCA+naFrQwp59xYW0gjWTn0mvtvg/VQJUPuF1WR4TxulZBPd
zc73xQBCGKFNYo+aH6lF4AJZW6wKjiTyhDdHElAg94fLhphQrww/Of1vly4IJzXQ
d+PKbI5kCTuFgAp7IvTG+2/ZiF3g8f1pFISbqZYCq380ijJa6J61YlrlzMps8Z21
7+rOR37Fp9ykTRQ3Y5ZCCTTsVeWKY2J1at0nWpAV+dJB7PLBXbEzkSS4fwCUJrvD
f7qcaUjlRWr3yF19Btrw6lfkSb28yBP7tltpwwIDAQABo4IBfDCCAXgwgfsGA1Ud
IwSB8zCB8IAUkx1UKNyBwIfCLg0DN23KiZBmcRShgcGkgb4wgbsxCzAJBgNVBAYT
AlBMMRkwFwYDVQQIDBBEb2xuecOFwptsw4TChXNrMRMwEQYDVQQHDApXcm9jw4XC
gmF3MRowGAYDVQQKDBFDeWZyb3d5IE5vdGFyaXVzejEgMB4GA1UECwwXTm90YXJp
dXN6IFdyb2PDhcKCYXdza2kxFTATBgNVBAMMDG5vdGFyaXVzei5wbDEnMCUGCSqG
SIb3DQEJARYYc2VrcmV0YXJpYXRAbm90YXJpdXN6LnBsghR7k0TmyDMkyGd9C5In
vRyB66R5cTAJBgNVHRMEAjAAMAsGA1UdDwQEAwID6DBBBgNVHREEOjA4gRxhZG1p
bmlzdHJhY2phQGtyeXB0by5leGFtcGxlghJ3d3cua3J5cHRvLmV4YW1wbGWHBH8A
AAEwHQYDVR0OBBYEFKtZ4M6dMLiFx6XbtWHNgcVmqvrVMA0GCSqGSIb3DQEBCwUA
A4ICAQA8CByvXD300n+lfwQ29bphZuQP67nENVg/uzyeCSGZHfg+d63NRQe+bt/M
Y/6W9GQHjWrCI5EYkKcUSr+WSQ8VBygzhIM8fFfcsGibLe2+FVzTWAr0gZBR7RVP
G4NX/A3bHvLLKxWd21uMOK9Bp2M1HB8My1C22l7BKjolaUarHxs6RUFCGolWlBLS
5g/HuOsboqC+xNsLg8xfi7i4yrlXiXn5vxOwlET/FqWpi7882maohZ57bCGIWJn8
rRmUsa2AiYZzkcyyMJxKaQnOaQIyooJfQ2srFfyS9I8o79oW5cxP9/9voDqxyDg4
p55fx38jVIh7XrPMqzHFUhTsWAU/PR2FJBsA8GvMoQuCFf2A13umpZTosLGQ48+A
4C/wEXaLB8wmDIOZSkRHPzSWxP9VstXcbCiCLUk02Q+I96i4ROAzccSV8GfzPW1O
zcYJKyrXhUPhpeRtf1Nrm2UTV18NL6YvxaYhUyNlZYp4gHAeMsD77PIMUfQuvNt+
UZW2YvpUxX+JrRQzQMPiFjQuyxQcrZ75O6UloaClTukKfy/8lSx0bUvVZT+PZVcr
2HzupkXE5KCnd8vd4+806R76xCzFKG7RDln+L3Hzm3cNEa5lOr/kLX/T3pbKyL+z
Z8M+pc7AI8Pf8gGlPy7TuJ4w0Rxe7ORn8r8/bEOg2YCOoGu1og==
-----END CERTIFICATE-----
