Certificate:
    Data:
        Version: 1 (0x0)
        Serial Number: 2 (0x2)
        Signature Algorithm: sha256WithRSAEncryption
        Issuer: C=PL, ST=Dolny\xC3\x85\xC2\x9Bl\xC3\x84\xC2\x85sk, L=Wroc\xC3\x85\xC2\x82aw, O=Cyfrowy Notariusz, OU=Notariusz Wroc\xC3\x85\xC2\x82awski, CN=notariusz.pl/emailAddress=sekretariat@notariusz.pl
        Validity
            Not Before: Dec  8 14:33:53 2023 GMT
            Not After : Dec 22 14:33:53 2023 GMT
        Subject: C=PL, ST=Dolny\xC5\x9Bl\xC4\x85sk, O=Us\xC5\x82ugi Kryptograficzne Sp. z o.o., OU=Kryptografia Wroc\xC5\x82aw, CN=www.krypto.example/emailAddress=administracja@krypto.example
        Subject Public Key Info:
            Public Key Algorithm: rsaEncryption
                Public-Key: (4096 bit)
                Modulus:
                    00:a9:c0:46:62:b7:51:3d:8c:71:a3:97:e1:75:86:
                    a4:3f:50:f0:85:2a:47:52:5b:ed:23:05:87:58:7a:
                    9b:28:40:0d:2f:47:a5:92:c7:48:97:ca:8b:6b:fd:
                    06:64:2d:33:5d:0b:86:81:a3:cd:32:06:d2:9c:bd:
                    4c:66:76:89:a8:6a:dd:bd:1b:28:62:c3:92:b9:b5:
                    e4:f2:a6:f4:c5:e1:d6:d6:73:a3:b9:03:99:7e:cb:
                    8d:c0:8e:5a:16:b4:c6:50:6d:c3:51:62:0f:49:63:
                    2e:95:b8:1c:df:e6:34:4d:22:be:63:73:9f:c5:20:
                    b6:cf:7c:e9:dd:a9:89:8f:3e:21:b7:20:7a:1f:dc:
                    4a:65:03:27:34:55:4b:5e:59:c9:70:d8:b8:cc:d7:
                    53:8c:52:fc:ec:95:cb:09:62:5b:b0:dd:29:7c:c5:
                    c1:ea:2c:79:a5:ca:5a:33:e6:8a:f1:e3:d9:d7:a5:
                    14:13:e1:6f:95:a6:83:5b:bc:a6:fb:c4:dd:7e:eb:
                    0a:9c:fc:20:f9:f8:40:b2:9b:30:93:fb:24:1b:32:
                    e1:24:3b:38:37:8b:1e:cb:00:92:58:53:45:96:9b:
                    2c:63:5b:8a:03:e5:b6:f2:b8:61:bf:ee:f8:77:8a:
                    61:0a:b5:34:e6:dd:4a:aa:2e:e8:ff:18:1b:2b:8b:
                    6b:08:19:72:20:71:5e:5a:40:6b:86:a6:11:d3:83:
                    33:b6:b9:c5:e2:f4:7e:5e:9c:7b:f0:1d:61:16:1e:
                    7a:3f:c3:94:66:d4:de:72:fe:fa:3b:64:fa:05:77:
                    e2:6b:05:7e:43:64:20:3e:9d:a1:6b:43:0a:79:f7:
                    16:16:d2:08:d6:4e:7d:26:be:db:e0:fd:54:09:50:
                    fb:85:d5:64:78:4f:1b:a5:64:13:dd:cd:ce:f7:c5:
                    00:42:18:a1:4d:62:8f:9a:1f:a9:45:e0:02:59:5b:
                    ac:0a:8e:24:f2:84:37:47:12:50:20:f7:87:cb:86:
                    98:50:af:0c:3f:39:fd:6f:97:2e:08:27:35:d0:77:
                    e3:ca:6c:8e:64:09:3b:85:80:0a:7b:22:f4:c6:fb:
                    6f:d9:88:5d:e0:f1:fd:69:14:84:9b:a9:96:02:ab:
                    7f:34:8a:32:5a:e8:9e:b5:62:5a:e5:cc:ca:6c:f1:
                    9d:b5:ef:ea:ce:47:7e:c5:a7:dc:a4:4d:14:37:63:
                    96:42:09:34:ec:55:e5:8a:63:62:75:6a:dd:27:5a:
                    90:15:f9:d2:41:ec:f2:c1:5d:b1:33:91:24:b8:7f:
                    00:94:26:bb:c3:7f:ba:9c:69:48:e5:45:6a:f7:c8:
                    5d:7d:06:da:f0:ea:57:e4:49:bd:bc:c8:13:fb:b6:
                    5b:69:c3
                Exponent: 65537 (0x10001)
    Signature Algorithm: sha256WithRSAEncryption
    Signature Value:
        3d:bc:6a:2f:92:39:da:d1:7f:39:8b:17:dc:97:f7:3f:57:27:
        0a:7b:2e:03:fb:d8:47:1c:35:87:b7:1d:54:9d:a4:c8:0b:17:
        a5:8c:36:ac:c6:34:ef:db:d9:d5:97:76:bf:04:a8:3a:93:f5:
        31:21:a8:35:45:86:b4:d8:0a:a6:0a:ce:e3:1d:ea:9e:1c:48:
        e4:ba:e0:05:f3:f8:0c:4d:0d:fe:2d:a6:51:74:80:ad:b6:0b:
        63:1d:36:d0:75:60:19:53:d1:15:1f:bb:01:35:5a:8c:9a:9c:
        54:65:61:5a:3a:72:86:59:ff:9c:53:ac:ab:38:02:6d:07:f1:
        b4:65:d1:a4:28:ac:a8:8d:f2:35:c8:13:f0:0d:ad:ce:7a:80:
        07:13:a0:17:a0:7e:6c:29:89:16:e1:f3:3c:51:56:a6:f1:39:
        e5:c8:da:ec:88:7e:9b:75:4c:f2:a0:21:c1:4c:04:cc:64:8e:
        93:9b:1d:14:f9:99:bc:54:63:5d:30:ca:21:df:31:75:1b:1c:
        15:ba:65:13:7a:d7:23:6c:01:83:c5:b9:fd:cf:73:10:7e:0a:
        53:8e:29:96:7b:32:22:eb:ac:e6:b3:b0:64:80:e4:6b:cd:4a:
        00:8e:07:db:cb:3c:34:f3:5b:01:23:e8:df:8d:c2:bd:8c:75:
        2d:25:31:f9:f0:49:4f:43:00:1d:80:cf:96:fa:4f:4a:31:41:
        1f:dc:63:8f:c7:5a:c0:36:1f:bf:9c:d1:33:fb:32:df:7b:21:
        5b:ec:89:55:79:71:71:18:9b:f5:9a:bc:c6:6a:5e:51:4e:7e:
        c1:84:3a:63:9b:bc:98:79:bc:43:b8:9b:a3:29:5a:b9:94:81:
        09:bb:93:31:45:ea:b2:3f:2a:77:6f:1b:e7:2f:a1:c3:f2:49:
        46:2e:76:aa:66:26:28:5b:fc:7b:e9:2c:3e:c2:52:61:f0:47:
        d5:a5:3d:57:c8:4d:f2:9f:5d:b3:96:15:2f:a7:db:11:64:46:
        9f:8e:fd:42:b7:e2:08:78:11:75:3c:84:eb:c5:9b:67:d2:d0:
        9a:71:23:20:8f:73:23:4a:9e:ce:30:aa:a1:02:66:62:89:3e:
        59:df:e5:09:43:c2:9f:63:85:d0:21:d2:7a:be:f0:9f:49:a0:
        59:15:80:a6:dd:ca:38:c4:e2:0a:c0:01:e5:46:de:be:fb:57:
        c9:b8:65:c2:e5:21:cc:17:ae:57:af:a6:73:70:2c:8e:77:b8:
        7d:c8:2e:bb:6a:14:f4:fc:25:d0:14:ff:4f:78:9d:ff:0d:8d:
        b0:9e:4c:31:3e:67:c2:9b:41:b4:88:b0:1c:d3:02:8d:d2:5f:
        9b:80:6b:0f:0d:99:00:ad
-----BEGIN CERTIFICATE-----
MIIF7DCCA9QCAQIwDQYJKoZIhvcNAQELBQAwgbsxCzAJBgNVBAYTAlBMMRkwFwYD
VQQIDBBEb2xuecOFwptsw4TChXNrMRMwEQYDVQQHDApXcm9jw4XCgmF3MRowGAYD
VQQKDBFDeWZyb3d5IE5vdGFyaXVzejEgMB4GA1UECwwXTm90YXJpdXN6IFdyb2PD
hcKCYXdza2kxFTATBgNVBAMMDG5vdGFyaXVzei5wbDEnMCUGCSqGSIb3DQEJARYY
c2VrcmV0YXJpYXRAbm90YXJpdXN6LnBsMB4XDTIzMTIwODE0MzM1M1oXDTIzMTIy
MjE0MzM1M1owgbsxCzAJBgNVBAYTAlBMMRUwEwYDVQQIDAxEb2xuecWbbMSFc2sx
KzApBgNVBAoMIlVzxYJ1Z2kgS3J5cHRvZ3JhZmljem5lIFNwLiB6IG8uby4xHjAc
BgNVBAsMFUtyeXB0b2dyYWZpYSBXcm9jxYJhdzEbMBkGA1UEAwwSd3d3LmtyeXB0
by5leGFtcGxlMSswKQYJKoZIhvcNAQkBFhxhZG1pbmlzdHJhY2phQGtyeXB0by5l
eGFtcGxlMIICIjANBgkqhkiG9w0BAQEFAAOCAg8AMIICCgKCAgEAqcBGYrdRPYxx
o5fhdYakP1DwhSpHUlvtIwWHWHqbKEANL0elksdIl8qLa/0GZC0zXQuGgaPNMgbS
nL1MZnaJqGrdvRsoYsOSubXk8qb0xeHW1nOjuQOZfsuNwI5aFrTGUG3DUWIPSWMu
lbgc3+Y0TSK+Y3OfxSC2z3zp3amJjz4htyB6H9xKZQMnNFVLXlnJcNi4zNdTjFL8
7JXLCWJbsN0pfMXB6ix5pcpaM+aK8ePZ16UUE+FvlaaDW7ym+8TdfusKnPwg+fhA
spswk/skGzLhJDs4N4seywCSWFNFlpssY1uKA+W28rhhv+74d4phCrU05t1Kqi7o
/xgbK4trCBlyIHFeWkBrhqYR04MztrnF4vR+Xpx78B1hFh56P8OUZtTecv76O2T6
BXfiawV+Q2QgPp2ha0MKefcWFtII1k59Jr7b4P1UCVD7hdVkeE8bpWQT3c3O98UA
QhihTWKPmh+pReACWVusCo4k8oQ3RxJQIPeHy4aYUK8MPzn9b5cuCCc10HfjymyO
ZAk7hYAKeyL0xvtv2Yhd4PH9aRSEm6mWAqt/NIoyWuietWJa5czKbPGdte/qzkd+
xafcpE0UN2OWQgk07FXlimNidWrdJ1qQFfnSQezywV2xM5EkuH8AlCa7w3+6nGlI
5UVq98hdfQba8OpX5Em9vMgT+7ZbacMCAwEAATANBgkqhkiG9w0BAQsFAAOCAgEA
PbxqL5I52tF/OYsX3Jf3P1cnCnsuA/vYRxw1h7cdVJ2kyAsXpYw2rMY079vZ1Zd2
vwSoOpP1MSGoNUWGtNgKpgrO4x3qnhxI5LrgBfP4DE0N/i2mUXSArbYLYx020HVg
GVPRFR+7ATVajJqcVGVhWjpyhln/nFOsqzgCbQfxtGXRpCisqI3yNcgT8A2tznqA
BxOgF6B+bCmJFuHzPFFWpvE55cja7Ih+m3VM8qAhwUwEzGSOk5sdFPmZvFRjXTDK
Id8xdRscFbplE3rXI2wBg8W5/c9zEH4KU44plnsyIuus5rOwZIDka81KAI4H28s8
NPNbASPo343CvYx1LSUx+fBJT0MAHYDPlvpPSjFBH9xjj8dawDYfv5zRM/sy33sh
W+yJVXlxcRib9Zq8xmpeUU5+wYQ6Y5u8mHm8Q7iboylauZSBCbuTMUXqsj8qd28b
5y+hw/JJRi52qmYmKFv8e+ksPsJSYfBH1aU9V8hN8p9ds5YVL6fbEWRGn479Qrfi
CHgRdTyE68WbZ9LQmnEjII9zI0qezjCqoQJmYok+Wd/lCUPCn2OF0CHSer7wn0mg
WRWApt3KOMTiCsAB5UbevvtXybhlwuUhzBeuV6+mc3Asjne4fcguu2oU9Pwl0BT/
T3id/w2NsJ5MMT5nwptBtIiwHNMCjdJfm4BrDw2ZAK0=
-----END CERTIFICATE-----
