Certificate:
    Data:
        Version: 1 (0x0)
        Serial Number: 3 (0x3)
        Signature Algorithm: sha256WithRSAEncryption
        Issuer: C=PL, ST=Dolny\xC3\x85\xC2\x9Bl\xC3\x84\xC2\x85sk, L=Wroc\xC3\x85\xC2\x82aw, O=Cyfrowy Notariusz, OU=Notariusz Wroc\xC3\x85\xC2\x82awski, CN=notariusz.pl/emailAddress=sekretariat@notariusz.pl
        Validity
            Not Before: Dec  8 14:37:05 2023 GMT
            Not After : Oct  8 14:37:05 2027 GMT
        Subject: C=PL, ST=Dolny\xC5\x9Bl\xC4\x85sk, O=Us\xC5\x82ugi Kryptograficzne Sp. z o.o., OU=Kryptografia Wroc\xC5\x82aw, CN=www.krypto.example/emailAddress=administracja@krypto.example
        Subject Public Key Info:
            Public Key Algorithm: rsaEncryption
                Public-Key: (4096 bit)
                Modulus:
                    00:a9:c0:46:62:b7:51:3d:8c:71:a3:97:e1:75:86:
                    a4:3f:50:f0:85:2a:47:52:5b:ed:23:05:87:58:7a:
                    9b:28:40:0d:2f:47:a5:92:c7:48:97:ca:8b:6b:fd:
                    06:64:2d:33:5d:0b:86:81:a3:cd:32:06:d2:9c:bd:
                    4c:66:76:89:a8:6a:dd:bd:1b:28:62:c3:92:b9:b5:
                    e4:f2:a6:f4:c5:e1:d6:d6:73:a3:b9:03:99:7e:cb:
                    8d:c0:8e:5a:16:b4:c6:50:6d:c3:51:62:0f:49:63:
                    2e:95:b8:1c:df:e6:34:4d:22:be:63:73:9f:c5:20:
                    b6:cf:7c:e9:dd:a9:89:8f:3e:21:b7:20:7a:1f:dc:
                    4a:65:03:27:34:55:4b:5e:59:c9:70:d8:b8:cc:d7:
                    53:8c:52:fc:ec:95:cb:09:62:5b:b0:dd:29:7c:c5:
                    c1:ea:2c:79:a5:ca:5a:33:e6:8a:f1:e3:d9:d7:a5:
                    14:13:e1:6f:95:a6:83:5b:bc:a6:fb:c4:dd:7e:eb:
                    0a:9c:fc:20:f9:f8:40:b2:9b:30:93:fb:24:1b:32:
                    e1:24:3b:38:37:8b:1e:cb:00:92:58:53:45:96:9b:
                    2c:63:5b:8a:03:e5:b6:f2:b8:61:bf:ee:f8:77:8a:
                    61:0a:b5:34:e6:dd:4a:aa:2e:e8:ff:18:1b:2b:8b:
                    6b:08:19:72:20:71:5e:5a:40:6b:86:a6:11:d3:83:
                    33:b6:b9:c5:e2:f4:7e:5e:9c:7b:f0:1d:61:16:1e:
                    7a:3f:c3:94:66:d4:de:72:fe:fa:3b:64:fa:05:77:
                    e2:6b:05:7e:43:64:20:3e:9d:a1:6b:43:0a:79:f7:
                    16:16:d2:08:d6:4e:7d:26:be:db:e0:fd:54:09:50:
                    fb:85:d5:64:78:4f:1b:a5:64:13:dd:cd:ce:f7:c5:
                    00:42:18:a1:4d:62:8f:9a:1f:a9:45:e0:02:59:5b:
                    ac:0a:8e:24:f2:84:37:47:12:50:20:f7:87:cb:86:
                    98:50:af:0c:3f:39:fd:6f:97:2e:08:27:35:d0:77:
                    e3:ca:6c:8e:64:09:3b:85:80:0a:7b:22:f4:c6:fb:
                    6f:d9:88:5d:e0:f1:fd:69:14:84:9b:a9:96:02:ab:
                    7f:34:8a:32:5a:e8:9e:b5:62:5a:e5:cc:ca:6c:f1:
                    9d:b5:ef:ea:ce:47:7e:c5:a7:dc:a4:4d:14:37:63:
                    96:42:09:34:ec:55:e5:8a:63:62:75:6a:dd:27:5a:
                    90:15:f9:d2:41:ec:f2:c1:5d:b1:33:91:24:b8:7f:
                    00:94:26:bb:c3:7f:ba:9c:69:48:e5:45:6a:f7:c8:
                    5d:7d:06:da:f0:ea:57:e4:49:bd:bc:c8:13:fb:b6:
                    5b:69:c3
                Exponent: 65537 (0x10001)
    Signature Algorithm: sha256WithRSAEncryption
    Signature Value:
        b6:7c:ee:97:93:9d:2f:07:9f:31:85:b2:64:63:36:e8:88:32:
        8c:78:37:3d:90:95:7b:8d:57:1c:92:93:df:7f:57:8b:65:c7:
        eb:b3:57:a6:2f:0f:45:66:cb:bd:fa:ff:34:4e:b6:31:2d:45:
        0c:1e:36:9d:99:14:5d:3e:5d:53:17:4b:9e:39:13:0d:38:5b:
        d8:9a:60:6b:0d:84:8c:07:53:18:e1:20:2c:7e:bf:5e:a7:fa:
        1a:ff:62:32:61:67:da:09:33:47:d5:95:6d:b9:1d:c5:54:9a:
        12:34:c5:10:ae:96:31:9d:da:54:e2:ce:52:a0:57:a2:a2:74:
        97:64:21:e9:de:8a:c0:73:71:24:69:49:7e:fa:6f:cd:70:63:
        00:0b:43:e0:36:d6:63:f4:e5:4f:0c:e6:3e:98:0f:c1:bf:38:
        6d:09:cf:7e:bc:00:7e:b3:4a:db:b4:c5:ae:5c:77:c4:0a:df:
        5b:27:fc:25:57:8d:16:db:4c:09:26:80:bc:40:84:a1:25:69:
        22:11:43:6f:66:80:36:03:36:60:cc:d0:54:d6:cf:da:6e:b1:
        19:20:c8:19:40:0c:18:ef:cb:8d:42:cf:d5:2e:a2:ae:27:78:
        59:37:8d:23:91:9d:3f:fa:9c:c8:81:7d:83:2f:cd:0d:d6:89:
        ed:f0:87:02:75:18:1a:c8:0b:01:39:31:88:23:1d:d0:b4:fa:
        0e:5e:f4:71:28:84:67:81:57:8d:42:04:bc:82:2b:ad:91:8e:
        62:30:e2:34:e0:c9:88:95:12:f8:ee:c5:26:5d:b6:f6:19:b3:
        60:c6:f0:76:7b:ad:6d:b9:0d:02:79:b0:93:e0:71:6c:7a:5f:
        41:8a:23:04:5b:40:7d:0b:4a:9d:7c:dd:b6:81:0f:c3:4b:a0:
        36:25:43:de:1b:d1:00:2a:d7:c7:ed:e6:bc:c5:5b:e3:28:a4:
        45:5b:f0:bf:4a:1d:58:b6:81:98:d1:08:80:a3:4a:2f:f9:c8:
        dc:ee:72:70:f9:7d:c5:db:eb:bb:ee:1e:94:4e:6d:2b:4e:fd:
        1c:0c:c2:f5:c4:41:8e:a6:c5:f2:6d:1d:f5:01:58:4c:cc:98:
        7b:74:ee:79:63:39:6e:7a:74:01:29:4b:3a:d8:77:c5:f6:c8:
        49:ad:54:90:52:69:78:64:d0:6a:8e:35:98:d6:29:10:81:83:
        0b:8b:ab:24:b5:9b:20:91:c9:77:a5:4d:07:51:bd:3f:59:5a:
        d7:6f:b6:0d:c8:a5:c2:e6:27:14:31:84:8f:86:f5:9e:6f:88:
        17:3c:35:c5:e0:cd:73:63:1c:2e:cc:98:90:33:d7:72:36:a3:
        b6:0d:e5:db:24:49:16:6a
-----BEGIN CERTIFICATE-----
MIIF7DCCA9QCAQMwDQYJKoZIhvcNAQELBQAwgbsxCzAJBgNVBAYTAlBMMRkwFwYD
VQQIDBBEb2xuecOFwptsw4TChXNrMRMwEQYDVQQHDApXcm9jw4XCgmF3MRowGAYD
VQQKDBFDeWZyb3d5IE5vdGFyaXVzejEgMB4GA1UECwwXTm90YXJpdXN6IFdyb2PD
hcKCYXdza2kxFTATBgNVBAMMDG5vdGFyaXVzei5wbDEnMCUGCSqGSIb3DQEJARYY
c2VrcmV0YXJpYXRAbm90YXJpdXN6LnBsMB4XDTIzMTIwODE0MzcwNVoXDTI3MTAw
ODE0MzcwNVowgbsxCzAJBgNVBAYTAlBMMRUwEwYDVQQIDAxEb2xuecWbbMSFc2sx
KzApBgNVBAoMIlVzxYJ1Z2kgS3J5cHRvZ3JhZmljem5lIFNwLiB6IG8uby4xHjAc
BgNVBAsMFUtyeXB0b2dyYWZpYSBXcm9jxYJhdzEbMBkGA1UEAwwSd3d3LmtyeXB0
by5leGFtcGxlMSswKQYJKoZIhvcNAQkBFhxhZG1pbmlzdHJhY2phQGtyeXB0by5l
eGFtcGxlMIICIjANBgkqhkiG9w0BAQEFAAOCAg8AMIICCgKCAgEAqcBGYrdRPYxx
o5fhdYakP1DwhSpHUlvtIwWHWHqbKEANL0elksdIl8qLa/0GZC0zXQuGgaPNMgbS
nL1MZnaJqGrdvRsoYsOSubXk8qb0xeHW1nOjuQOZfsuNwI5aFrTGUG3DUWIPSWMu
lbgc3+Y0TSK+Y3OfxSC2z3zp3amJjz4htyB6H9xKZQMnNFVLXlnJcNi4zNdTjFL8
7JXLCWJbsN0pfMXB6ix5pcpaM+aK8ePZ16UUE+FvlaaDW7ym+8TdfusKnPwg+fhA
spswk/skGzLhJDs4N4seywCSWFNFlpssY1uKA+W28rhhv+74d4phCrU05t1Kqi7o
/xgbK4trCBlyIHFeWkBrhqYR04MztrnF4vR+Xpx78B1hFh56P8OUZtTecv76O2T6
BXfiawV+Q2QgPp2ha0MKefcWFtII1k59Jr7b4P1UCVD7hdVkeE8bpWQT3c3O98UA
QhihTWKPmh+pReACWVusCo4k8oQ3RxJQIPeHy4aYUK8MPzn9b5cuCCc10HfjymyO
ZAk7hYAKeyL0xvtv2Yhd4PH9aRSEm6mWAqt/NIoyWuietWJa5czKbPGdte/qzkd+
xafcpE0UN2OWQgk07FXlimNidWrdJ1qQFfnSQezywV2xM5EkuH8AlCa7w3+6nGlI
5UVq98hdfQba8OpX5Em9vMgT+7ZbacMCAwEAATANBgkqhkiG9w0BAQsFAAOCAgEA
tnzul5OdLwefMYWyZGM26IgyjHg3PZCVe41XHJKT339Xi2XH67NXpi8PRWbLvfr/
NE62MS1FDB42nZkUXT5dUxdLnjkTDThb2Jpgaw2EjAdTGOEgLH6/Xqf6Gv9iMmFn
2gkzR9WVbbkdxVSaEjTFEK6WMZ3aVOLOUqBXoqJ0l2Qh6d6KwHNxJGlJfvpvzXBj
AAtD4DbWY/TlTwzmPpgPwb84bQnPfrwAfrNK27TFrlx3xArfWyf8JVeNFttMCSaA
vECEoSVpIhFDb2aANgM2YMzQVNbP2m6xGSDIGUAMGO/LjULP1S6irid4WTeNI5Gd
P/qcyIF9gy/NDdaJ7fCHAnUYGsgLATkxiCMd0LT6Dl70cSiEZ4FXjUIEvIIrrZGO
YjDiNODJiJUS+O7FJl229hmzYMbwdnutbbkNAnmwk+BxbHpfQYojBFtAfQtKnXzd
toEPw0ugNiVD3hvRACrXx+3mvMVb4yikRVvwv0odWLaBmNEIgKNKL/nI3O5ycPl9
xdvru+4elE5tK079HAzC9cRBjqbF8m0d9QFYTMyYe3TueWM5bnp0ASlLOth3xfbI
Sa1UkFJpeGTQao41mNYpEIGDC4urJLWbIJHJd6VNB1G9P1la12+2DcilwuYnFDGE
j4b1nm+IFzw1xeDNc2McLsyYkDPXcjajtg3l2yRJFmo=
-----END CERTIFICATE-----
