
zadanie3.elf:     file format elf32-avr

Sections:
Idx Name          Size      VMA       LMA       File off  Algn
  0 .data         00000000  00800100  00003a6e  00003ae2  2**0
                  CONTENTS, ALLOC, LOAD, DATA
  1 .text         00003a6e  00000000  00000000  00000074  2**1
                  CONTENTS, ALLOC, LOAD, READONLY, CODE
  2 .stab         00000738  00000000  00000000  00003ae4  2**2
                  CONTENTS, READONLY, DEBUGGING
  3 .stabstr      00000d47  00000000  00000000  0000421c  2**0
                  CONTENTS, READONLY, DEBUGGING
  4 .comment      00000011  00000000  00000000  00004f63  2**0
                  CONTENTS, READONLY
  5 .note.gnu.avr.deviceinfo 00000040  00000000  00000000  00004f74  2**2
                  CONTENTS, READONLY
  6 .debug_info   000005f4  00000000  00000000  00004fb4  2**0
                  CONTENTS, READONLY, DEBUGGING
  7 .debug_abbrev 000005a2  00000000  00000000  000055a8  2**0
                  CONTENTS, READONLY, DEBUGGING
  8 .debug_line   0000001a  00000000  00000000  00005b4a  2**0
                  CONTENTS, READONLY, DEBUGGING
  9 .debug_str    00000208  00000000  00000000  00005b64  2**0
                  CONTENTS, READONLY, DEBUGGING

Disassembly of section .text:

00000000 <__vectors>:
       0:	0c 94 de 1c 	jmp	0x39bc	; 0x39bc <__ctors_end>
       4:	0c 94 e8 1c 	jmp	0x39d0	; 0x39d0 <__bad_interrupt>
       8:	0c 94 e8 1c 	jmp	0x39d0	; 0x39d0 <__bad_interrupt>
       c:	0c 94 e8 1c 	jmp	0x39d0	; 0x39d0 <__bad_interrupt>
      10:	0c 94 e8 1c 	jmp	0x39d0	; 0x39d0 <__bad_interrupt>
      14:	0c 94 e8 1c 	jmp	0x39d0	; 0x39d0 <__bad_interrupt>
      18:	0c 94 e8 1c 	jmp	0x39d0	; 0x39d0 <__bad_interrupt>
      1c:	0c 94 e8 1c 	jmp	0x39d0	; 0x39d0 <__bad_interrupt>
      20:	0c 94 e8 1c 	jmp	0x39d0	; 0x39d0 <__bad_interrupt>
      24:	0c 94 e8 1c 	jmp	0x39d0	; 0x39d0 <__bad_interrupt>
      28:	0c 94 e8 1c 	jmp	0x39d0	; 0x39d0 <__bad_interrupt>
      2c:	0c 94 e8 1c 	jmp	0x39d0	; 0x39d0 <__bad_interrupt>
      30:	0c 94 e8 1c 	jmp	0x39d0	; 0x39d0 <__bad_interrupt>
      34:	0c 94 e8 1c 	jmp	0x39d0	; 0x39d0 <__bad_interrupt>
      38:	0c 94 e8 1c 	jmp	0x39d0	; 0x39d0 <__bad_interrupt>
      3c:	0c 94 e8 1c 	jmp	0x39d0	; 0x39d0 <__bad_interrupt>
      40:	0c 94 e8 1c 	jmp	0x39d0	; 0x39d0 <__bad_interrupt>
      44:	0c 94 e8 1c 	jmp	0x39d0	; 0x39d0 <__bad_interrupt>
      48:	0c 94 e8 1c 	jmp	0x39d0	; 0x39d0 <__bad_interrupt>
      4c:	0c 94 e8 1c 	jmp	0x39d0	; 0x39d0 <__bad_interrupt>
      50:	0c 94 e8 1c 	jmp	0x39d0	; 0x39d0 <__bad_interrupt>
      54:	0c 94 e8 1c 	jmp	0x39d0	; 0x39d0 <__bad_interrupt>
      58:	0c 94 e8 1c 	jmp	0x39d0	; 0x39d0 <__bad_interrupt>
      5c:	0c 94 e8 1c 	jmp	0x39d0	; 0x39d0 <__bad_interrupt>
      60:	0c 94 e8 1c 	jmp	0x39d0	; 0x39d0 <__bad_interrupt>
      64:	0c 94 e8 1c 	jmp	0x39d0	; 0x39d0 <__bad_interrupt>

00000068 <__trampolines_end>:
      68:	80 80       	ld	r8, Z
      6a:	80 80       	ld	r8, Z
      6c:	80 80       	ld	r8, Z
      6e:	80 80       	ld	r8, Z
      70:	80 80       	ld	r8, Z
      72:	80 80       	ld	r8, Z
      74:	80 80       	ld	r8, Z
      76:	80 80       	ld	r8, Z
      78:	80 80       	ld	r8, Z
      7a:	80 80       	ld	r8, Z
      7c:	80 80       	ld	r8, Z
      7e:	80 80       	ld	r8, Z
      80:	80 80       	ld	r8, Z
      82:	80 80       	ld	r8, Z
      84:	80 80       	ld	r8, Z
      86:	80 80       	ld	r8, Z
      88:	80 80       	ld	r8, Z
      8a:	80 80       	ld	r8, Z
      8c:	80 80       	ld	r8, Z
      8e:	80 80       	ld	r8, Z
      90:	80 80       	ld	r8, Z
      92:	80 80       	ld	r8, Z
      94:	80 80       	ld	r8, Z
      96:	80 80       	ld	r8, Z
      98:	80 80       	ld	r8, Z
      9a:	80 80       	ld	r8, Z
      9c:	80 80       	ld	r8, Z
      9e:	80 80       	ld	r8, Z
      a0:	80 80       	ld	r8, Z
      a2:	80 80       	ld	r8, Z
      a4:	80 80       	ld	r8, Z
      a6:	80 80       	ld	r8, Z
      a8:	80 80       	ld	r8, Z
      aa:	80 80       	ld	r8, Z
      ac:	80 80       	ld	r8, Z
      ae:	80 80       	ld	r8, Z
      b0:	80 80       	ld	r8, Z
      b2:	80 80       	ld	r8, Z
      b4:	80 80       	ld	r8, Z
      b6:	80 80       	ld	r8, Z
      b8:	80 80       	ld	r8, Z
      ba:	80 80       	ld	r8, Z
      bc:	80 80       	ld	r8, Z
      be:	80 80       	ld	r8, Z
      c0:	80 80       	ld	r8, Z
      c2:	80 80       	ld	r8, Z
      c4:	80 80       	ld	r8, Z
      c6:	80 80       	ld	r8, Z
      c8:	80 80       	ld	r8, Z
      ca:	80 80       	ld	r8, Z
      cc:	80 80       	ld	r8, Z
      ce:	80 80       	ld	r8, Z
      d0:	80 80       	ld	r8, Z
      d2:	80 80       	ld	r8, Z
      d4:	80 80       	ld	r8, Z
      d6:	80 80       	ld	r8, Z
      d8:	80 80       	ld	r8, Z
      da:	80 80       	ld	r8, Z
      dc:	80 80       	ld	r8, Z
      de:	80 80       	ld	r8, Z
      e0:	80 80       	ld	r8, Z
      e2:	80 80       	ld	r8, Z
      e4:	80 80       	ld	r8, Z
      e6:	80 80       	ld	r8, Z
      e8:	80 80       	ld	r8, Z
      ea:	80 80       	ld	r8, Z
      ec:	80 80       	ld	r8, Z
      ee:	80 80       	ld	r8, Z
      f0:	80 80       	ld	r8, Z
      f2:	80 80       	ld	r8, Z
      f4:	80 80       	ld	r8, Z
      f6:	80 80       	ld	r8, Z
      f8:	80 80       	ld	r8, Z
      fa:	80 80       	ld	r8, Z
      fc:	80 80       	ld	r8, Z
      fe:	80 80       	ld	r8, Z
     100:	80 80       	ld	r8, Z
     102:	80 80       	ld	r8, Z
     104:	80 80       	ld	r8, Z
     106:	80 80       	ld	r8, Z
     108:	80 80       	ld	r8, Z
     10a:	80 80       	ld	r8, Z
     10c:	80 80       	ld	r8, Z
     10e:	80 80       	ld	r8, Z
     110:	80 80       	ld	r8, Z
     112:	80 80       	ld	r8, Z
     114:	80 80       	ld	r8, Z
     116:	80 80       	ld	r8, Z
     118:	80 80       	ld	r8, Z
     11a:	80 80       	ld	r8, Z
     11c:	80 80       	ld	r8, Z
     11e:	80 80       	ld	r8, Z
     120:	80 80       	ld	r8, Z
     122:	80 80       	ld	r8, Z
     124:	80 80       	ld	r8, Z
     126:	80 80       	ld	r8, Z
     128:	80 80       	ld	r8, Z
     12a:	80 80       	ld	r8, Z
     12c:	80 80       	ld	r8, Z
     12e:	80 80       	ld	r8, Z
     130:	80 80       	ld	r8, Z
     132:	80 80       	ld	r8, Z
     134:	80 80       	ld	r8, Z
     136:	80 80       	ld	r8, Z
     138:	80 80       	ld	r8, Z
     13a:	80 80       	ld	r8, Z
     13c:	80 80       	ld	r8, Z
     13e:	80 80       	ld	r8, Z
     140:	80 80       	ld	r8, Z
     142:	80 80       	ld	r8, Z
     144:	80 80       	ld	r8, Z
     146:	80 80       	ld	r8, Z
     148:	80 80       	ld	r8, Z
     14a:	80 80       	ld	r8, Z
     14c:	80 80       	ld	r8, Z
     14e:	80 80       	ld	r8, Z
     150:	80 80       	ld	r8, Z
     152:	80 80       	ld	r8, Z
     154:	80 80       	ld	r8, Z
     156:	80 80       	ld	r8, Z
     158:	80 80       	ld	r8, Z
     15a:	80 80       	ld	r8, Z
     15c:	80 80       	ld	r8, Z
     15e:	80 80       	ld	r8, Z
     160:	80 80       	ld	r8, Z
     162:	80 80       	ld	r8, Z
     164:	80 80       	ld	r8, Z
     166:	80 80       	ld	r8, Z
     168:	80 80       	ld	r8, Z
     16a:	80 80       	ld	r8, Z
     16c:	80 80       	ld	r8, Z
     16e:	80 80       	ld	r8, Z
     170:	80 80       	ld	r8, Z
     172:	80 80       	ld	r8, Z
     174:	80 80       	ld	r8, Z
     176:	80 80       	ld	r8, Z
     178:	80 80       	ld	r8, Z
     17a:	80 80       	ld	r8, Z
     17c:	80 80       	ld	r8, Z
     17e:	80 80       	ld	r8, Z
     180:	80 80       	ld	r8, Z
     182:	80 80       	ld	r8, Z
     184:	80 80       	ld	r8, Z
     186:	80 80       	ld	r8, Z
     188:	80 80       	ld	r8, Z
     18a:	80 80       	ld	r8, Z
     18c:	80 80       	ld	r8, Z
     18e:	80 80       	ld	r8, Z
     190:	80 80       	ld	r8, Z
     192:	80 80       	ld	r8, Z
     194:	80 80       	ld	r8, Z
     196:	80 80       	ld	r8, Z
     198:	80 80       	ld	r8, Z
     19a:	80 80       	ld	r8, Z
     19c:	80 80       	ld	r8, Z
     19e:	80 80       	ld	r8, Z
     1a0:	80 80       	ld	r8, Z
     1a2:	80 80       	ld	r8, Z
     1a4:	80 80       	ld	r8, Z
     1a6:	80 80       	ld	r8, Z
     1a8:	80 80       	ld	r8, Z
     1aa:	80 80       	ld	r8, Z
     1ac:	80 80       	ld	r8, Z
     1ae:	80 80       	ld	r8, Z
     1b0:	80 80       	ld	r8, Z
     1b2:	80 80       	ld	r8, Z
     1b4:	80 80       	ld	r8, Z
     1b6:	80 80       	ld	r8, Z
     1b8:	80 80       	ld	r8, Z
     1ba:	80 80       	ld	r8, Z
     1bc:	80 80       	ld	r8, Z
     1be:	80 80       	ld	r8, Z
     1c0:	80 80       	ld	r8, Z
     1c2:	80 80       	ld	r8, Z
     1c4:	80 80       	ld	r8, Z
     1c6:	80 80       	ld	r8, Z
     1c8:	80 80       	ld	r8, Z
     1ca:	80 78       	andi	r24, 0x80	; 128
     1cc:	80 78       	andi	r24, 0x80	; 128
     1ce:	80 80       	ld	r8, Z
     1d0:	80 80       	ld	r8, Z
     1d2:	80 80       	ld	r8, Z
     1d4:	80 80       	ld	r8, Z
     1d6:	80 80       	ld	r8, Z
     1d8:	80 80       	ld	r8, Z
     1da:	80 78       	andi	r24, 0x80	; 128
     1dc:	80 78       	andi	r24, 0x80	; 128
     1de:	78 78       	andi	r23, 0x88	; 136
     1e0:	78 78       	andi	r23, 0x88	; 136
     1e2:	78 78       	andi	r23, 0x88	; 136
     1e4:	78 78       	andi	r23, 0x88	; 136
     1e6:	78 78       	andi	r23, 0x88	; 136
     1e8:	80 87       	std	Z+8, r24	; 0x08
     1ea:	87 87       	std	Z+15, r24	; 0x0f
     1ec:	80 80       	ld	r8, Z
     1ee:	80 87       	std	Z+8, r24	; 0x08
     1f0:	8e 87       	std	Y+14, r24	; 0x0e
     1f2:	78 6a       	ori	r23, 0xA8	; 168
     1f4:	55 4e       	sbci	r21, 0xE5	; 229
     1f6:	4e 4e       	sbci	r20, 0xEE	; 238
     1f8:	5c 55       	subi	r21, 0x5C	; 92
     1fa:	55 4e       	sbci	r21, 0xE5	; 229
     1fc:	40 40       	sbci	r20, 0x00	; 0
     1fe:	47 5c       	subi	r20, 0xC7	; 199
     200:	78 8e       	std	Y+24, r7	; 0x18
     202:	9c a3       	std	Y+36, r25	; 0x24
     204:	9c 95 8e 8e 	jmp	0x651d1c	; 0x651d1c <__TEXT_REGION_LENGTH__+0x649d1c>
     208:	95 9c       	mul	r9, r5
     20a:	a3 9c       	mul	r10, r3
     20c:	9c 95 95 95 	jmp	0x652b2a	; 0x652b2a <__TEXT_REGION_LENGTH__+0x64ab2a>
     210:	95 8e       	std	Z+29, r9	; 0x1d
     212:	8e 80       	ldd	r8, Y+6	; 0x06
     214:	71 5c       	subi	r23, 0xC1	; 193
     216:	4e 47       	sbci	r20, 0x7E	; 126
     218:	47 4e       	sbci	r20, 0xE7	; 231
     21a:	5c 5c       	subi	r21, 0xCC	; 204
     21c:	5c 55       	subi	r21, 0x5C	; 92
     21e:	47 40       	sbci	r20, 0x07	; 7
     220:	47 55       	subi	r20, 0x57	; 87
     222:	71 87       	std	Z+9, r23	; 0x09
     224:	9c a3       	std	Y+36, r25	; 0x24
     226:	9c 95 8e 8e 	jmp	0x651d1c	; 0x651d1c <__TEXT_REGION_LENGTH__+0x649d1c>
     22a:	95 9c       	mul	r9, r5
     22c:	a3 a3       	std	Z+35, r26	; 0x23
     22e:	9c 9c       	mul	r9, r12
     230:	95 95       	asr	r25
     232:	8e 8e       	std	Y+30, r8	; 0x1e
     234:	87 80       	ldd	r8, Z+7	; 0x07
     236:	71 6a       	ori	r23, 0xA1	; 161
     238:	5c 55       	subi	r21, 0x5C	; 92
     23a:	55 4e       	sbci	r21, 0xE5	; 229
     23c:	55 55       	subi	r21, 0x55	; 85
     23e:	55 55       	subi	r21, 0x55	; 85
     240:	47 40       	sbci	r20, 0x07	; 7
     242:	40 47       	sbci	r20, 0x70	; 112
     244:	63 78       	andi	r22, 0x83	; 131
     246:	8e 9c       	mul	r8, r14
     248:	a3 9c       	mul	r10, r3
     24a:	95 8e       	std	Z+29, r9	; 0x1d
     24c:	8e 95 95 9c 	call	0x61392a	; 0x61392a <__TEXT_REGION_LENGTH__+0x60b92a>
     250:	9c 95 95 8e 	jmp	0x651d2a	; 0x651d2a <__TEXT_REGION_LENGTH__+0x649d2a>
     254:	8e 8e       	std	Y+30, r8	; 0x1e
     256:	8e 87       	std	Y+14, r24	; 0x0e
     258:	80 78       	andi	r24, 0x80	; 128
     25a:	71 63       	ori	r23, 0x31	; 49
     25c:	5c 55       	subi	r21, 0x5C	; 92
     25e:	4e 4e       	sbci	r20, 0xEE	; 238
     260:	4e 4e       	sbci	r20, 0xEE	; 238
     262:	4e 4e       	sbci	r20, 0xEE	; 238
     264:	47 47       	sbci	r20, 0x77	; 119
     266:	4e 63       	ori	r20, 0x3E	; 62
     268:	78 95       	.word	0x9578	; ????
     26a:	a3 aa       	std	Z+51, r10	; 0x33
     26c:	a3 9c       	mul	r10, r3
     26e:	8e 8e       	std	Y+30, r8	; 0x1e
     270:	8e 95 95 9c 	call	0x61392a	; 0x61392a <__TEXT_REGION_LENGTH__+0x60b92a>
     274:	9c 9c       	mul	r9, r12
     276:	95 95       	asr	r25
     278:	8e 87       	std	Y+14, r24	; 0x0e
     27a:	87 80       	ldd	r8, Z+7	; 0x07
     27c:	80 80       	ld	r8, Z
     27e:	78 6a       	ori	r23, 0xA8	; 168
     280:	63 4e       	sbci	r22, 0xE3	; 227
     282:	47 47       	sbci	r20, 0x77	; 119
     284:	47 4e       	sbci	r20, 0xE7	; 231
     286:	4e 4e       	sbci	r20, 0xEE	; 238
     288:	47 4e       	sbci	r20, 0xE7	; 231
     28a:	5c 71       	andi	r21, 0x1C	; 28
     28c:	87 9c       	mul	r8, r7
     28e:	aa a3       	std	Y+34, r26	; 0x22
     290:	9c 8e       	std	Y+28, r9	; 0x1c
     292:	87 87       	std	Z+15, r24	; 0x0f
     294:	87 8e       	std	Z+31, r8	; 0x1f
     296:	95 9c       	mul	r9, r5
     298:	9c 95 8e 8e 	jmp	0x651d1c	; 0x651d1c <__TEXT_REGION_LENGTH__+0x649d1c>
     29c:	8e 8e       	std	Y+30, r8	; 0x1e
     29e:	8e 95 95 87 	call	0x610f2a	; 0x610f2a <__TEXT_REGION_LENGTH__+0x608f2a>
     2a2:	78 63       	ori	r23, 0x38	; 56
     2a4:	55 47       	sbci	r21, 0x75	; 117
     2a6:	40 40       	sbci	r20, 0x00	; 0
     2a8:	47 47       	sbci	r20, 0x77	; 119
     2aa:	47 40       	sbci	r20, 0x07	; 7
     2ac:	47 55       	subi	r20, 0x57	; 87
     2ae:	6a 8e       	std	Y+26, r6	; 0x1a
     2b0:	9c b1       	in	r25, 0x0c	; 12
     2b2:	b1 a3       	std	Z+33, r27	; 0x21
     2b4:	95 87       	std	Z+13, r25	; 0x0d
     2b6:	80 80       	ld	r8, Z
     2b8:	87 95       	ror	r24
     2ba:	9c 9c       	mul	r9, r12
     2bc:	9c 95 8e 8e 	jmp	0x651d1c	; 0x651d1c <__TEXT_REGION_LENGTH__+0x649d1c>
     2c0:	8e 95 9c 9c 	call	0x613938	; 0x613938 <__TEXT_REGION_LENGTH__+0x60b938>
     2c4:	95 87       	std	Z+13, r25	; 0x0d
     2c6:	6a 5c       	subi	r22, 0xCA	; 202
     2c8:	47 47       	sbci	r20, 0x77	; 119
     2ca:	47 4e       	sbci	r20, 0xE7	; 231
     2cc:	4e 55       	subi	r20, 0x5E	; 94
     2ce:	4e 47       	sbci	r20, 0x7E	; 126
     2d0:	4e 5c       	subi	r20, 0xCE	; 206
     2d2:	78 95       	.word	0x9578	; ????
     2d4:	aa b1       	in	r26, 0x0a	; 10
     2d6:	a3 9c       	mul	r10, r3
     2d8:	87 80       	ldd	r8, Z+7	; 0x07
     2da:	80 87       	std	Z+8, r24	; 0x08
     2dc:	8e 95 95 95 	call	0x612b2a	; 0x612b2a <__TEXT_REGION_LENGTH__+0x60ab2a>
     2e0:	8e 8e       	std	Y+30, r8	; 0x1e
     2e2:	8e 95 9c a3 	call	0x614738	; 0x614738 <__TEXT_REGION_LENGTH__+0x60c738>
     2e6:	aa a3       	std	Y+34, r26	; 0x22
     2e8:	95 80       	ldd	r9, Z+5	; 0x05
     2ea:	6a 5c       	subi	r22, 0xCA	; 202
     2ec:	4e 47       	sbci	r20, 0x7E	; 126
     2ee:	47 47       	sbci	r20, 0x77	; 119
     2f0:	47 47       	sbci	r20, 0x77	; 119
     2f2:	40 47       	sbci	r20, 0x70	; 112
     2f4:	55 71       	andi	r21, 0x15	; 21
     2f6:	8e a3       	std	Y+38, r24	; 0x26
     2f8:	b1 b1       	in	r27, 0x01	; 1
     2fa:	a3 8e       	std	Z+27, r10	; 0x1b
     2fc:	80 78       	andi	r24, 0x80	; 128
     2fe:	78 80       	ld	r7, Y
     300:	80 87       	std	Z+8, r24	; 0x08
     302:	87 87       	std	Z+15, r24	; 0x0f
     304:	87 87       	std	Z+15, r24	; 0x0f
     306:	95 a3       	std	Z+37, r25	; 0x25
     308:	aa b1       	in	r26, 0x0a	; 10
     30a:	b1 a3       	std	Z+33, r27	; 0x21
     30c:	95 80       	ldd	r9, Z+5	; 0x05
     30e:	6a 5c       	subi	r22, 0xCA	; 202
     310:	4e 47       	sbci	r20, 0x7E	; 126
     312:	40 40       	sbci	r20, 0x00	; 0
     314:	39 39       	cpi	r19, 0x99	; 153
     316:	40 47       	sbci	r20, 0x70	; 112
     318:	63 78       	andi	r22, 0x83	; 131
     31a:	95 aa       	std	Z+53, r9	; 0x35
     31c:	b1 aa       	std	Z+49, r11	; 0x31
     31e:	95 87       	std	Z+13, r25	; 0x0d
     320:	78 78       	andi	r23, 0x88	; 136
     322:	71 78       	andi	r23, 0x81	; 129
     324:	78 78       	andi	r23, 0x88	; 136
     326:	78 78       	andi	r23, 0x88	; 136
     328:	80 87       	std	Z+8, r24	; 0x08
     32a:	9c b1       	in	r25, 0x0c	; 12
     32c:	bf bf       	out	0x3f, r27	; 63
     32e:	b8 aa       	std	Y+48, r11	; 0x30
     330:	95 80       	ldd	r9, Z+5	; 0x05
     332:	71 63       	ori	r23, 0x31	; 49
     334:	55 4e       	sbci	r21, 0xE5	; 229
     336:	39 32       	cpi	r19, 0x29	; 41
     338:	2a 32       	cpi	r18, 0x2A	; 42
     33a:	40 4e       	sbci	r20, 0xE0	; 224
     33c:	6a 87       	std	Y+10, r22	; 0x0a
     33e:	9c aa       	std	Y+52, r9	; 0x34
     340:	aa a3       	std	Y+34, r26	; 0x22
     342:	95 87       	std	Z+13, r25	; 0x0d
     344:	78 71       	andi	r23, 0x18	; 24
     346:	71 71       	andi	r23, 0x11	; 17
     348:	6a 6a       	ori	r22, 0xAA	; 170
     34a:	6a 71       	andi	r22, 0x1A	; 26
     34c:	80 8e       	std	Z+24, r8	; 0x18
     34e:	a3 b8       	out	0x03, r10	; 3
     350:	c6 c6       	rjmp	.+3468   	; 0x10de <__stack+0x7df>
     352:	bf aa       	std	Y+55, r11	; 0x37
     354:	9c 8e       	std	Y+28, r9	; 0x1c
     356:	80 71       	andi	r24, 0x10	; 16
     358:	63 4e       	sbci	r22, 0xE3	; 227
     35a:	40 32       	cpi	r20, 0x20	; 32
     35c:	2a 32       	cpi	r18, 0x2A	; 42
     35e:	40 4e       	sbci	r20, 0xE0	; 224
     360:	63 80       	ldd	r6, Z+3	; 0x03
     362:	95 a3       	std	Z+37, r25	; 0x25
     364:	a3 9c       	mul	r10, r3
     366:	95 87       	std	Z+13, r25	; 0x0d
     368:	78 71       	andi	r23, 0x18	; 24
     36a:	71 6a       	ori	r23, 0xA1	; 161
     36c:	63 63       	ori	r22, 0x33	; 51
     36e:	63 6a       	ori	r22, 0xA3	; 163
     370:	78 8e       	std	Y+24, r7	; 0x18
     372:	aa bf       	out	0x3a, r26	; 58
     374:	d4 d4       	rcall	.+2472   	; 0xd1e <__stack+0x41f>
     376:	c6 b8       	out	0x06, r12	; 6
     378:	a3 95       	inc	r26
     37a:	80 78       	andi	r24, 0x80	; 128
     37c:	6a 55       	subi	r22, 0x5A	; 90
     37e:	47 32       	cpi	r20, 0x27	; 39
     380:	2a 2a       	or	r2, r26
     382:	39 40       	sbci	r19, 0x09	; 9
     384:	63 78       	andi	r22, 0x83	; 131
     386:	8e a3       	std	Y+38, r24	; 0x26
     388:	9c 9c       	mul	r9, r12
     38a:	95 87       	std	Z+13, r25	; 0x0d
     38c:	80 78       	andi	r24, 0x80	; 128
     38e:	6a 63       	ori	r22, 0x3A	; 58
     390:	5c 55       	subi	r21, 0x5C	; 92
     392:	55 5c       	subi	r21, 0xC5	; 197
     394:	6a 8e       	std	Y+26, r6	; 0x1a
     396:	aa c6       	rjmp	.+3412   	; 0x10ec <__stack+0x7ed>
     398:	dc dc       	rcall	.-1608   	; 0xfffffd52 <__eeprom_end+0xff7efd52>
     39a:	d4 c6       	rjmp	.+3496   	; 0x1144 <__stack+0x845>
     39c:	b1 a3       	std	Z+33, r27	; 0x21
     39e:	95 80       	ldd	r9, Z+5	; 0x05
     3a0:	71 5c       	subi	r23, 0xC1	; 193
     3a2:	47 32       	cpi	r20, 0x27	; 39
     3a4:	23 23       	and	r18, r19
     3a6:	32 39       	cpi	r19, 0x92	; 146
     3a8:	4e 6a       	ori	r20, 0xAE	; 174
     3aa:	78 95       	.word	0x9578	; ????
     3ac:	a3 9c       	mul	r10, r3
     3ae:	95 87       	std	Z+13, r25	; 0x0d
     3b0:	80 78       	andi	r24, 0x80	; 128
     3b2:	71 6a       	ori	r23, 0xA1	; 161
     3b4:	5c 4e       	sbci	r21, 0xEC	; 236
     3b6:	47 4e       	sbci	r20, 0xE7	; 231
     3b8:	63 80       	ldd	r6, Z+3	; 0x03
     3ba:	b1 c6       	rjmp	.+3426   	; 0x111e <__stack+0x81f>
     3bc:	e3 e3       	ldi	r30, 0x33	; 51
     3be:	d4 cd       	rjmp	.-1112   	; 0xffffff68 <__eeprom_end+0xff7eff68>
     3c0:	bf b8       	out	0x0f, r11	; 15
     3c2:	a3 95       	inc	r26
     3c4:	78 5c       	subi	r23, 0xC8	; 200
     3c6:	40 32       	cpi	r20, 0x20	; 32
     3c8:	2a 23       	and	r18, r26
     3ca:	2a 2a       	or	r2, r26
     3cc:	32 55       	subi	r19, 0x52	; 82
     3ce:	71 8e       	std	Z+25, r7	; 0x19
     3d0:	a3 a3       	std	Z+35, r26	; 0x23
     3d2:	95 87       	std	Z+13, r25	; 0x0d
     3d4:	80 78       	andi	r24, 0x80	; 128
     3d6:	78 6a       	ori	r23, 0xA8	; 168
     3d8:	5c 47       	sbci	r21, 0x7C	; 124
     3da:	39 40       	sbci	r19, 0x09	; 9
     3dc:	55 80       	ldd	r5, Z+5	; 0x05
     3de:	aa d4       	rcall	.+2388   	; 0xd34 <__stack+0x435>
     3e0:	e3 e3       	ldi	r30, 0x33	; 51
     3e2:	dc cd       	rjmp	.-1096   	; 0xffffff9c <__eeprom_end+0xff7eff9c>
     3e4:	cd c6       	rjmp	.+3482   	; 0x1180 <__stack+0x881>
     3e6:	b8 9c       	mul	r11, r8
     3e8:	78 5c       	subi	r23, 0xC8	; 200
     3ea:	47 39       	cpi	r20, 0x97	; 151
     3ec:	39 32       	cpi	r19, 0x29	; 41
     3ee:	2a 23       	and	r18, r26
     3f0:	23 39       	cpi	r18, 0x93	; 147
     3f2:	63 87       	std	Z+11, r22	; 0x0b
     3f4:	a3 a3       	std	Z+35, r26	; 0x23
     3f6:	8e 78       	andi	r24, 0x8E	; 142
     3f8:	71 78       	andi	r23, 0x81	; 129
     3fa:	80 80       	ld	r8, Z
     3fc:	63 47       	sbci	r22, 0x73	; 115
     3fe:	2a 2a       	or	r2, r26
     400:	55 87       	std	Z+13, r21	; 0x0d
     402:	b8 dc       	rcall	.-1680   	; 0xfffffd74 <__eeprom_end+0xff7efd74>
     404:	dc d4       	rcall	.+2488   	; 0xdbe <__stack+0x4bf>
     406:	d4 d4       	rcall	.+2472   	; 0xdb0 <__stack+0x4b1>
     408:	e3 e3       	ldi	r30, 0x33	; 51
     40a:	c6 a3       	std	Z+38, r28	; 0x26
     40c:	71 55       	subi	r23, 0x51	; 81
     40e:	4e 4e       	sbci	r20, 0xEE	; 238
     410:	4e 47       	sbci	r20, 0x7E	; 126
     412:	2a 15       	cp	r18, r10
     414:	15 2a       	or	r1, r21
     416:	63 8e       	std	Z+27, r6	; 0x1b
     418:	a3 9c       	mul	r10, r3
     41a:	80 71       	andi	r24, 0x10	; 16
     41c:	78 87       	std	Y+8, r23	; 0x08
     41e:	95 8e       	std	Z+29, r9	; 0x1d
     420:	5c 39       	cpi	r21, 0x9C	; 156
     422:	1c 2a       	or	r1, r28
     424:	5c 95 b8 c6 	jmp	0x558d70	; 0x558d70 <__TEXT_REGION_LENGTH__+0x550d70>
     428:	c6 c6       	rjmp	.+3468   	; 0x11b6 <__stack+0x8b7>
     42a:	d4 f1       	brlt	.+116    	; 0x4a0 <__EEPROM_REGION_LENGTH__+0xa0>
     42c:	f8 ea       	ldi	r31, 0xA8	; 168
     42e:	bf 8e       	std	Y+31, r11	; 0x1f
     430:	71 5c       	subi	r23, 0xC1	; 193
     432:	63 6a       	ori	r22, 0xA3	; 163
     434:	55 40       	sbci	r21, 0x05	; 5
     436:	1c 0e       	add	r1, r28
     438:	15 40       	sbci	r17, 0x05	; 5
     43a:	6a 87       	std	Y+10, r22	; 0x0a
     43c:	95 87       	std	Z+13, r25	; 0x0d
     43e:	80 80       	ld	r8, Z
     440:	8e 9c       	mul	r8, r14
     442:	9c 80       	ldd	r9, Y+4	; 0x04
     444:	55 2a       	or	r5, r21
     446:	23 32       	cpi	r18, 0x23	; 35
     448:	5c 87       	std	Y+12, r21	; 0x0c
     44a:	9c aa       	std	Y+52, r9	; 0x34
     44c:	b8 c6       	rjmp	.+3440   	; 0x11be <__stack+0x8bf>
     44e:	ea ff       	.word	0xffea	; ????
     450:	ff ea       	ldi	r31, 0xAF	; 175
     452:	b8 95       	.word	0x95b8	; ????
     454:	80 80       	ld	r8, Z
     456:	80 78       	andi	r24, 0x80	; 128
     458:	55 39       	cpi	r21, 0x95	; 149
     45a:	23 1c       	adc	r2, r3
     45c:	1c 32       	cpi	r17, 0x2C	; 44
     45e:	5c 71       	andi	r21, 0x1C	; 28
     460:	80 87       	std	Z+8, r24	; 0x08
     462:	80 87       	std	Z+8, r24	; 0x08
     464:	95 95       	asr	r25
     466:	8e 78       	andi	r24, 0x8E	; 142
     468:	4e 32       	cpi	r20, 0x2E	; 46
     46a:	32 39       	cpi	r19, 0x92	; 146
     46c:	63 80       	ldd	r6, Z+3	; 0x03
     46e:	87 9c       	mul	r8, r7
     470:	b1 d4       	rcall	.+2402   	; 0xdd4 <__stack+0x4d5>
     472:	f1 ff       	sbrs	r31, 1
     474:	f8 d4       	rcall	.+2544   	; 0xe66 <__stack+0x567>
     476:	b8 9c       	mul	r11, r8
     478:	95 87       	std	Z+13, r25	; 0x0d
     47a:	80 63       	ori	r24, 0x30	; 48
     47c:	4e 39       	cpi	r20, 0x9E	; 158
     47e:	32 39       	cpi	r19, 0x92	; 146
     480:	32 2a       	or	r3, r18
     482:	39 5c       	subi	r19, 0xC9	; 201
     484:	71 95       	neg	r23
     486:	8e 80       	ldd	r8, Y+6	; 0x06
     488:	80 87       	std	Z+8, r24	; 0x08
     48a:	80 71       	andi	r24, 0x10	; 16
     48c:	63 39       	cpi	r22, 0x93	; 147
     48e:	32 40       	sbci	r19, 0x02	; 2
     490:	55 71       	andi	r21, 0x15	; 21
     492:	87 95       	ror	r24
     494:	aa cd       	rjmp	.-1196   	; 0xffffffea <__eeprom_end+0xff7effea>
     496:	ea ff       	.word	0xffea	; ????
     498:	f8 e3       	ldi	r31, 0x38	; 56
     49a:	cd bf       	out	0x3d, r28	; 61
     49c:	a3 95       	inc	r26
     49e:	87 71       	andi	r24, 0x17	; 23
     4a0:	63 4e       	sbci	r22, 0xE3	; 227
     4a2:	39 32       	cpi	r19, 0x29	; 41
     4a4:	2a 15       	cp	r18, r10
     4a6:	2a 55       	subi	r18, 0x5A	; 90
     4a8:	63 71       	andi	r22, 0x13	; 19
     4aa:	80 71       	andi	r24, 0x10	; 16
     4ac:	78 8e       	std	Y+24, r7	; 0x18
     4ae:	87 71       	andi	r24, 0x17	; 23
     4b0:	5c 40       	sbci	r21, 0x0C	; 12
     4b2:	32 47       	sbci	r19, 0x72	; 114
     4b4:	55 5c       	subi	r21, 0xC5	; 197
     4b6:	71 80       	ldd	r7, Z+1	; 0x01
     4b8:	9c c6       	rjmp	.+3384   	; 0x11f2 <__stack+0x8f3>
     4ba:	dc e3       	ldi	r29, 0x3C	; 60
     4bc:	ea ea       	ldi	r30, 0xAA	; 170
     4be:	dc cd       	rjmp	.-1096   	; 0x78 <__trampolines_end+0x10>
     4c0:	b8 9c       	mul	r11, r8
     4c2:	95 80       	ldd	r9, Z+5	; 0x05
     4c4:	71 5c       	subi	r23, 0xC1	; 193
     4c6:	47 39       	cpi	r20, 0x97	; 151
     4c8:	2a 1c       	adc	r2, r10
     4ca:	1c 47       	sbci	r17, 0x7C	; 124
     4cc:	5c 63       	ori	r21, 0x3C	; 60
     4ce:	71 71       	andi	r23, 0x11	; 17
     4d0:	71 87       	std	Z+9, r23	; 0x09
     4d2:	87 71       	andi	r24, 0x17	; 23
     4d4:	5c 4e       	sbci	r21, 0xEC	; 236
     4d6:	47 4e       	sbci	r20, 0xE7	; 231
     4d8:	55 5c       	subi	r21, 0xC5	; 197
     4da:	63 71       	andi	r22, 0x13	; 19
     4dc:	8e b1       	in	r24, 0x0e	; 14
     4de:	c6 d4       	rcall	.+2444   	; 0xe6c <__stack+0x56d>
     4e0:	dc e3       	ldi	r29, 0x3C	; 60
     4e2:	e3 dc       	rcall	.-1594   	; 0xfffffeaa <__eeprom_end+0xff7efeaa>
     4e4:	bf aa       	std	Y+55, r11	; 0x37
     4e6:	9c 8e       	std	Y+28, r9	; 0x1c
     4e8:	80 6a       	ori	r24, 0xA0	; 160
     4ea:	55 47       	sbci	r21, 0x75	; 117
     4ec:	39 23       	and	r19, r25
     4ee:	1c 32       	cpi	r17, 0x2C	; 44
     4f0:	4e 55       	subi	r20, 0x5E	; 94
     4f2:	55 5c       	subi	r21, 0xC5	; 197
     4f4:	6a 78       	andi	r22, 0x8A	; 138
     4f6:	80 71       	andi	r24, 0x10	; 16
     4f8:	63 5c       	subi	r22, 0xC3	; 195
     4fa:	63 6a       	ori	r22, 0xA3	; 163
     4fc:	5c 55       	subi	r21, 0x5C	; 92
     4fe:	5c 71       	andi	r21, 0x1C	; 28
     500:	8e a3       	std	Y+38, r24	; 0x26
     502:	a3 b1       	in	r26, 0x03	; 3
     504:	cd dc       	rcall	.-1638   	; 0xfffffea0 <__eeprom_end+0xff7efea0>
     506:	d4 cd       	rjmp	.-1112   	; 0xb0 <__trampolines_end+0x48>
     508:	bf b1       	in	r27, 0x0f	; 15
     50a:	b1 a3       	std	Z+33, r27	; 0x21
     50c:	8e 78       	andi	r24, 0x8E	; 142
     50e:	71 63       	ori	r23, 0x31	; 49
     510:	4e 39       	cpi	r20, 0x9E	; 158
     512:	32 32       	cpi	r19, 0x22	; 34
     514:	39 40       	sbci	r19, 0x09	; 9
     516:	40 40       	sbci	r20, 0x00	; 0
     518:	55 63       	ori	r21, 0x35	; 53
     51a:	5c 5c       	subi	r21, 0xCC	; 204
     51c:	63 6a       	ori	r22, 0xA3	; 163
     51e:	71 6a       	ori	r23, 0xA1	; 161
     520:	63 6a       	ori	r22, 0xA3	; 163
     522:	71 80       	ldd	r7, Z+1	; 0x01
     524:	87 87       	std	Z+15, r24	; 0x0f
     526:	95 a3       	std	Z+37, r25	; 0x25
     528:	b1 b1       	in	r27, 0x01	; 1
     52a:	b1 b1       	in	r27, 0x01	; 1
     52c:	b8 b1       	in	r27, 0x08	; 8
     52e:	aa aa       	std	Y+50, r10	; 0x32
     530:	a3 9c       	mul	r10, r3
     532:	95 87       	std	Z+13, r25	; 0x0d
     534:	71 6a       	ori	r23, 0xA1	; 161
     536:	63 4e       	sbci	r22, 0xE3	; 227
     538:	39 40       	sbci	r19, 0x09	; 9
     53a:	40 40       	sbci	r20, 0x00	; 0
     53c:	39 40       	sbci	r19, 0x09	; 9
     53e:	47 4e       	sbci	r20, 0xE7	; 231
     540:	55 5c       	subi	r21, 0xC5	; 197
     542:	6a 71       	andi	r22, 0x1A	; 26
     544:	6a 6a       	ori	r22, 0xAA	; 170
     546:	71 80       	ldd	r7, Z+1	; 0x01
     548:	80 80       	ld	r8, Z
     54a:	87 95       	ror	r24
     54c:	9c a3       	std	Y+36, r25	; 0x24
     54e:	a3 aa       	std	Z+51, r10	; 0x33
     550:	b1 b8       	out	0x01, r11	; 1
     552:	b8 b8       	out	0x08, r11	; 8
     554:	b1 b1       	in	r27, 0x01	; 1
     556:	b1 aa       	std	Z+49, r11	; 0x31
     558:	9c 95 87 78 	jmp	0x64f10e	; 0x64f10e <__TEXT_REGION_LENGTH__+0x64710e>
     55c:	71 63       	ori	r23, 0x31	; 49
     55e:	5c 55       	subi	r21, 0x5C	; 92
     560:	55 4e       	sbci	r21, 0xE5	; 229
     562:	4e 47       	sbci	r20, 0x7E	; 126
     564:	4e 4e       	sbci	r20, 0xEE	; 238
     566:	4e 55       	subi	r20, 0x5E	; 94
     568:	5c 5c       	subi	r21, 0xCC	; 204
     56a:	5c 6a       	ori	r21, 0xAC	; 172
     56c:	71 71       	andi	r23, 0x11	; 17
     56e:	78 80       	ld	r7, Y
     570:	87 95       	ror	r24
     572:	95 9c       	mul	r9, r5
     574:	a3 b1       	in	r26, 0x03	; 3
     576:	b8 bf       	out	0x38, r27	; 56
     578:	bf bf       	out	0x3f, r27	; 63
     57a:	bf bf       	out	0x3f, r27	; 63
     57c:	bf b1       	in	r27, 0x0f	; 15
     57e:	aa 9c       	mul	r10, r10
     580:	95 8e       	std	Z+29, r9	; 0x1d
     582:	80 71       	andi	r24, 0x10	; 16
     584:	6a 6a       	ori	r22, 0xAA	; 170
     586:	6a 63       	ori	r22, 0x3A	; 58
     588:	55 55       	subi	r21, 0x55	; 85
     58a:	55 55       	subi	r21, 0x55	; 85
     58c:	55 55       	subi	r21, 0x55	; 85
     58e:	55 55       	subi	r21, 0x55	; 85
     590:	5c 5c       	subi	r21, 0xCC	; 204
     592:	63 63       	ori	r22, 0x33	; 51
     594:	71 78       	andi	r23, 0x81	; 129
     596:	80 87       	std	Z+8, r24	; 0x08
     598:	8e 9c       	mul	r8, r14
     59a:	a3 aa       	std	Z+51, r10	; 0x33
     59c:	b1 b8       	out	0x01, r11	; 1
     59e:	bf c6       	rjmp	.+3454   	; 0x131e <__stack+0xa1f>
     5a0:	c6 bf       	out	0x36, r28	; 54
     5a2:	bf b8       	out	0x0f, r11	; 15
     5a4:	b1 aa       	std	Z+49, r11	; 0x31
     5a6:	9c 95 8e 80 	jmp	0x65011c	; 0x65011c <__TEXT_REGION_LENGTH__+0x64811c>
     5aa:	78 6a       	ori	r23, 0xA8	; 168
     5ac:	6a 63       	ori	r22, 0x3A	; 58
     5ae:	5c 5c       	subi	r21, 0xCC	; 204
     5b0:	5c 55       	subi	r21, 0x5C	; 92
     5b2:	5c 55       	subi	r21, 0x5C	; 92
     5b4:	55 55       	subi	r21, 0x55	; 85
     5b6:	55 5c       	subi	r21, 0xC5	; 197
     5b8:	5c 5c       	subi	r21, 0xCC	; 204
     5ba:	63 6a       	ori	r22, 0xA3	; 163
     5bc:	71 78       	andi	r23, 0x81	; 129
     5be:	80 87       	std	Z+8, r24	; 0x08
     5c0:	95 9c       	mul	r9, r5
     5c2:	a3 aa       	std	Z+51, r10	; 0x33
     5c4:	aa b1       	in	r26, 0x0a	; 10
     5c6:	b1 b1       	in	r27, 0x01	; 1
     5c8:	b1 aa       	std	Z+49, r11	; 0x31
     5ca:	aa a3       	std	Y+34, r26	; 0x22
     5cc:	9c 95 8e 8e 	jmp	0x651d1c	; 0x651d1c <__TEXT_REGION_LENGTH__+0x649d1c>
     5d0:	8e 78       	andi	r24, 0x8E	; 142
     5d2:	87 78       	andi	r24, 0x87	; 135
     5d4:	71 71       	andi	r23, 0x11	; 17
     5d6:	63 6a       	ori	r22, 0xA3	; 163
     5d8:	63 5c       	subi	r22, 0xC3	; 195
     5da:	63 5c       	subi	r22, 0xC3	; 195
     5dc:	5c 5c       	subi	r21, 0xCC	; 204
     5de:	63 6a       	ori	r22, 0xA3	; 163
     5e0:	6a 71       	andi	r22, 0x1A	; 26
     5e2:	78 80       	ld	r7, Y
     5e4:	80 87       	std	Z+8, r24	; 0x08
     5e6:	95 95       	asr	r25
     5e8:	9c a3       	std	Y+36, r25	; 0x24
     5ea:	9c a3       	std	Y+36, r25	; 0x24
     5ec:	a3 a3       	std	Z+35, r26	; 0x23
     5ee:	a3 9c       	mul	r10, r3
     5f0:	a3 9c       	mul	r10, r3
     5f2:	95 95       	asr	r25
     5f4:	8e 8e       	std	Y+30, r8	; 0x1e
     5f6:	87 80       	ldd	r8, Z+7	; 0x07
     5f8:	78 78       	andi	r23, 0x88	; 136
     5fa:	6a 6a       	ori	r22, 0xAA	; 170
     5fc:	71 5c       	subi	r23, 0xC1	; 193
     5fe:	6a 63       	ori	r22, 0x3A	; 58
     600:	5c 6a       	ori	r21, 0xAC	; 172
     602:	63 6a       	ori	r22, 0xA3	; 163
     604:	6a 71       	andi	r22, 0x1A	; 26
     606:	78 78       	andi	r23, 0x88	; 136
     608:	80 8e       	std	Z+24, r8	; 0x18
     60a:	8e 95 9c a3 	call	0x614738	; 0x614738 <__TEXT_REGION_LENGTH__+0x60c738>
     60e:	a3 aa       	std	Z+51, r10	; 0x33
     610:	aa aa       	std	Y+50, r10	; 0x32
     612:	aa aa       	std	Y+50, r10	; 0x32
     614:	a3 aa       	std	Z+51, r10	; 0x33
     616:	a3 9c       	mul	r10, r3
     618:	95 8e       	std	Z+29, r9	; 0x1d
     61a:	8e 80       	ldd	r8, Y+6	; 0x06
     61c:	78 71       	andi	r23, 0x18	; 24
     61e:	6a 63       	ori	r22, 0x3A	; 58
     620:	5c 55       	subi	r21, 0x5C	; 92
     622:	55 55       	subi	r21, 0x55	; 85
     624:	4e 4e       	sbci	r20, 0xEE	; 238
     626:	55 55       	subi	r21, 0x55	; 85
     628:	5c 5c       	subi	r21, 0xCC	; 204
     62a:	63 6a       	ori	r22, 0xA3	; 163
     62c:	71 78       	andi	r23, 0x81	; 129
     62e:	78 80       	ld	r7, Y
     630:	8e 95 95 9c 	call	0x61392a	; 0x61392a <__TEXT_REGION_LENGTH__+0x60b92a>
     634:	a3 aa       	std	Z+51, r10	; 0x33
     636:	b1 b1       	in	r27, 0x01	; 1
     638:	b1 b1       	in	r27, 0x01	; 1
     63a:	aa aa       	std	Y+50, r10	; 0x32
     63c:	a3 95       	inc	r26
     63e:	8e 80       	ldd	r8, Y+6	; 0x06
     640:	71 6a       	ori	r23, 0xA1	; 161
     642:	55 4e       	sbci	r21, 0xE5	; 229
     644:	47 47       	sbci	r20, 0x77	; 119
     646:	40 40       	sbci	r20, 0x00	; 0
     648:	40 40       	sbci	r20, 0x00	; 0
     64a:	47 47       	sbci	r20, 0x77	; 119
     64c:	4e 63       	ori	r20, 0x3E	; 62
     64e:	63 6a       	ori	r22, 0xA3	; 163
     650:	71 78       	andi	r23, 0x81	; 129
     652:	80 87       	std	Z+8, r24	; 0x08
     654:	87 95       	ror	r24
     656:	9c 9c       	mul	r9, r12
     658:	a3 aa       	std	Z+51, r10	; 0x33
     65a:	aa b1       	in	r26, 0x0a	; 10
     65c:	b1 aa       	std	Z+49, r11	; 0x31
     65e:	aa a3       	std	Y+34, r26	; 0x22
     660:	9c 95 87 80 	jmp	0x65010e	; 0x65010e <__TEXT_REGION_LENGTH__+0x64810e>
     664:	6a 55       	subi	r22, 0x5A	; 90
     666:	4e 4e       	sbci	r20, 0xEE	; 238
     668:	40 32       	cpi	r20, 0x20	; 32
     66a:	40 39       	cpi	r20, 0x90	; 144
     66c:	39 40       	sbci	r19, 0x09	; 9
     66e:	40 4e       	sbci	r20, 0xE0	; 224
     670:	5c 5c       	subi	r21, 0xCC	; 204
     672:	6a 71       	andi	r22, 0x1A	; 26
     674:	78 87       	std	Y+8, r23	; 0x08
     676:	8e 8e       	std	Y+30, r8	; 0x1e
     678:	a3 9c       	mul	r10, r3
     67a:	9c aa       	std	Y+52, r9	; 0x34
     67c:	aa aa       	std	Y+50, r10	; 0x32
     67e:	aa a3       	std	Y+34, r26	; 0x22
     680:	a3 a3       	std	Z+35, r26	; 0x23
     682:	95 8e       	std	Z+29, r9	; 0x1d
     684:	87 80       	ldd	r8, Z+7	; 0x07
     686:	6a 63       	ori	r22, 0x3A	; 58
     688:	4e 55       	subi	r20, 0x5E	; 94
     68a:	4e 39       	cpi	r20, 0x9E	; 158
     68c:	47 47       	sbci	r20, 0x77	; 119
     68e:	32 40       	sbci	r19, 0x02	; 2
     690:	47 47       	sbci	r20, 0x77	; 119
     692:	4e 5c       	subi	r20, 0xCE	; 206
     694:	63 6a       	ori	r22, 0xA3	; 163
     696:	71 87       	std	Z+9, r23	; 0x09
     698:	87 8e       	std	Z+31, r8	; 0x1f
     69a:	a3 a3       	std	Z+35, r26	; 0x23
     69c:	9c aa       	std	Y+52, r9	; 0x34
     69e:	b1 aa       	std	Z+49, r11	; 0x31
     6a0:	aa aa       	std	Y+50, r10	; 0x32
     6a2:	a3 95       	inc	r26
     6a4:	9c 87       	std	Y+12, r25	; 0x0c
     6a6:	80 80       	ld	r8, Z
     6a8:	71 5c       	subi	r23, 0xC1	; 193
     6aa:	55 5c       	subi	r21, 0xC5	; 197
     6ac:	55 40       	sbci	r21, 0x05	; 5
     6ae:	4e 47       	sbci	r20, 0x7E	; 126
     6b0:	39 47       	sbci	r19, 0x79	; 121
     6b2:	4e 47       	sbci	r20, 0x7E	; 126
     6b4:	47 5c       	subi	r20, 0xC7	; 199
     6b6:	6a 5c       	subi	r22, 0xCA	; 202
     6b8:	6a 87       	std	Y+10, r22	; 0x0a
     6ba:	80 87       	std	Z+8, r24	; 0x08
     6bc:	aa a3       	std	Y+34, r26	; 0x22
     6be:	a3 b1       	in	r26, 0x03	; 3
     6c0:	b8 b1       	in	r27, 0x08	; 8
     6c2:	b1 b8       	out	0x01, r11	; 1
     6c4:	b1 a3       	std	Z+33, r27	; 0x21
     6c6:	aa 9c       	mul	r10, r10
     6c8:	8e 87       	std	Y+14, r24	; 0x0e
     6ca:	80 6a       	ori	r24, 0xA0	; 160
     6cc:	5c 63       	ori	r21, 0x3C	; 60
     6ce:	55 39       	cpi	r21, 0x95	; 149
     6d0:	4e 47       	sbci	r20, 0x7E	; 126
     6d2:	32 39       	cpi	r19, 0x92	; 146
     6d4:	47 40       	sbci	r20, 0x07	; 7
     6d6:	47 55       	subi	r20, 0x57	; 87
     6d8:	63 5c       	subi	r22, 0xC3	; 195
     6da:	6a 87       	std	Y+10, r22	; 0x0a
     6dc:	80 87       	std	Z+8, r24	; 0x08
     6de:	aa a3       	std	Y+34, r26	; 0x22
     6e0:	a3 b8       	out	0x03, r10	; 3
     6e2:	bf bf       	out	0x3f, r27	; 63
     6e4:	c6 c6       	rjmp	.+3468   	; 0x1472 <__stack+0xb73>
     6e6:	bf b1       	in	r27, 0x0f	; 15
     6e8:	b8 aa       	std	Y+48, r11	; 0x30
     6ea:	95 95       	asr	r25
     6ec:	87 63       	ori	r24, 0x37	; 55
     6ee:	5c 55       	subi	r21, 0x5C	; 92
     6f0:	4e 40       	sbci	r20, 0x0E	; 14
     6f2:	39 47       	sbci	r19, 0x79	; 121
     6f4:	32 39       	cpi	r19, 0x92	; 146
     6f6:	55 40       	sbci	r21, 0x05	; 5
     6f8:	47 63       	ori	r20, 0x37	; 55
     6fa:	5c 6a       	ori	r21, 0xAC	; 172
     6fc:	78 80       	ld	r7, Y
     6fe:	8e 8e       	std	Y+30, r8	; 0x1e
     700:	95 aa       	std	Z+53, r9	; 0x35
     702:	a3 b1       	in	r26, 0x03	; 3
     704:	bf b8       	out	0x0f, r11	; 15
     706:	bf c6       	rjmp	.+3454   	; 0x1486 <__stack+0xb87>
     708:	b8 b8       	out	0x08, r11	; 8
     70a:	b8 aa       	std	Y+48, r11	; 0x30
     70c:	9c 95 80 71 	jmp	0x64e300	; 0x64e300 <__TEXT_REGION_LENGTH__+0x646300>
     710:	63 4e       	sbci	r22, 0xE3	; 227
     712:	4e 4e       	sbci	r20, 0xEE	; 238
     714:	32 47       	sbci	r19, 0x72	; 114
     716:	40 32       	cpi	r20, 0x20	; 32
     718:	55 55       	subi	r21, 0x55	; 85
     71a:	4e 63       	ori	r20, 0x3E	; 62
     71c:	63 63       	ori	r22, 0x33	; 51
     71e:	87 78       	andi	r24, 0x87	; 135
     720:	87 8e       	std	Z+31, r8	; 0x1f
     722:	8e 95 a3 a3 	call	0x614746	; 0x614746 <__TEXT_REGION_LENGTH__+0x60c746>
     726:	b1 b1       	in	r27, 0x01	; 1
     728:	b8 b8       	out	0x08, r11	; 8
     72a:	b8 b8       	out	0x08, r11	; 8
     72c:	b1 aa       	std	Z+49, r11	; 0x31
     72e:	9c 95 8e 71 	jmp	0x64e31c	; 0x64e31c <__TEXT_REGION_LENGTH__+0x64631c>
     732:	6a 55       	subi	r22, 0x5A	; 90
     734:	4e 4e       	sbci	r20, 0xEE	; 238
     736:	39 40       	sbci	r19, 0x09	; 9
     738:	47 40       	sbci	r20, 0x07	; 7
     73a:	55 5c       	subi	r21, 0xC5	; 197
     73c:	55 6a       	ori	r21, 0xA5	; 165
     73e:	6a 6a       	ori	r22, 0xAA	; 170
     740:	78 78       	andi	r23, 0x88	; 136
     742:	78 80       	ld	r7, Y
     744:	87 87       	std	Z+15, r24	; 0x0f
     746:	8e 9c       	mul	r8, r14
     748:	9c a3       	std	Y+36, r25	; 0x24
     74a:	b1 b1       	in	r27, 0x01	; 1
     74c:	aa b8       	out	0x0a, r10	; 10
     74e:	aa aa       	std	Y+50, r10	; 0x32
     750:	a3 95       	inc	r26
     752:	8e 78       	andi	r24, 0x8E	; 142
     754:	6a 63       	ori	r22, 0x3A	; 58
     756:	47 4e       	sbci	r20, 0xE7	; 231
     758:	40 32       	cpi	r20, 0x20	; 32
     75a:	40 47       	sbci	r20, 0x70	; 112
     75c:	47 55       	subi	r20, 0x57	; 87
     75e:	63 6a       	ori	r22, 0xA3	; 163
     760:	6a 78       	andi	r22, 0x8A	; 138
     762:	80 78       	andi	r24, 0x80	; 128
     764:	8e 87       	std	Y+14, r24	; 0x0e
     766:	87 8e       	std	Z+31, r8	; 0x1f
     768:	8e 95 9c 95 	call	0x612b38	; 0x612b38 <__TEXT_REGION_LENGTH__+0x60ab38>
     76c:	a3 aa       	std	Z+51, r10	; 0x33
     76e:	aa b1       	in	r26, 0x0a	; 10
     770:	aa aa       	std	Y+50, r10	; 0x32
     772:	aa 95       	dec	r26
     774:	87 87       	std	Z+15, r24	; 0x0f
     776:	6a 5c       	subi	r22, 0xCA	; 202
     778:	55 47       	sbci	r21, 0x75	; 117
     77a:	47 39       	cpi	r20, 0x97	; 151
     77c:	32 40       	sbci	r19, 0x02	; 2
     77e:	47 4e       	sbci	r20, 0xE7	; 231
     780:	63 6a       	ori	r22, 0xA3	; 163
     782:	71 87       	std	Z+9, r23	; 0x09
     784:	87 80       	ldd	r8, Z+7	; 0x07
     786:	8e 8e       	std	Y+30, r8	; 0x1e
     788:	87 8e       	std	Z+31, r8	; 0x1f
     78a:	95 8e       	std	Z+29, r9	; 0x1d
     78c:	95 9c       	mul	r9, r5
     78e:	9c a3       	std	Y+36, r25	; 0x24
     790:	aa b1       	in	r26, 0x0a	; 10
     792:	aa aa       	std	Y+50, r10	; 0x32
     794:	aa a3       	std	Y+34, r26	; 0x22
     796:	8e 8e       	std	Y+30, r8	; 0x1e
     798:	80 63       	ori	r24, 0x30	; 48
     79a:	5c 4e       	sbci	r21, 0xEC	; 236
     79c:	40 47       	sbci	r20, 0x70	; 112
     79e:	39 40       	sbci	r19, 0x09	; 9
     7a0:	4e 40       	sbci	r20, 0x0E	; 14
     7a2:	5c 71       	andi	r21, 0x1C	; 28
     7a4:	6a 87       	std	Y+10, r22	; 0x0a
     7a6:	8e 87       	std	Y+14, r24	; 0x0e
     7a8:	95 95       	asr	r25
     7aa:	95 8e       	std	Z+29, r9	; 0x1d
     7ac:	8e 95 8e 8e 	call	0x611d1c	; 0x611d1c <__TEXT_REGION_LENGTH__+0x609d1c>
     7b0:	a3 9c       	mul	r10, r3
     7b2:	a3 aa       	std	Z+51, r10	; 0x33
     7b4:	b1 b1       	in	r27, 0x01	; 1
     7b6:	aa aa       	std	Y+50, r10	; 0x32
     7b8:	aa 8e       	std	Y+26, r10	; 0x1a
     7ba:	8e 80       	ldd	r8, Y+6	; 0x06
     7bc:	55 55       	subi	r21, 0x55	; 85
     7be:	40 32       	cpi	r20, 0x20	; 32
     7c0:	39 2a       	or	r3, r25
     7c2:	40 47       	sbci	r20, 0x70	; 112
     7c4:	47 6a       	ori	r20, 0xA7	; 167
     7c6:	71 71       	andi	r23, 0x11	; 17
     7c8:	9c 95 8e 9c 	jmp	0x65391c	; 0x65391c <__TEXT_REGION_LENGTH__+0x64b91c>
     7cc:	8e 95 8e 80 	call	0x61011c	; 0x61011c <__TEXT_REGION_LENGTH__+0x60811c>
     7d0:	8e 80       	ldd	r8, Y+6	; 0x06
     7d2:	80 9c       	mul	r8, r0
     7d4:	95 9c       	mul	r9, r5
     7d6:	b1 b1       	in	r27, 0x01	; 1
     7d8:	aa b1       	in	r26, 0x0a	; 10
     7da:	b1 9c       	mul	r11, r1
     7dc:	8e 80       	ldd	r8, Y+6	; 0x06
     7de:	6a 4e       	sbci	r22, 0xEA	; 234
     7e0:	47 2a       	or	r4, r23
     7e2:	32 32       	cpi	r19, 0x22	; 34
     7e4:	2a 47       	sbci	r18, 0x7A	; 122
     7e6:	4e 55       	subi	r20, 0x5E	; 94
     7e8:	78 80       	ld	r7, Y
     7ea:	87 9c       	mul	r8, r7
     7ec:	9c 95 9c 87 	jmp	0x650f38	; 0x650f38 <__TEXT_REGION_LENGTH__+0x648f38>
     7f0:	87 80       	ldd	r8, Z+7	; 0x07
     7f2:	78 80       	ld	r7, Y
     7f4:	80 87       	std	Z+8, r24	; 0x08
     7f6:	95 9c       	mul	r9, r5
     7f8:	a3 b8       	out	0x03, r10	; 3
     7fa:	b8 b1       	in	r27, 0x08	; 8
     7fc:	b1 aa       	std	Z+49, r11	; 0x31
     7fe:	8e 87       	std	Y+14, r24	; 0x0e
     800:	6a 5c       	subi	r22, 0xCA	; 202
     802:	47 32       	cpi	r20, 0x27	; 39
     804:	23 32       	cpi	r18, 0x23	; 35
     806:	23 32       	cpi	r18, 0x23	; 35
     808:	47 4e       	sbci	r20, 0xE7	; 231
     80a:	63 80       	ldd	r6, Z+3	; 0x03
     80c:	87 95       	ror	r24
     80e:	a3 9c       	mul	r10, r3
     810:	9c 95 8e 87 	jmp	0x650f1c	; 0x650f1c <__TEXT_REGION_LENGTH__+0x648f1c>
     814:	80 78       	andi	r24, 0x80	; 128
     816:	80 8e       	std	Z+24, r8	; 0x18
     818:	8e 95 b1 b1 	call	0x616362	; 0x616362 <__TEXT_REGION_LENGTH__+0x60e362>
     81c:	bf bf       	out	0x3f, r27	; 63
     81e:	b1 aa       	std	Z+49, r11	; 0x31
     820:	a3 87       	std	Z+11, r26	; 0x0b
     822:	78 5c       	subi	r23, 0xC8	; 200
     824:	47 32       	cpi	r20, 0x27	; 39
     826:	1c 23       	and	r17, r28
     828:	23 2a       	or	r2, r19
     82a:	39 55       	subi	r19, 0x59	; 89
     82c:	63 78       	andi	r22, 0x83	; 131
     82e:	8e 9c       	mul	r8, r14
     830:	a3 a3       	std	Z+35, r26	; 0x23
     832:	a3 95       	inc	r26
     834:	87 87       	std	Z+15, r24	; 0x0f
     836:	80 78       	andi	r24, 0x80	; 128
     838:	78 80       	ld	r7, Y
     83a:	95 95       	asr	r25
     83c:	a3 bf       	out	0x33, r26	; 51
     83e:	c6 c6       	rjmp	.+3468   	; 0x15cc <__stack+0xccd>
     840:	c6 b1       	in	r28, 0x06	; 6
     842:	aa 95       	dec	r26
     844:	71 63       	ori	r23, 0x31	; 49
     846:	47 23       	and	r20, r23
     848:	15 0e       	add	r1, r21
     84a:	15 23       	and	r17, r21
     84c:	2a 47       	sbci	r18, 0x7A	; 122
     84e:	6a 78       	andi	r22, 0x8A	; 138
     850:	8e aa       	std	Y+54, r8	; 0x36
     852:	aa aa       	std	Y+50, r10	; 0x32
     854:	aa 9c       	mul	r10, r10
     856:	8e 80       	ldd	r8, Y+6	; 0x06
     858:	71 71       	andi	r23, 0x11	; 17
     85a:	71 78       	andi	r23, 0x81	; 129
     85c:	80 95       	com	r24
     85e:	aa b8       	out	0x0a, r10	; 10
     860:	cd d4       	rcall	.+2458   	; 0x11fc <__stack+0x8fd>
     862:	cd c6       	rjmp	.+3482   	; 0x15fe <__stack+0xcff>
     864:	b1 a3       	std	Z+33, r27	; 0x21
     866:	80 63       	ori	r24, 0x30	; 48
     868:	47 2a       	or	r4, r23
     86a:	0e 07       	cpc	r16, r30
     86c:	00 1c       	adc	r0, r0
     86e:	2a 39       	cpi	r18, 0x9A	; 154
     870:	5c 80       	ldd	r5, Y+4	; 0x04
     872:	87 aa       	std	Z+55, r8	; 0x37
     874:	b1 b1       	in	r27, 0x01	; 1
     876:	b1 a3       	std	Z+33, r27	; 0x21
     878:	95 87       	std	Z+13, r25	; 0x0d
     87a:	78 71       	andi	r23, 0x18	; 24
     87c:	6a 6a       	ori	r22, 0xAA	; 170
     87e:	78 80       	ld	r7, Y
     880:	95 b1       	in	r25, 0x05	; 5
     882:	b8 c6       	rjmp	.+3440   	; 0x15f4 <__stack+0xcf5>
     884:	cd bf       	out	0x3d, r28	; 61
     886:	b1 aa       	std	Z+49, r11	; 0x31
     888:	95 71       	andi	r25, 0x15	; 21
     88a:	5c 40       	sbci	r21, 0x0C	; 12
     88c:	2a 0e       	add	r2, r26
     88e:	0e 07       	cpc	r16, r30
     890:	23 32       	cpi	r18, 0x23	; 35
     892:	47 6a       	ori	r20, 0xA7	; 167
     894:	87 8e       	std	Z+31, r8	; 0x1f
     896:	b1 b1       	in	r27, 0x01	; 1
     898:	aa aa       	std	Y+50, r10	; 0x32
     89a:	9c 87       	std	Y+12, r25	; 0x0c
     89c:	78 63       	ori	r23, 0x38	; 56
     89e:	63 63       	ori	r22, 0x33	; 51
     8a0:	5c 78       	andi	r21, 0x8C	; 140
     8a2:	80 95       	com	r24
     8a4:	b1 b8       	out	0x01, r11	; 1
     8a6:	bf c6       	rjmp	.+3454   	; 0x1626 <__stack+0xd27>
     8a8:	b8 a3       	std	Y+32, r27	; 0x20
     8aa:	9c 87       	std	Y+12, r25	; 0x0c
     8ac:	63 4e       	sbci	r22, 0xE3	; 227
     8ae:	32 1c       	adc	r3, r2
     8b0:	0e 0e       	add	r0, r30
     8b2:	0e 32       	cpi	r16, 0x2E	; 46
     8b4:	47 55       	subi	r20, 0x57	; 87
     8b6:	80 95       	com	r24
     8b8:	9c aa       	std	Y+52, r9	; 0x34
     8ba:	aa a3       	std	Y+34, r26	; 0x22
     8bc:	95 87       	std	Z+13, r25	; 0x0d
     8be:	78 6a       	ori	r23, 0xA8	; 168
     8c0:	5c 5c       	subi	r21, 0xCC	; 204
     8c2:	63 6a       	ori	r22, 0xA3	; 163
     8c4:	80 95       	com	r24
     8c6:	a3 bf       	out	0x33, r26	; 51
     8c8:	cd c6       	rjmp	.+3482   	; 0x1664 <__stack+0xd65>
     8ca:	c6 b8       	out	0x06, r12	; 6
     8cc:	a3 8e       	std	Z+27, r10	; 0x1b
     8ce:	78 55       	subi	r23, 0x58	; 88
     8d0:	40 2a       	or	r4, r16
     8d2:	15 0e       	add	r1, r21
     8d4:	0e 1c       	adc	r0, r14
     8d6:	32 55       	subi	r19, 0x52	; 82
     8d8:	5c 80       	ldd	r5, Y+4	; 0x04
     8da:	95 95       	asr	r25
     8dc:	9c a3       	std	Y+36, r25	; 0x24
     8de:	8e 87       	std	Y+14, r24	; 0x0e
     8e0:	78 6a       	ori	r23, 0xA8	; 168
     8e2:	63 5c       	subi	r22, 0xC3	; 195
     8e4:	5c 6a       	ori	r21, 0xAC	; 172
     8e6:	6a 80       	ldd	r6, Y+2	; 0x02
     8e8:	a3 aa       	std	Z+51, r10	; 0x33
     8ea:	b8 cd       	rjmp	.-1168   	; 0x45c <__EEPROM_REGION_LENGTH__+0x5c>
     8ec:	c6 b8       	out	0x06, r12	; 6
     8ee:	b1 9c       	mul	r11, r1
     8f0:	87 71       	andi	r24, 0x17	; 23
     8f2:	55 40       	sbci	r21, 0x05	; 5
     8f4:	32 23       	and	r19, r18
     8f6:	15 1c       	adc	r1, r5
     8f8:	23 39       	cpi	r18, 0x93	; 147
     8fa:	5c 6a       	ori	r21, 0xAC	; 172
     8fc:	78 95       	.word	0x9578	; ????
     8fe:	95 95       	asr	r25
     900:	95 87       	std	Z+13, r25	; 0x0d
     902:	78 71       	andi	r23, 0x18	; 24
     904:	63 5c       	subi	r22, 0xC3	; 195
     906:	5c 5c       	subi	r21, 0xCC	; 204
     908:	63 71       	andi	r22, 0x13	; 19
     90a:	78 9c       	mul	r7, r8
     90c:	b1 b1       	in	r27, 0x01	; 1
     90e:	b8 bf       	out	0x38, r27	; 56
     910:	b1 a3       	std	Z+33, r27	; 0x21
     912:	95 80       	ldd	r9, Z+5	; 0x05
     914:	71 5c       	subi	r23, 0xC1	; 193
     916:	47 40       	sbci	r20, 0x07	; 7
     918:	32 23       	and	r19, r18
     91a:	32 39       	cpi	r19, 0x92	; 146
     91c:	40 71       	andi	r20, 0x10	; 16
     91e:	78 78       	andi	r23, 0x88	; 136
     920:	9c 9c       	mul	r9, r12
     922:	8e 8e       	std	Y+30, r8	; 0x1e
     924:	87 71       	andi	r24, 0x17	; 23
     926:	71 63       	ori	r23, 0x31	; 49
     928:	5c 63       	ori	r21, 0x3C	; 60
     92a:	63 6a       	ori	r22, 0xA3	; 163
     92c:	78 80       	ld	r7, Y
     92e:	95 aa       	std	Z+53, r9	; 0x35
     930:	b1 aa       	std	Z+49, r11	; 0x31
     932:	b1 aa       	std	Z+49, r11	; 0x31
     934:	9c 8e       	std	Y+28, r9	; 0x1c
     936:	80 71       	andi	r24, 0x10	; 16
     938:	5c 47       	sbci	r21, 0x7C	; 124
     93a:	40 39       	cpi	r20, 0x90	; 144
     93c:	2a 39       	cpi	r18, 0x9A	; 154
     93e:	40 47       	sbci	r20, 0x70	; 112
     940:	71 80       	ldd	r7, Z+1	; 0x01
     942:	80 95       	com	r24
     944:	a3 95       	inc	r26
     946:	95 8e       	std	Z+29, r9	; 0x1d
     948:	78 71       	andi	r23, 0x18	; 24
     94a:	71 6a       	ori	r23, 0xA1	; 161
     94c:	6a 78       	andi	r22, 0x8A	; 138
     94e:	80 80       	ld	r8, Z
     950:	8e 95 a3 aa 	call	0x615546	; 0x615546 <__TEXT_REGION_LENGTH__+0x60d546>
     954:	a3 a3       	std	Z+35, r26	; 0x23
     956:	a3 8e       	std	Z+27, r10	; 0x1b
     958:	78 78       	andi	r23, 0x88	; 136
     95a:	71 4e       	sbci	r23, 0xE1	; 225
     95c:	47 40       	sbci	r20, 0x07	; 7
     95e:	39 32       	cpi	r19, 0x29	; 41
     960:	39 40       	sbci	r19, 0x09	; 9
     962:	55 78       	andi	r21, 0x85	; 133
     964:	78 87       	std	Y+8, r23	; 0x08
     966:	9c 9c       	mul	r9, r12
     968:	8e 95 95 80 	call	0x61012a	; 0x61012a <__TEXT_REGION_LENGTH__+0x60812a>
     96c:	78 80       	ld	r7, Y
     96e:	78 80       	ld	r7, Y
     970:	87 95       	ror	r24
     972:	95 95       	asr	r25
     974:	a3 aa       	std	Z+51, r10	; 0x33
     976:	a3 aa       	std	Z+51, r10	; 0x33
     978:	a3 95       	inc	r26
     97a:	8e 78       	andi	r24, 0x8E	; 142
     97c:	6a 63       	ori	r22, 0x3A	; 58
     97e:	4e 40       	sbci	r20, 0x0E	; 14
     980:	39 32       	cpi	r19, 0x29	; 41
     982:	32 39       	cpi	r19, 0x92	; 146
     984:	40 5c       	subi	r20, 0xC0	; 192
     986:	78 78       	andi	r23, 0x88	; 136
     988:	87 9c       	mul	r8, r7
     98a:	9c 95 95 95 	jmp	0x652b2a	; 0x652b2a <__TEXT_REGION_LENGTH__+0x64ab2a>
     98e:	87 78       	andi	r24, 0x87	; 135
     990:	80 80       	ld	r8, Z
     992:	87 8e       	std	Z+31, r8	; 0x1f
     994:	95 95       	asr	r25
     996:	a3 a3       	std	Z+35, r26	; 0x23
     998:	a3 aa       	std	Z+51, r10	; 0x33
     99a:	a3 9c       	mul	r10, r3
     99c:	9c 87       	std	Y+12, r25	; 0x0c
     99e:	78 71       	andi	r23, 0x18	; 24
     9a0:	5c 47       	sbci	r21, 0x7C	; 124
     9a2:	40 32       	cpi	r20, 0x20	; 32
     9a4:	32 39       	cpi	r19, 0x92	; 146
     9a6:	32 40       	sbci	r19, 0x02	; 2
     9a8:	63 71       	andi	r22, 0x13	; 19
     9aa:	78 95       	.word	0x9578	; ????
     9ac:	a3 9c       	mul	r10, r3
     9ae:	9c 9c       	mul	r9, r12
     9b0:	95 8e       	std	Z+29, r9	; 0x1d
     9b2:	87 80       	ldd	r8, Z+7	; 0x07
     9b4:	87 8e       	std	Z+31, r8	; 0x1f
     9b6:	95 9c       	mul	r9, r5
     9b8:	9c a3       	std	Y+36, r25	; 0x24
     9ba:	a3 a3       	std	Z+35, r26	; 0x23
     9bc:	9c a3       	std	Y+36, r25	; 0x24
     9be:	a3 87       	std	Z+11, r26	; 0x0b
     9c0:	78 78       	andi	r23, 0x88	; 136
     9c2:	63 55       	subi	r22, 0x53	; 83
     9c4:	4e 39       	cpi	r20, 0x9E	; 158
     9c6:	39 47       	sbci	r19, 0x79	; 121
     9c8:	39 40       	sbci	r19, 0x09	; 9
     9ca:	5c 6a       	ori	r21, 0xAC	; 172
     9cc:	80 80       	ld	r8, Z
     9ce:	95 a3       	std	Z+37, r25	; 0x25
     9d0:	9c 8e       	std	Y+28, r9	; 0x1c
     9d2:	95 95       	asr	r25
     9d4:	8e 8e       	std	Y+30, r8	; 0x1e
     9d6:	87 8e       	std	Z+31, r8	; 0x1f
     9d8:	9c a3       	std	Y+36, r25	; 0x24
     9da:	9c aa       	std	Y+52, r9	; 0x34
     9dc:	b1 a3       	std	Z+33, r27	; 0x21
     9de:	95 95       	asr	r25
     9e0:	9c 95 80 71 	jmp	0x64e300	; 0x64e300 <__TEXT_REGION_LENGTH__+0x646300>
     9e4:	71 6a       	ori	r23, 0xA1	; 161
     9e6:	5c 4e       	sbci	r21, 0xEC	; 236
     9e8:	4e 55       	subi	r20, 0x5E	; 94
     9ea:	47 47       	sbci	r20, 0x77	; 119
     9ec:	55 63       	ori	r21, 0x35	; 53
     9ee:	78 80       	ld	r7, Y
     9f0:	87 95       	ror	r24
     9f2:	9c 95 8e 95 	jmp	0x652b1c	; 0x652b1c <__TEXT_REGION_LENGTH__+0x64ab1c>
     9f6:	95 8e       	std	Z+29, r9	; 0x1d
     9f8:	8e 95 95 9c 	call	0x61392a	; 0x61392a <__TEXT_REGION_LENGTH__+0x60b92a>
     9fc:	a3 a3       	std	Z+35, r26	; 0x23
     9fe:	a3 aa       	std	Z+51, r10	; 0x33
     a00:	a3 95       	inc	r26
     a02:	95 9c       	mul	r9, r5
     a04:	8e 71       	andi	r24, 0x1E	; 30
     a06:	6a 6a       	ori	r22, 0xAA	; 170
     a08:	63 55       	subi	r22, 0x53	; 83
     a0a:	47 55       	subi	r20, 0x57	; 87
     a0c:	55 47       	sbci	r21, 0x75	; 117
     a0e:	47 55       	subi	r20, 0x57	; 87
     a10:	6a 80       	ldd	r6, Y+2	; 0x02
     a12:	80 87       	std	Z+8, r24	; 0x08
     a14:	9c 9c       	mul	r9, r12
     a16:	8e 95 95 9c 	call	0x61392a	; 0x61392a <__TEXT_REGION_LENGTH__+0x60b92a>
     a1a:	95 8e       	std	Z+29, r9	; 0x1d
     a1c:	95 9c       	mul	r9, r5
     a1e:	a3 a3       	std	Z+35, r26	; 0x23
     a20:	aa b1       	in	r26, 0x0a	; 10
     a22:	a3 95       	inc	r26
     a24:	95 95       	asr	r25
     a26:	87 80       	ldd	r8, Z+7	; 0x07
     a28:	71 63       	ori	r23, 0x31	; 49
     a2a:	63 5c       	subi	r22, 0xC3	; 195
     a2c:	4e 5c       	subi	r20, 0xCE	; 206
     a2e:	5c 47       	sbci	r21, 0x7C	; 124
     a30:	47 5c       	subi	r20, 0xC7	; 199
     a32:	55 6a       	ori	r21, 0xA5	; 165
     a34:	80 80       	ld	r8, Z
     a36:	8e 9c       	mul	r8, r14
     a38:	95 95       	asr	r25
     a3a:	9c 9c       	mul	r9, r12
     a3c:	9c 9c       	mul	r9, r12
     a3e:	9c 95 9c a3 	jmp	0x654738	; 0x654738 <__TEXT_REGION_LENGTH__+0x64c738>
     a42:	a3 a3       	std	Z+35, r26	; 0x23
     a44:	aa a3       	std	Y+34, r26	; 0x22
     a46:	95 8e       	std	Z+29, r9	; 0x1d
     a48:	87 80       	ldd	r8, Z+7	; 0x07
     a4a:	80 63       	ori	r24, 0x30	; 48
     a4c:	5c 6a       	ori	r21, 0xAC	; 172
     a4e:	63 55       	subi	r22, 0x53	; 83
     a50:	5c 5c       	subi	r21, 0xCC	; 204
     a52:	4e 55       	subi	r20, 0x5E	; 94
     a54:	55 5c       	subi	r21, 0xC5	; 197
     a56:	71 80       	ldd	r7, Z+1	; 0x01
     a58:	80 8e       	std	Z+24, r8	; 0x18
     a5a:	9c 9c       	mul	r9, r12
     a5c:	9c a3       	std	Y+36, r25	; 0x24
     a5e:	a3 a3       	std	Z+35, r26	; 0x23
     a60:	a3 a3       	std	Z+35, r26	; 0x23
     a62:	9c a3       	std	Y+36, r25	; 0x24
     a64:	aa aa       	std	Y+50, r10	; 0x32
     a66:	a3 a3       	std	Z+35, r26	; 0x23
     a68:	9c 95 87 80 	jmp	0x65010e	; 0x65010e <__TEXT_REGION_LENGTH__+0x64810e>
     a6c:	78 71       	andi	r23, 0x18	; 24
     a6e:	5c 5c       	subi	r21, 0xCC	; 204
     a70:	6a 63       	ori	r22, 0x3A	; 58
     a72:	5c 5c       	subi	r21, 0xCC	; 204
     a74:	55 4e       	sbci	r21, 0xE5	; 229
     a76:	4e 4e       	sbci	r20, 0xEE	; 238
     a78:	63 71       	andi	r22, 0x13	; 19
     a7a:	78 80       	ld	r7, Y
     a7c:	8e 9c       	mul	r8, r14
     a7e:	a3 a3       	std	Z+35, r26	; 0x23
     a80:	a3 aa       	std	Z+51, r10	; 0x33
     a82:	aa aa       	std	Y+50, r10	; 0x32
     a84:	a3 a3       	std	Z+35, r26	; 0x23
     a86:	aa aa       	std	Y+50, r10	; 0x32
     a88:	a3 a3       	std	Z+35, r26	; 0x23
     a8a:	9c 9c       	mul	r9, r12
     a8c:	8e 80       	ldd	r8, Y+6	; 0x06
     a8e:	78 6a       	ori	r23, 0xA8	; 168
     a90:	5c 63       	ori	r21, 0x3C	; 60
     a92:	63 5c       	subi	r22, 0xC3	; 195
     a94:	5c 63       	ori	r21, 0x3C	; 60
     a96:	5c 55       	subi	r21, 0x5C	; 92
     a98:	55 4e       	sbci	r21, 0xE5	; 229
     a9a:	55 71       	andi	r21, 0x15	; 21
     a9c:	71 78       	andi	r23, 0x81	; 129
     a9e:	87 95       	ror	r24
     aa0:	95 a3       	std	Z+37, r25	; 0x25
     aa2:	a3 a3       	std	Z+35, r26	; 0x23
     aa4:	aa aa       	std	Y+50, r10	; 0x32
     aa6:	a3 a3       	std	Z+35, r26	; 0x23
     aa8:	aa a3       	std	Y+34, r26	; 0x22
     aaa:	a3 9c       	mul	r10, r3
     aac:	9c 9c       	mul	r9, r12
     aae:	87 80       	ldd	r8, Z+7	; 0x07
     ab0:	78 71       	andi	r23, 0x18	; 24
     ab2:	5c 55       	subi	r21, 0x5C	; 92
     ab4:	63 63       	ori	r22, 0x33	; 51
     ab6:	63 5c       	subi	r22, 0xC3	; 195
     ab8:	63 63       	ori	r22, 0x33	; 51
     aba:	5c 4e       	sbci	r21, 0xEC	; 236
     abc:	4e 63       	ori	r20, 0x3E	; 62
     abe:	71 6a       	ori	r23, 0xA1	; 161
     ac0:	78 8e       	std	Y+24, r7	; 0x18
     ac2:	95 95       	asr	r25
     ac4:	a3 aa       	std	Z+51, r10	; 0x33
     ac6:	a3 aa       	std	Z+51, r10	; 0x33
     ac8:	a3 a3       	std	Z+35, r26	; 0x23
     aca:	aa aa       	std	Y+50, r10	; 0x32
     acc:	9c 9c       	mul	r9, r12
     ace:	a3 9c       	mul	r10, r3
     ad0:	87 87       	std	Z+15, r24	; 0x0f
     ad2:	80 71       	andi	r24, 0x10	; 16
     ad4:	63 4e       	sbci	r22, 0xE3	; 227
     ad6:	55 63       	ori	r21, 0x35	; 53
     ad8:	63 55       	subi	r22, 0x53	; 83
     ada:	63 6a       	ori	r22, 0xA3	; 163
     adc:	5c 4e       	sbci	r21, 0xEC	; 236
     ade:	4e 55       	subi	r20, 0x5E	; 94
     ae0:	63 6a       	ori	r22, 0xA3	; 163
     ae2:	6a 80       	ldd	r6, Y+2	; 0x02
     ae4:	95 8e       	std	Z+29, r9	; 0x1d
     ae6:	95 aa       	std	Z+53, r9	; 0x35
     ae8:	b1 aa       	std	Z+49, r11	; 0x31
     aea:	a3 aa       	std	Z+51, r10	; 0x33
     aec:	aa aa       	std	Y+50, r10	; 0x32
     aee:	a3 95       	inc	r26
     af0:	9c aa       	std	Y+52, r9	; 0x34
     af2:	8e 78       	andi	r24, 0x8E	; 142
     af4:	87 78       	andi	r24, 0x87	; 135
     af6:	63 4e       	sbci	r22, 0xE3	; 227
     af8:	47 55       	subi	r20, 0x57	; 87
     afa:	63 4e       	sbci	r22, 0xE3	; 227
     afc:	4e 6a       	ori	r20, 0xAE	; 174
     afe:	63 4e       	sbci	r22, 0xE3	; 227
     b00:	4e 55       	subi	r20, 0x5E	; 94
     b02:	5c 6a       	ori	r21, 0xAC	; 172
     b04:	63 6a       	ori	r22, 0xA3	; 163
     b06:	95 9c       	mul	r9, r5
     b08:	8e 9c       	mul	r8, r14
     b0a:	b1 b1       	in	r27, 0x01	; 1
     b0c:	a3 aa       	std	Z+51, r10	; 0x33
     b0e:	aa b1       	in	r26, 0x0a	; 10
     b10:	aa 95       	dec	r26
     b12:	95 aa       	std	Z+53, r9	; 0x35
     b14:	9c 87       	std	Y+12, r25	; 0x0c
     b16:	87 87       	std	Z+15, r24	; 0x0f
     b18:	71 5c       	subi	r23, 0xC1	; 193
     b1a:	47 47       	sbci	r20, 0x77	; 119
     b1c:	5c 5c       	subi	r21, 0xCC	; 204
     b1e:	47 55       	subi	r20, 0x57	; 87
     b20:	63 55       	subi	r22, 0x53	; 83
     b22:	47 47       	sbci	r20, 0x77	; 119
     b24:	4e 55       	subi	r20, 0x5E	; 94
     b26:	6a 6a       	ori	r22, 0xAA	; 170
     b28:	71 8e       	std	Z+25, r7	; 0x19
     b2a:	95 8e       	std	Z+29, r9	; 0x1d
     b2c:	9c aa       	std	Y+52, r9	; 0x34
     b2e:	aa a3       	std	Y+34, r26	; 0x22
     b30:	aa aa       	std	Y+50, r10	; 0x32
     b32:	aa a3       	std	Y+34, r26	; 0x22
     b34:	95 a3       	std	Z+37, r25	; 0x25
     b36:	a3 95       	inc	r26
     b38:	87 87       	std	Z+15, r24	; 0x0f
     b3a:	80 6a       	ori	r24, 0xA0	; 160
     b3c:	5c 4e       	sbci	r21, 0xEC	; 236
     b3e:	4e 5c       	subi	r20, 0xCE	; 206
     b40:	55 47       	sbci	r21, 0x75	; 117
     b42:	55 55       	subi	r21, 0x55	; 85
     b44:	47 47       	sbci	r20, 0x77	; 119
     b46:	47 4e       	sbci	r20, 0xE7	; 231
     b48:	63 6a       	ori	r22, 0xA3	; 163
     b4a:	6a 80       	ldd	r6, Y+2	; 0x02
     b4c:	95 95       	asr	r25
     b4e:	9c aa       	std	Y+52, r9	; 0x34
     b50:	aa aa       	std	Y+50, r10	; 0x32
     b52:	aa a3       	std	Y+34, r26	; 0x22
     b54:	a3 aa       	std	Z+51, r10	; 0x33
     b56:	9c 9c       	mul	r9, r12
     b58:	9c 9c       	mul	r9, r12
     b5a:	9c 8e       	std	Y+28, r9	; 0x1c
     b5c:	80 80       	ld	r8, Z
     b5e:	71 55       	subi	r23, 0x51	; 81
     b60:	4e 55       	subi	r20, 0x5E	; 94
     b62:	55 4e       	sbci	r21, 0xE5	; 229
     b64:	4e 4e       	sbci	r20, 0xEE	; 238
     b66:	4e 47       	sbci	r20, 0x7E	; 126
     b68:	47 47       	sbci	r20, 0x77	; 119
     b6a:	55 63       	ori	r21, 0x35	; 53
     b6c:	6a 71       	andi	r22, 0x1A	; 26
     b6e:	87 95       	ror	r24
     b70:	95 9c       	mul	r9, r5
     b72:	b1 aa       	std	Z+49, r11	; 0x31
     b74:	aa aa       	std	Y+50, r10	; 0x32
     b76:	a3 a3       	std	Z+35, r26	; 0x23
     b78:	a3 9c       	mul	r10, r3
     b7a:	9c 9c       	mul	r9, r12
     b7c:	9c 8e       	std	Y+28, r9	; 0x1c
     b7e:	87 80       	ldd	r8, Z+7	; 0x07
     b80:	78 6a       	ori	r23, 0xA8	; 168
     b82:	5c 55       	subi	r21, 0x5C	; 92
     b84:	5c 4e       	sbci	r21, 0xEC	; 236
     b86:	47 55       	subi	r20, 0x57	; 87
     b88:	55 40       	sbci	r21, 0x05	; 5
     b8a:	47 4e       	sbci	r20, 0xE7	; 231
     b8c:	47 5c       	subi	r20, 0xC7	; 199
     b8e:	6a 6a       	ori	r22, 0xAA	; 170
     b90:	80 8e       	std	Z+24, r8	; 0x18
     b92:	8e 9c       	mul	r8, r14
     b94:	aa a3       	std	Y+34, r26	; 0x22
     b96:	a3 aa       	std	Z+51, r10	; 0x33
     b98:	aa 9c       	mul	r10, r10
     b9a:	9c a3       	std	Y+36, r25	; 0x24
     b9c:	9c 9c       	mul	r9, r12
     b9e:	95 95       	asr	r25
     ba0:	8e 87       	std	Y+14, r24	; 0x0e
     ba2:	80 71       	andi	r24, 0x10	; 16
     ba4:	6a 63       	ori	r22, 0x3A	; 58
     ba6:	55 55       	subi	r21, 0x55	; 85
     ba8:	4e 4e       	sbci	r20, 0xEE	; 238
     baa:	4e 47       	sbci	r20, 0x7E	; 126
     bac:	40 47       	sbci	r20, 0x70	; 112
     bae:	40 47       	sbci	r20, 0x70	; 112
     bb0:	63 6a       	ori	r22, 0xA3	; 163
     bb2:	6a 80       	ldd	r6, Y+2	; 0x02
     bb4:	8e 95 a3 a3 	call	0x614746	; 0x614746 <__TEXT_REGION_LENGTH__+0x60c746>
     bb8:	a3 a3       	std	Z+35, r26	; 0x23
     bba:	a3 9c       	mul	r10, r3
     bbc:	95 9c       	mul	r9, r5
     bbe:	9c 9c       	mul	r9, r12
     bc0:	8e 95 95 8e 	call	0x611d2a	; 0x611d2a <__TEXT_REGION_LENGTH__+0x609d2a>
     bc4:	87 80       	ldd	r8, Z+7	; 0x07
     bc6:	71 71       	andi	r23, 0x11	; 17
     bc8:	63 55       	subi	r22, 0x53	; 83
     bca:	5c 4e       	sbci	r21, 0xEC	; 236
     bcc:	40 4e       	sbci	r20, 0xE0	; 224
     bce:	47 39       	cpi	r20, 0x97	; 151
     bd0:	47 47       	sbci	r20, 0x77	; 119
     bd2:	40 63       	ori	r20, 0x30	; 48
     bd4:	6a 6a       	ori	r22, 0xAA	; 170
     bd6:	80 95       	com	r24
     bd8:	95 9c       	mul	r9, r5
     bda:	a3 a3       	std	Z+35, r26	; 0x23
     bdc:	a3 9c       	mul	r10, r3
     bde:	9c 95 95 95 	jmp	0x652b2a	; 0x652b2a <__TEXT_REGION_LENGTH__+0x64ab2a>
     be2:	8e 95 95 8e 	call	0x611d2a	; 0x611d2a <__TEXT_REGION_LENGTH__+0x609d2a>
     be6:	87 87       	std	Z+15, r24	; 0x0f
     be8:	80 78       	andi	r24, 0x80	; 128
     bea:	78 63       	ori	r23, 0x38	; 56
     bec:	63 63       	ori	r22, 0x33	; 51
     bee:	47 47       	sbci	r20, 0x77	; 119
     bf0:	4e 39       	cpi	r20, 0x9E	; 158
     bf2:	39 40       	sbci	r19, 0x09	; 9
     bf4:	40 47       	sbci	r20, 0x70	; 112
     bf6:	63 6a       	ori	r22, 0xA3	; 163
     bf8:	78 87       	std	Y+8, r23	; 0x08
     bfa:	8e 95 9c a3 	call	0x614738	; 0x614738 <__TEXT_REGION_LENGTH__+0x60c738>
     bfe:	a3 a3       	std	Z+35, r26	; 0x23
     c00:	95 9c       	mul	r9, r5
     c02:	9c 95 8e 95 	jmp	0x652b1c	; 0x652b1c <__TEXT_REGION_LENGTH__+0x64ab1c>
     c06:	8e 8e       	std	Y+30, r8	; 0x1e
     c08:	8e 87       	std	Y+14, r24	; 0x0e
     c0a:	8e 8e       	std	Y+30, r8	; 0x1e
     c0c:	80 80       	ld	r8, Z
     c0e:	71 71       	andi	r23, 0x11	; 17
     c10:	63 4e       	sbci	r22, 0xE3	; 227
     c12:	47 4e       	sbci	r20, 0xE7	; 231
     c14:	40 39       	cpi	r20, 0x90	; 144
     c16:	40 47       	sbci	r20, 0x70	; 112
     c18:	4e 63       	ori	r20, 0x3E	; 62
     c1a:	6a 78       	andi	r22, 0x8A	; 138
     c1c:	87 95       	ror	r24
     c1e:	95 9c       	mul	r9, r5
     c20:	a3 a3       	std	Z+35, r26	; 0x23
     c22:	9c 95 9c 95 	jmp	0x652b38	; 0x652b38 <__TEXT_REGION_LENGTH__+0x64ab38>
     c26:	8e 8e       	std	Y+30, r8	; 0x1e
     c28:	8e 95 95 87 	call	0x610f2a	; 0x610f2a <__TEXT_REGION_LENGTH__+0x608f2a>
     c2c:	8e 9c       	mul	r8, r14
     c2e:	95 8e       	std	Z+29, r9	; 0x1d
     c30:	87 80       	ldd	r8, Z+7	; 0x07
     c32:	80 6a       	ori	r24, 0xA0	; 160
     c34:	55 5c       	subi	r21, 0xC5	; 197
     c36:	4e 40       	sbci	r20, 0x0E	; 14
     c38:	40 40       	sbci	r20, 0x00	; 0
     c3a:	47 55       	subi	r20, 0x57	; 87
     c3c:	5c 63       	ori	r21, 0x3C	; 60
     c3e:	78 87       	std	Y+8, r23	; 0x08
     c40:	87 95       	ror	r24
     c42:	a3 9c       	mul	r10, r3
     c44:	a3 9c       	mul	r10, r3
     c46:	95 9c       	mul	r9, r5
     c48:	95 87       	std	Z+13, r25	; 0x0d
     c4a:	95 8e       	std	Z+29, r9	; 0x1d
     c4c:	87 8e       	std	Z+31, r8	; 0x1f
     c4e:	80 87       	std	Z+8, r24	; 0x08
     c50:	9c 8e       	std	Y+28, r9	; 0x1c
     c52:	80 87       	std	Z+8, r24	; 0x08
     c54:	80 78       	andi	r24, 0x80	; 128
     c56:	6a 5c       	subi	r22, 0xCA	; 202
     c58:	5c 55       	subi	r21, 0x5C	; 92
     c5a:	47 40       	sbci	r20, 0x07	; 7
     c5c:	4e 47       	sbci	r20, 0x7E	; 126
     c5e:	55 5c       	subi	r21, 0xC5	; 197
     c60:	63 80       	ldd	r6, Z+3	; 0x03
     c62:	80 80       	ld	r8, Z
     c64:	95 9c       	mul	r9, r5
     c66:	9c 9c       	mul	r9, r12
     c68:	9c 9c       	mul	r9, r12
     c6a:	a3 95       	inc	r26
     c6c:	8e 9c       	mul	r8, r14
     c6e:	8e 87       	std	Y+14, r24	; 0x0e
     c70:	8e 80       	ldd	r8, Y+6	; 0x06
     c72:	87 8e       	std	Z+31, r8	; 0x1f
     c74:	80 80       	ld	r8, Z
     c76:	80 71       	andi	r24, 0x10	; 16
     c78:	71 6a       	ori	r23, 0xA1	; 161
     c7a:	5c 5c       	subi	r21, 0xCC	; 204
     c7c:	5c 55       	subi	r21, 0x5C	; 92
     c7e:	5c 5c       	subi	r21, 0xCC	; 204
     c80:	5c 6a       	ori	r21, 0xAC	; 172
     c82:	6a 6a       	ori	r22, 0xAA	; 170
     c84:	78 78       	andi	r23, 0x88	; 136
     c86:	78 80       	ld	r7, Y
     c88:	80 80       	ld	r8, Z
     c8a:	87 87       	std	Z+15, r24	; 0x0f
     c8c:	8e 8e       	std	Y+30, r8	; 0x1e
     c8e:	8e 8e       	std	Y+30, r8	; 0x1e
     c90:	95 95       	asr	r25
     c92:	95 8e       	std	Z+29, r9	; 0x1d
     c94:	8e 8e       	std	Y+30, r8	; 0x1e
     c96:	87 87       	std	Z+15, r24	; 0x0f
     c98:	87 80       	ldd	r8, Z+7	; 0x07
     c9a:	80 78       	andi	r24, 0x80	; 128
     c9c:	71 71       	andi	r23, 0x11	; 17
     c9e:	78 71       	andi	r23, 0x18	; 24
     ca0:	78 78       	andi	r23, 0x88	; 136
     ca2:	78 80       	ld	r7, Y
     ca4:	78 80       	ld	r7, Y
     ca6:	80 80       	ld	r8, Z
     ca8:	80 80       	ld	r8, Z
     caa:	78 78       	andi	r23, 0x88	; 136
     cac:	80 78       	andi	r24, 0x80	; 128
     cae:	80 80       	ld	r8, Z
     cb0:	78 87       	std	Y+8, r23	; 0x08
     cb2:	87 80       	ldd	r8, Z+7	; 0x07
     cb4:	87 87       	std	Z+15, r24	; 0x0f
     cb6:	87 87       	std	Z+15, r24	; 0x0f
     cb8:	87 80       	ldd	r8, Z+7	; 0x07
     cba:	87 80       	ldd	r8, Z+7	; 0x07
     cbc:	80 8e       	std	Z+24, r8	; 0x18
     cbe:	87 80       	ldd	r8, Z+7	; 0x07
     cc0:	87 87       	std	Z+15, r24	; 0x0f
     cc2:	87 87       	std	Z+15, r24	; 0x0f
     cc4:	87 80       	ldd	r8, Z+7	; 0x07
     cc6:	80 80       	ld	r8, Z
     cc8:	78 78       	andi	r23, 0x88	; 136
     cca:	71 71       	andi	r23, 0x11	; 17
     ccc:	71 6a       	ori	r23, 0xA1	; 161
     cce:	6a 6a       	ori	r22, 0xAA	; 170
     cd0:	6a 6a       	ori	r22, 0xAA	; 170
     cd2:	71 6a       	ori	r23, 0xA1	; 161
     cd4:	71 71       	andi	r23, 0x11	; 17
     cd6:	78 78       	andi	r23, 0x88	; 136
     cd8:	78 80       	ld	r7, Y
     cda:	80 80       	ld	r8, Z
     cdc:	80 87       	std	Z+8, r24	; 0x08
     cde:	80 87       	std	Z+8, r24	; 0x08
     ce0:	87 87       	std	Z+15, r24	; 0x0f
     ce2:	87 87       	std	Z+15, r24	; 0x0f
     ce4:	8e 8e       	std	Y+30, r8	; 0x1e
     ce6:	8e 8e       	std	Y+30, r8	; 0x1e
     ce8:	8e 8e       	std	Y+30, r8	; 0x1e
     cea:	87 87       	std	Z+15, r24	; 0x0f
     cec:	87 80       	ldd	r8, Z+7	; 0x07
     cee:	78 71       	andi	r23, 0x18	; 24
     cf0:	6a 6a       	ori	r22, 0xAA	; 170
     cf2:	63 63       	ori	r22, 0x33	; 51
     cf4:	63 63       	ori	r22, 0x33	; 51
     cf6:	63 63       	ori	r22, 0x33	; 51
     cf8:	6a 6a       	ori	r22, 0xAA	; 170
     cfa:	71 71       	andi	r23, 0x11	; 17
     cfc:	78 78       	andi	r23, 0x88	; 136
     cfe:	80 80       	ld	r8, Z
     d00:	80 80       	ld	r8, Z
     d02:	80 87       	std	Z+8, r24	; 0x08
     d04:	87 87       	std	Z+15, r24	; 0x0f
     d06:	87 87       	std	Z+15, r24	; 0x0f
     d08:	87 87       	std	Z+15, r24	; 0x0f
     d0a:	8e 8e       	std	Y+30, r8	; 0x1e
     d0c:	8e 87       	std	Y+14, r24	; 0x0e
     d0e:	87 87       	std	Z+15, r24	; 0x0f
     d10:	80 80       	ld	r8, Z
     d12:	80 78       	andi	r24, 0x80	; 128
     d14:	71 6a       	ori	r23, 0xA1	; 161
     d16:	6a 63       	ori	r22, 0x3A	; 58
     d18:	63 63       	ori	r22, 0x33	; 51
     d1a:	63 63       	ori	r22, 0x33	; 51
     d1c:	63 63       	ori	r22, 0x33	; 51
     d1e:	6a 6a       	ori	r22, 0xAA	; 170
     d20:	71 71       	andi	r23, 0x11	; 17
     d22:	71 78       	andi	r23, 0x81	; 129
     d24:	78 78       	andi	r23, 0x88	; 136
     d26:	80 80       	ld	r8, Z
     d28:	87 87       	std	Z+15, r24	; 0x0f
     d2a:	87 87       	std	Z+15, r24	; 0x0f
     d2c:	87 8e       	std	Z+31, r8	; 0x1f
     d2e:	8e 8e       	std	Y+30, r8	; 0x1e
     d30:	8e 87       	std	Y+14, r24	; 0x0e
     d32:	87 87       	std	Z+15, r24	; 0x0f
     d34:	87 80       	ldd	r8, Z+7	; 0x07
     d36:	80 78       	andi	r24, 0x80	; 128
     d38:	78 71       	andi	r23, 0x18	; 24
     d3a:	71 71       	andi	r23, 0x11	; 17
     d3c:	6a 6a       	ori	r22, 0xAA	; 170
     d3e:	6a 6a       	ori	r22, 0xAA	; 170
     d40:	6a 6a       	ori	r22, 0xAA	; 170
     d42:	6a 6a       	ori	r22, 0xAA	; 170
     d44:	6a 6a       	ori	r22, 0xAA	; 170
     d46:	6a 71       	andi	r22, 0x1A	; 26
     d48:	71 71       	andi	r23, 0x11	; 17
     d4a:	78 78       	andi	r23, 0x88	; 136
     d4c:	80 80       	ld	r8, Z
     d4e:	87 87       	std	Z+15, r24	; 0x0f
     d50:	87 8e       	std	Z+31, r8	; 0x1f
     d52:	8e 8e       	std	Y+30, r8	; 0x1e
     d54:	8e 8e       	std	Y+30, r8	; 0x1e
     d56:	87 87       	std	Z+15, r24	; 0x0f
     d58:	87 87       	std	Z+15, r24	; 0x0f
     d5a:	80 80       	ld	r8, Z
     d5c:	80 78       	andi	r24, 0x80	; 128
     d5e:	78 78       	andi	r23, 0x88	; 136
     d60:	78 71       	andi	r23, 0x18	; 24
     d62:	71 71       	andi	r23, 0x11	; 17
     d64:	71 71       	andi	r23, 0x11	; 17
     d66:	71 6a       	ori	r23, 0xA1	; 161
     d68:	6a 6a       	ori	r22, 0xAA	; 170
     d6a:	6a 6a       	ori	r22, 0xAA	; 170
     d6c:	6a 6a       	ori	r22, 0xAA	; 170
     d6e:	71 71       	andi	r23, 0x11	; 17
     d70:	71 78       	andi	r23, 0x81	; 129
     d72:	78 80       	ld	r7, Y
     d74:	80 87       	std	Z+8, r24	; 0x08
     d76:	87 87       	std	Z+15, r24	; 0x0f
     d78:	87 87       	std	Z+15, r24	; 0x0f
     d7a:	87 87       	std	Z+15, r24	; 0x0f
     d7c:	87 87       	std	Z+15, r24	; 0x0f
     d7e:	80 80       	ld	r8, Z
     d80:	80 78       	andi	r24, 0x80	; 128
     d82:	78 78       	andi	r23, 0x88	; 136
     d84:	78 78       	andi	r23, 0x88	; 136
     d86:	78 78       	andi	r23, 0x88	; 136
     d88:	78 71       	andi	r23, 0x18	; 24
     d8a:	71 71       	andi	r23, 0x11	; 17
     d8c:	71 71       	andi	r23, 0x11	; 17
     d8e:	71 71       	andi	r23, 0x11	; 17
     d90:	71 71       	andi	r23, 0x11	; 17
     d92:	71 71       	andi	r23, 0x11	; 17
     d94:	71 71       	andi	r23, 0x11	; 17
     d96:	78 78       	andi	r23, 0x88	; 136
     d98:	78 80       	ld	r7, Y
     d9a:	80 80       	ld	r8, Z
     d9c:	80 87       	std	Z+8, r24	; 0x08
     d9e:	87 87       	std	Z+15, r24	; 0x0f
     da0:	87 87       	std	Z+15, r24	; 0x0f
     da2:	87 80       	ldd	r8, Z+7	; 0x07
     da4:	80 80       	ld	r8, Z
     da6:	78 78       	andi	r23, 0x88	; 136
     da8:	78 78       	andi	r23, 0x88	; 136
     daa:	78 78       	andi	r23, 0x88	; 136
     dac:	78 78       	andi	r23, 0x88	; 136
     dae:	78 78       	andi	r23, 0x88	; 136
     db0:	78 78       	andi	r23, 0x88	; 136
     db2:	78 78       	andi	r23, 0x88	; 136
     db4:	78 78       	andi	r23, 0x88	; 136
     db6:	78 78       	andi	r23, 0x88	; 136
     db8:	78 78       	andi	r23, 0x88	; 136
     dba:	78 78       	andi	r23, 0x88	; 136
     dbc:	78 78       	andi	r23, 0x88	; 136
     dbe:	78 78       	andi	r23, 0x88	; 136
     dc0:	78 80       	ld	r7, Y
     dc2:	80 80       	ld	r8, Z
     dc4:	80 80       	ld	r8, Z
     dc6:	80 80       	ld	r8, Z
     dc8:	80 80       	ld	r8, Z
     dca:	80 80       	ld	r8, Z
     dcc:	80 80       	ld	r8, Z
     dce:	80 80       	ld	r8, Z
     dd0:	80 78       	andi	r24, 0x80	; 128
     dd2:	78 78       	andi	r23, 0x88	; 136
     dd4:	78 78       	andi	r23, 0x88	; 136
     dd6:	78 80       	ld	r7, Y
     dd8:	80 80       	ld	r8, Z
     dda:	80 80       	ld	r8, Z
     ddc:	80 80       	ld	r8, Z
     dde:	80 80       	ld	r8, Z
     de0:	80 78       	andi	r24, 0x80	; 128
     de2:	78 78       	andi	r23, 0x88	; 136
     de4:	78 78       	andi	r23, 0x88	; 136
     de6:	78 78       	andi	r23, 0x88	; 136
     de8:	78 78       	andi	r23, 0x88	; 136
     dea:	78 80       	ld	r7, Y
     dec:	80 80       	ld	r8, Z
     dee:	80 87       	std	Z+8, r24	; 0x08
     df0:	87 80       	ldd	r8, Z+7	; 0x07
     df2:	80 80       	ld	r8, Z
     df4:	80 80       	ld	r8, Z
     df6:	80 80       	ld	r8, Z
     df8:	80 80       	ld	r8, Z
     dfa:	80 80       	ld	r8, Z
     dfc:	80 80       	ld	r8, Z
     dfe:	80 80       	ld	r8, Z
     e00:	80 80       	ld	r8, Z
     e02:	80 80       	ld	r8, Z
     e04:	80 80       	ld	r8, Z
     e06:	80 80       	ld	r8, Z
     e08:	80 80       	ld	r8, Z
     e0a:	80 80       	ld	r8, Z
     e0c:	80 78       	andi	r24, 0x80	; 128
     e0e:	78 78       	andi	r23, 0x88	; 136
     e10:	78 78       	andi	r23, 0x88	; 136
     e12:	80 80       	ld	r8, Z
     e14:	80 80       	ld	r8, Z
     e16:	80 80       	ld	r8, Z
     e18:	80 80       	ld	r8, Z
     e1a:	80 87       	std	Z+8, r24	; 0x08
     e1c:	87 87       	std	Z+15, r24	; 0x0f
     e1e:	87 87       	std	Z+15, r24	; 0x0f
     e20:	87 87       	std	Z+15, r24	; 0x0f
     e22:	87 87       	std	Z+15, r24	; 0x0f
     e24:	80 80       	ld	r8, Z
     e26:	80 80       	ld	r8, Z
     e28:	80 80       	ld	r8, Z
     e2a:	80 80       	ld	r8, Z
     e2c:	80 80       	ld	r8, Z
     e2e:	80 80       	ld	r8, Z
     e30:	80 80       	ld	r8, Z
     e32:	80 80       	ld	r8, Z
     e34:	80 80       	ld	r8, Z
     e36:	80 80       	ld	r8, Z
     e38:	80 78       	andi	r24, 0x80	; 128
     e3a:	78 78       	andi	r23, 0x88	; 136
     e3c:	78 80       	ld	r7, Y
     e3e:	80 80       	ld	r8, Z
     e40:	80 87       	std	Z+8, r24	; 0x08
     e42:	87 87       	std	Z+15, r24	; 0x0f
     e44:	87 87       	std	Z+15, r24	; 0x0f
     e46:	87 87       	std	Z+15, r24	; 0x0f
     e48:	87 87       	std	Z+15, r24	; 0x0f
     e4a:	87 87       	std	Z+15, r24	; 0x0f
     e4c:	87 87       	std	Z+15, r24	; 0x0f
     e4e:	80 80       	ld	r8, Z
     e50:	80 80       	ld	r8, Z
     e52:	80 80       	ld	r8, Z
     e54:	80 80       	ld	r8, Z
     e56:	78 78       	andi	r23, 0x88	; 136
     e58:	80 80       	ld	r8, Z
     e5a:	80 80       	ld	r8, Z
     e5c:	80 80       	ld	r8, Z
     e5e:	78 78       	andi	r23, 0x88	; 136
     e60:	78 78       	andi	r23, 0x88	; 136
     e62:	78 80       	ld	r7, Y
     e64:	80 80       	ld	r8, Z
     e66:	80 80       	ld	r8, Z
     e68:	87 87       	std	Z+15, r24	; 0x0f
     e6a:	87 87       	std	Z+15, r24	; 0x0f
     e6c:	87 87       	std	Z+15, r24	; 0x0f
     e6e:	87 8e       	std	Z+31, r8	; 0x1f
     e70:	8e 8e       	std	Y+30, r8	; 0x1e
     e72:	8e 8e       	std	Y+30, r8	; 0x1e
     e74:	8e 87       	std	Y+14, r24	; 0x0e
     e76:	87 80       	ldd	r8, Z+7	; 0x07
     e78:	80 80       	ld	r8, Z
     e7a:	80 80       	ld	r8, Z
     e7c:	80 80       	ld	r8, Z
     e7e:	80 95       	com	r24
     e80:	78 78       	andi	r23, 0x88	; 136
     e82:	78 71       	andi	r23, 0x18	; 24
     e84:	80 71       	andi	r24, 0x10	; 16
     e86:	80 71       	andi	r24, 0x10	; 16
     e88:	78 80       	ld	r7, Y
     e8a:	78 80       	ld	r7, Y
     e8c:	80 80       	ld	r8, Z
     e8e:	80 80       	ld	r8, Z
     e90:	87 80       	ldd	r8, Z+7	; 0x07
     e92:	87 87       	std	Z+15, r24	; 0x0f
     e94:	87 87       	std	Z+15, r24	; 0x0f
     e96:	87 8e       	std	Z+31, r8	; 0x1f
     e98:	8e 87       	std	Y+14, r24	; 0x0e
     e9a:	87 87       	std	Z+15, r24	; 0x0f
     e9c:	80 87       	std	Z+8, r24	; 0x08
     e9e:	87 80       	ldd	r8, Z+7	; 0x07
     ea0:	80 78       	andi	r24, 0x80	; 128
     ea2:	80 80       	ld	r8, Z
     ea4:	78 80       	ld	r7, Y
     ea6:	78 78       	andi	r23, 0x88	; 136
     ea8:	78 78       	andi	r23, 0x88	; 136
     eaa:	71 78       	andi	r23, 0x81	; 129
     eac:	78 78       	andi	r23, 0x88	; 136
     eae:	78 78       	andi	r23, 0x88	; 136
     eb0:	78 87       	std	Y+8, r23	; 0x08
     eb2:	78 80       	ld	r7, Y
     eb4:	80 80       	ld	r8, Z
     eb6:	87 80       	ldd	r8, Z+7	; 0x07
     eb8:	87 87       	std	Z+15, r24	; 0x0f
     eba:	80 8e       	std	Z+24, r8	; 0x18
     ebc:	8e 80       	ldd	r8, Y+6	; 0x06
     ebe:	80 87       	std	Z+8, r24	; 0x08
     ec0:	80 80       	ld	r8, Z
     ec2:	87 80       	ldd	r8, Z+7	; 0x07
     ec4:	78 80       	ld	r7, Y
     ec6:	78 78       	andi	r23, 0x88	; 136
     ec8:	78 78       	andi	r23, 0x88	; 136
     eca:	78 71       	andi	r23, 0x18	; 24
     ecc:	78 6a       	ori	r23, 0xA8	; 168
     ece:	78 78       	andi	r23, 0x88	; 136
     ed0:	78 71       	andi	r23, 0x18	; 24
     ed2:	78 80       	ld	r7, Y
     ed4:	71 80       	ldd	r7, Z+1	; 0x01
     ed6:	78 78       	andi	r23, 0x88	; 136
     ed8:	80 78       	andi	r24, 0x80	; 128
     eda:	87 78       	andi	r24, 0x87	; 135
     edc:	87 80       	ldd	r8, Z+7	; 0x07
     ede:	80 80       	ld	r8, Z
     ee0:	80 78       	andi	r24, 0x80	; 128
     ee2:	80 80       	ld	r8, Z
     ee4:	78 80       	ld	r7, Y
     ee6:	80 78       	andi	r24, 0x80	; 128
     ee8:	78 78       	andi	r23, 0x88	; 136
     eea:	71 80       	ldd	r7, Z+1	; 0x01
     eec:	71 80       	ldd	r7, Z+1	; 0x01
     eee:	78 71       	andi	r23, 0x18	; 24
     ef0:	80 78       	andi	r24, 0x80	; 128
     ef2:	80 78       	andi	r24, 0x80	; 128
     ef4:	78 80       	ld	r7, Y
     ef6:	71 87       	std	Z+9, r23	; 0x09
     ef8:	78 80       	ld	r7, Y
     efa:	78 87       	std	Y+8, r23	; 0x08
     efc:	78 80       	ld	r7, Y
     efe:	87 78       	andi	r24, 0x87	; 135
     f00:	80 87       	std	Z+8, r24	; 0x08
     f02:	78 78       	andi	r23, 0x88	; 136
     f04:	78 80       	ld	r7, Y
     f06:	80 71       	andi	r24, 0x10	; 16
     f08:	8e 78       	andi	r24, 0x8E	; 142
     f0a:	78 80       	ld	r7, Y
     f0c:	78 78       	andi	r23, 0x88	; 136
     f0e:	71 80       	ldd	r7, Z+1	; 0x01
     f10:	78 80       	ld	r7, Y
     f12:	71 80       	ldd	r7, Z+1	; 0x01
     f14:	80 71       	andi	r24, 0x10	; 16
     f16:	87 71       	andi	r24, 0x17	; 23
     f18:	87 87       	std	Z+15, r24	; 0x0f
     f1a:	6a 95       	dec	r22
     f1c:	6a 78       	andi	r22, 0x8A	; 138
     f1e:	8e 71       	andi	r24, 0x1E	; 30
     f20:	80 78       	andi	r24, 0x80	; 128
     f22:	78 80       	ld	r7, Y
     f24:	71 78       	andi	r23, 0x81	; 129
     f26:	80 6a       	ori	r24, 0xA0	; 160
     f28:	80 71       	andi	r24, 0x10	; 16
     f2a:	78 78       	andi	r23, 0x88	; 136
     f2c:	78 78       	andi	r23, 0x88	; 136
     f2e:	80 71       	andi	r24, 0x10	; 16
     f30:	78 78       	andi	r23, 0x88	; 136
     f32:	6a 8e       	std	Y+26, r6	; 0x1a
     f34:	6a 80       	ldd	r6, Y+2	; 0x02
     f36:	80 78       	andi	r24, 0x80	; 128
     f38:	6a 8e       	std	Y+26, r6	; 0x1a
     f3a:	63 87       	std	Z+11, r22	; 0x0b
     f3c:	71 78       	andi	r23, 0x81	; 129
     f3e:	80 80       	ld	r8, Z
     f40:	71 87       	std	Z+9, r23	; 0x09
     f42:	80 78       	andi	r24, 0x80	; 128
     f44:	87 6a       	ori	r24, 0xA7	; 167
     f46:	87 71       	andi	r24, 0x17	; 23
     f48:	78 78       	andi	r23, 0x88	; 136
     f4a:	71 80       	ldd	r7, Z+1	; 0x01
     f4c:	71 71       	andi	r23, 0x11	; 17
     f4e:	87 6a       	ori	r24, 0xA7	; 167
     f50:	78 80       	ld	r7, Y
     f52:	6a 80       	ldd	r6, Y+2	; 0x02
     f54:	71 71       	andi	r23, 0x11	; 17
     f56:	8e 63       	ori	r24, 0x3E	; 62
     f58:	78 87       	std	Y+8, r23	; 0x08
     f5a:	71 6a       	ori	r23, 0xA1	; 161
     f5c:	8e 5c       	subi	r24, 0xCE	; 206
     f5e:	95 71       	andi	r25, 0x15	; 21
     f60:	6a 9c       	mul	r6, r10
     f62:	63 6a       	ori	r22, 0xA3	; 163
     f64:	8e 71       	andi	r24, 0x1E	; 30
     f66:	80 71       	andi	r24, 0x10	; 16
     f68:	80 87       	std	Z+8, r24	; 0x08
     f6a:	55 8e       	std	Z+29, r5	; 0x1d
     f6c:	63 80       	ldd	r6, Z+3	; 0x03
     f6e:	6a 80       	ldd	r6, Y+2	; 0x02
     f70:	71 80       	ldd	r7, Z+1	; 0x01
     f72:	71 78       	andi	r23, 0x81	; 129
     f74:	87 63       	ori	r24, 0x37	; 55
     f76:	87 71       	andi	r24, 0x17	; 23
     f78:	71 80       	ldd	r7, Z+1	; 0x01
     f7a:	80 71       	andi	r24, 0x10	; 16
     f7c:	80 6a       	ori	r24, 0xA0	; 160
     f7e:	95 55       	subi	r25, 0x55	; 85
     f80:	87 6a       	ori	r24, 0xA7	; 167
     f82:	78 63       	ori	r23, 0x38	; 56
     f84:	80 78       	andi	r24, 0x80	; 128
     f86:	6a 71       	andi	r22, 0x1A	; 26
     f88:	8e 5c       	subi	r24, 0xCE	; 206
     f8a:	80 71       	andi	r24, 0x10	; 16
     f8c:	6a 80       	ldd	r6, Y+2	; 0x02
     f8e:	6a 78       	andi	r22, 0x8A	; 138
     f90:	78 6a       	ori	r23, 0xA8	; 168
     f92:	71 87       	std	Z+9, r23	; 0x09
     f94:	6a 71       	andi	r22, 0x1A	; 26
     f96:	87 63       	ori	r24, 0x37	; 55
     f98:	95 4e       	sbci	r25, 0xE5	; 229
     f9a:	9c 80       	ldd	r9, Y+4	; 0x04
     f9c:	63 95       	inc	r22
     f9e:	63 87       	std	Z+11, r22	; 0x0b
     fa0:	6a 80       	ldd	r6, Y+2	; 0x02
     fa2:	71 80       	ldd	r7, Z+1	; 0x01
     fa4:	6a 78       	andi	r22, 0x8A	; 138
     fa6:	6a 8e       	std	Y+26, r6	; 0x1a
     fa8:	55 8e       	std	Z+29, r5	; 0x1d
     faa:	63 80       	ldd	r6, Z+3	; 0x03
     fac:	5c a3       	std	Y+36, r21	; 0x24
     fae:	47 95       	ror	r20
     fb0:	5c 80       	ldd	r5, Y+4	; 0x04
     fb2:	6a 80       	ldd	r6, Y+2	; 0x02
     fb4:	63 95       	inc	r22
     fb6:	47 95       	ror	r20
     fb8:	5c 6a       	ori	r21, 0xAC	; 172
     fba:	80 63       	ori	r24, 0x30	; 48
     fbc:	80 78       	andi	r24, 0x80	; 128
     fbe:	6a 8e       	std	Y+26, r6	; 0x1a
     fc0:	80 6a       	ori	r24, 0xA0	; 160
     fc2:	8e 71       	andi	r24, 0x1E	; 30
     fc4:	78 6a       	ori	r23, 0xA8	; 168
     fc6:	8e 5c       	subi	r24, 0xCE	; 206
     fc8:	87 5c       	subi	r24, 0xC7	; 199
     fca:	8e 63       	ori	r24, 0x3E	; 62
     fcc:	63 87       	std	Z+11, r22	; 0x0b
     fce:	71 71       	andi	r23, 0x11	; 17
     fd0:	78 78       	andi	r23, 0x88	; 136
     fd2:	63 87       	std	Z+11, r22	; 0x0b
     fd4:	63 80       	ldd	r6, Z+3	; 0x03
     fd6:	80 6a       	ori	r24, 0xA0	; 160
     fd8:	80 78       	andi	r24, 0x80	; 128
     fda:	71 78       	andi	r23, 0x81	; 129
     fdc:	80 6a       	ori	r24, 0xA0	; 160
     fde:	80 6a       	ori	r24, 0xA0	; 160
     fe0:	87 71       	andi	r24, 0x17	; 23
     fe2:	78 87       	std	Y+8, r23	; 0x08
     fe4:	78 80       	ld	r7, Y
     fe6:	87 5c       	subi	r24, 0xC7	; 199
     fe8:	95 6a       	ori	r25, 0xA5	; 165
     fea:	80 6a       	ori	r24, 0xA0	; 160
     fec:	80 63       	ori	r24, 0x30	; 48
     fee:	8e 4e       	sbci	r24, 0xEE	; 238
     ff0:	95 63       	ori	r25, 0x35	; 53
     ff2:	80 6a       	ori	r24, 0xA0	; 160
     ff4:	80 6a       	ori	r24, 0xA0	; 160
     ff6:	8e 63       	ori	r24, 0x3E	; 62
     ff8:	8e 78       	andi	r24, 0x8E	; 142
     ffa:	6a 80       	ldd	r6, Y+2	; 0x02
     ffc:	6a 78       	andi	r22, 0x8A	; 138
     ffe:	6a 71       	andi	r22, 0x1A	; 26
    1000:	71 80       	ldd	r7, Z+1	; 0x01
    1002:	5c 95 63 87 	jmp	0x550ec6	; 0x550ec6 <__TEXT_REGION_LENGTH__+0x548ec6>
    1006:	71 87       	std	Z+9, r23	; 0x09
    1008:	80 80       	ld	r8, Z
    100a:	71 95       	neg	r23
    100c:	6a 78       	andi	r22, 0x8A	; 138
    100e:	87 6a       	ori	r24, 0xA7	; 167
    1010:	71 71       	andi	r23, 0x11	; 17
    1012:	71 87       	std	Z+9, r23	; 0x09
    1014:	6a 6a       	ori	r22, 0xAA	; 170
    1016:	95 6a       	ori	r25, 0xA5	; 165
    1018:	6a 80       	ldd	r6, Y+2	; 0x02
    101a:	71 78       	andi	r23, 0x81	; 129
    101c:	6a 78       	andi	r22, 0x8A	; 138
    101e:	78 63       	ori	r23, 0x38	; 56
    1020:	6a 80       	ldd	r6, Y+2	; 0x02
    1022:	71 71       	andi	r23, 0x11	; 17
    1024:	71 80       	ldd	r7, Z+1	; 0x01
    1026:	80 63       	ori	r24, 0x30	; 48
    1028:	78 87       	std	Y+8, r23	; 0x08
    102a:	63 80       	ldd	r6, Z+3	; 0x03
    102c:	78 78       	andi	r23, 0x88	; 136
    102e:	78 71       	andi	r23, 0x18	; 24
    1030:	71 87       	std	Z+9, r23	; 0x09
    1032:	63 6a       	ori	r22, 0xA3	; 163
    1034:	80 71       	andi	r24, 0x10	; 16
    1036:	6a 80       	ldd	r6, Y+2	; 0x02
    1038:	78 80       	ld	r7, Y
    103a:	71 80       	ldd	r7, Z+1	; 0x01
    103c:	80 78       	andi	r24, 0x80	; 128
    103e:	71 87       	std	Z+9, r23	; 0x09
    1040:	80 6a       	ori	r24, 0xA0	; 160
    1042:	87 80       	ldd	r8, Z+7	; 0x07
    1044:	71 71       	andi	r23, 0x11	; 17
    1046:	71 71       	andi	r23, 0x11	; 17
    1048:	71 5c       	subi	r23, 0xC1	; 193
    104a:	71 71       	andi	r23, 0x11	; 17
    104c:	5c 6a       	ori	r21, 0xAC	; 172
    104e:	78 63       	ori	r23, 0x38	; 56
    1050:	6a 6a       	ori	r22, 0xAA	; 170
    1052:	71 78       	andi	r23, 0x81	; 129
    1054:	6a 78       	andi	r22, 0x8A	; 138
    1056:	78 71       	andi	r23, 0x18	; 24
    1058:	78 87       	std	Y+8, r23	; 0x08
    105a:	80 80       	ld	r8, Z
    105c:	80 87       	std	Z+8, r24	; 0x08
    105e:	87 80       	ldd	r8, Z+7	; 0x07
    1060:	95 87       	std	Z+13, r25	; 0x0d
    1062:	8e 95 87 8e 	call	0x611d0e	; 0x611d0e <__TEXT_REGION_LENGTH__+0x609d0e>
    1066:	80 71       	andi	r24, 0x10	; 16
    1068:	78 6a       	ori	r23, 0xA8	; 168
    106a:	5c 6a       	ori	r21, 0xAC	; 172
    106c:	55 55       	subi	r21, 0x55	; 85
    106e:	55 47       	sbci	r21, 0x75	; 117
    1070:	55 63       	ori	r21, 0x35	; 53
    1072:	5c 6a       	ori	r21, 0xAC	; 172
    1074:	78 78       	andi	r23, 0x88	; 136
    1076:	87 80       	ldd	r8, Z+7	; 0x07
    1078:	87 87       	std	Z+15, r24	; 0x0f
    107a:	87 80       	ldd	r8, Z+7	; 0x07
    107c:	80 78       	andi	r24, 0x80	; 128
    107e:	71 80       	ldd	r7, Z+1	; 0x01
    1080:	78 80       	ld	r7, Y
    1082:	87 87       	std	Z+15, r24	; 0x0f
    1084:	95 95       	asr	r25
    1086:	95 a3       	std	Z+37, r25	; 0x25
    1088:	95 95       	asr	r25
    108a:	95 87       	std	Z+13, r25	; 0x0d
    108c:	78 71       	andi	r23, 0x18	; 24
    108e:	63 63       	ori	r22, 0x33	; 51
    1090:	5c 5c       	subi	r21, 0xCC	; 204
    1092:	5c 55       	subi	r21, 0x5C	; 92
    1094:	55 55       	subi	r21, 0x55	; 85
    1096:	6a 78       	andi	r22, 0x8A	; 138
    1098:	71 80       	ldd	r7, Z+1	; 0x01
    109a:	87 87       	std	Z+15, r24	; 0x0f
    109c:	87 80       	ldd	r8, Z+7	; 0x07
    109e:	87 80       	ldd	r8, Z+7	; 0x07
    10a0:	71 78       	andi	r23, 0x81	; 129
    10a2:	78 6a       	ori	r23, 0xA8	; 168
    10a4:	71 71       	andi	r23, 0x11	; 17
    10a6:	80 87       	std	Z+8, r24	; 0x08
    10a8:	8e 95 a3 9c 	call	0x613946	; 0x613946 <__TEXT_REGION_LENGTH__+0x60b946>
    10ac:	a3 a3       	std	Z+35, r26	; 0x23
    10ae:	a3 a3       	std	Z+35, r26	; 0x23
    10b0:	95 95       	asr	r25
    10b2:	95 78       	andi	r25, 0x85	; 133
    10b4:	71 6a       	ori	r23, 0xA1	; 161
    10b6:	6a 71       	andi	r22, 0x1A	; 26
    10b8:	6a 6a       	ori	r22, 0xAA	; 170
    10ba:	78 6a       	ori	r23, 0xA8	; 168
    10bc:	5c 71       	andi	r21, 0x1C	; 28
    10be:	80 78       	andi	r24, 0x80	; 128
    10c0:	78 87       	std	Y+8, r23	; 0x08
    10c2:	8e 80       	ldd	r8, Y+6	; 0x06
    10c4:	80 80       	ld	r8, Z
    10c6:	80 71       	andi	r24, 0x10	; 16
    10c8:	6a 63       	ori	r22, 0x3A	; 58
    10ca:	6a 5c       	subi	r22, 0xCA	; 202
    10cc:	6a 80       	ldd	r6, Y+2	; 0x02
    10ce:	80 95       	com	r24
    10d0:	a3 a3       	std	Z+35, r26	; 0x23
    10d2:	b1 b8       	out	0x01, r11	; 1
    10d4:	aa b1       	in	r26, 0x0a	; 10
    10d6:	aa a3       	std	Y+34, r26	; 0x22
    10d8:	9c 95 8e 87 	jmp	0x650f1c	; 0x650f1c <__TEXT_REGION_LENGTH__+0x648f1c>
    10dc:	71 71       	andi	r23, 0x11	; 17
    10de:	78 78       	andi	r23, 0x88	; 136
    10e0:	71 6a       	ori	r23, 0xA1	; 161
    10e2:	71 71       	andi	r23, 0x11	; 17
    10e4:	63 6a       	ori	r22, 0xA3	; 163
    10e6:	87 87       	std	Z+15, r24	; 0x0f
    10e8:	80 8e       	std	Z+24, r8	; 0x18
    10ea:	8e 87       	std	Y+14, r24	; 0x0e
    10ec:	78 71       	andi	r23, 0x18	; 24
    10ee:	71 63       	ori	r23, 0x31	; 49
    10f0:	55 5c       	subi	r21, 0xC5	; 197
    10f2:	63 6a       	ori	r22, 0xA3	; 163
    10f4:	78 87       	std	Y+8, r23	; 0x08
    10f6:	9c b1       	in	r25, 0x0c	; 12
    10f8:	aa b8       	out	0x0a, r10	; 10
    10fa:	bf b8       	out	0x0f, r11	; 15
    10fc:	aa b1       	in	r26, 0x0a	; 10
    10fe:	aa 95       	dec	r26
    1100:	95 95       	asr	r25
    1102:	8e 80       	ldd	r8, Y+6	; 0x06
    1104:	78 78       	andi	r23, 0x88	; 136
    1106:	71 78       	andi	r23, 0x81	; 129
    1108:	78 6a       	ori	r23, 0xA8	; 168
    110a:	71 6a       	ori	r23, 0xA1	; 161
    110c:	5c 6a       	ori	r21, 0xAC	; 172
    110e:	80 71       	andi	r24, 0x10	; 16
    1110:	71 87       	std	Z+9, r23	; 0x09
    1112:	87 71       	andi	r24, 0x17	; 23
    1114:	71 71       	andi	r23, 0x11	; 17
    1116:	63 5c       	subi	r22, 0xC3	; 195
    1118:	55 5c       	subi	r21, 0xC5	; 197
    111a:	6a 80       	ldd	r6, Y+2	; 0x02
    111c:	87 a3       	std	Z+39, r24	; 0x27
    111e:	b1 aa       	std	Z+49, r11	; 0x31
    1120:	b8 b1       	in	r27, 0x08	; 8
    1122:	aa a3       	std	Y+34, r26	; 0x22
    1124:	9c 95 95 95 	jmp	0x652b2a	; 0x652b2a <__TEXT_REGION_LENGTH__+0x64ab2a>
    1128:	95 95       	asr	r25
    112a:	8e 87       	std	Y+14, r24	; 0x0e
    112c:	80 78       	andi	r24, 0x80	; 128
    112e:	71 71       	andi	r23, 0x11	; 17
    1130:	78 71       	andi	r23, 0x18	; 24
    1132:	63 63       	ori	r22, 0x33	; 51
    1134:	55 63       	ori	r21, 0x35	; 53
    1136:	80 78       	andi	r24, 0x80	; 128
    1138:	6a 80       	ldd	r6, Y+2	; 0x02
    113a:	80 71       	andi	r24, 0x10	; 16
    113c:	71 63       	ori	r23, 0x31	; 49
    113e:	63 63       	ori	r22, 0x33	; 51
    1140:	55 63       	ori	r21, 0x35	; 53
    1142:	80 87       	std	Z+8, r24	; 0x08
    1144:	95 b1       	in	r25, 0x05	; 5
    1146:	aa aa       	std	Y+50, r10	; 0x32
    1148:	aa 9c       	mul	r10, r10
    114a:	a3 9c       	mul	r10, r3
    114c:	95 9c       	mul	r9, r5
    114e:	a3 aa       	std	Z+51, r10	; 0x33
    1150:	aa a3       	std	Y+34, r26	; 0x22
    1152:	a3 95       	inc	r26
    1154:	80 78       	andi	r24, 0x80	; 128
    1156:	6a 63       	ori	r22, 0x3A	; 58
    1158:	71 78       	andi	r23, 0x81	; 129
    115a:	63 5c       	subi	r22, 0xC3	; 195
    115c:	5c 63       	ori	r21, 0x3C	; 60
    115e:	80 71       	andi	r24, 0x10	; 16
    1160:	71 80       	ldd	r7, Z+1	; 0x01
    1162:	78 6a       	ori	r23, 0xA8	; 168
    1164:	63 5c       	subi	r22, 0xC3	; 195
    1166:	55 55       	subi	r21, 0x55	; 85
    1168:	55 71       	andi	r21, 0x15	; 21
    116a:	80 87       	std	Z+8, r24	; 0x08
    116c:	95 a3       	std	Z+37, r25	; 0x25
    116e:	a3 a3       	std	Z+35, r26	; 0x23
    1170:	9c 9c       	mul	r9, r12
    1172:	a3 a3       	std	Z+35, r26	; 0x23
    1174:	a3 aa       	std	Z+51, r10	; 0x33
    1176:	a3 aa       	std	Z+51, r10	; 0x33
    1178:	b1 aa       	std	Z+49, r11	; 0x31
    117a:	9c 87       	std	Y+12, r25	; 0x0c
    117c:	80 78       	andi	r24, 0x80	; 128
    117e:	71 63       	ori	r23, 0x31	; 49
    1180:	71 87       	std	Z+9, r23	; 0x09
    1182:	71 63       	ori	r23, 0x31	; 49
    1184:	63 63       	ori	r22, 0x33	; 51
    1186:	78 78       	andi	r23, 0x88	; 136
    1188:	6a 78       	andi	r22, 0x8A	; 138
    118a:	71 63       	ori	r23, 0x31	; 49
    118c:	55 47       	sbci	r21, 0x75	; 117
    118e:	47 4e       	sbci	r20, 0xE7	; 231
    1190:	63 78       	andi	r22, 0x83	; 131
    1192:	78 87       	std	Y+8, r23	; 0x08
    1194:	9c 9c       	mul	r9, r12
    1196:	95 95       	asr	r25
    1198:	8e 8e       	std	Y+30, r8	; 0x1e
    119a:	95 9c       	mul	r9, r5
    119c:	a3 b1       	in	r26, 0x03	; 3
    119e:	aa aa       	std	Y+50, r10	; 0x32
    11a0:	b1 aa       	std	Z+49, r11	; 0x31
    11a2:	9c 87       	std	Y+12, r25	; 0x0c
    11a4:	80 80       	ld	r8, Z
    11a6:	78 71       	andi	r23, 0x18	; 24
    11a8:	71 78       	andi	r23, 0x81	; 129
    11aa:	80 63       	ori	r24, 0x30	; 48
    11ac:	4e 4e       	sbci	r20, 0xEE	; 238
    11ae:	55 71       	andi	r21, 0x15	; 21
    11b0:	71 6a       	ori	r23, 0xA1	; 161
    11b2:	6a 6a       	ori	r22, 0xAA	; 170
    11b4:	63 4e       	sbci	r22, 0xE3	; 227
    11b6:	47 4e       	sbci	r20, 0xE7	; 231
    11b8:	63 78       	andi	r22, 0x83	; 131
    11ba:	78 87       	std	Y+8, r23	; 0x08
    11bc:	8e 95 8e 87 	call	0x610f1c	; 0x610f1c <__TEXT_REGION_LENGTH__+0x608f1c>
    11c0:	80 87       	std	Z+8, r24	; 0x08
    11c2:	8e 8e       	std	Y+30, r8	; 0x1e
    11c4:	a3 b8       	out	0x03, r10	; 3
    11c6:	b8 aa       	std	Y+48, r11	; 0x30
    11c8:	aa b1       	in	r26, 0x0a	; 10
    11ca:	9c 95 87 80 	jmp	0x65010e	; 0x65010e <__TEXT_REGION_LENGTH__+0x64810e>
    11ce:	87 80       	ldd	r8, Z+7	; 0x07
    11d0:	6a 6a       	ori	r22, 0xAA	; 170
    11d2:	6a 6a       	ori	r22, 0xAA	; 170
    11d4:	4e 40       	sbci	r20, 0x0E	; 14
    11d6:	4e 6a       	ori	r20, 0xAE	; 174
    11d8:	80 71       	andi	r24, 0x10	; 16
    11da:	6a 63       	ori	r22, 0x3A	; 58
    11dc:	5c 4e       	sbci	r21, 0xEC	; 236
    11de:	39 39       	cpi	r19, 0x99	; 153
    11e0:	5c 80       	ldd	r5, Y+4	; 0x04
    11e2:	80 87       	std	Z+8, r24	; 0x08
    11e4:	87 8e       	std	Z+31, r8	; 0x1f
    11e6:	87 80       	ldd	r8, Z+7	; 0x07
    11e8:	78 87       	std	Y+8, r23	; 0x08
    11ea:	8e 9c       	mul	r8, r14
    11ec:	aa bf       	out	0x3a, r26	; 58
    11ee:	c6 bf       	out	0x36, r28	; 54
    11f0:	b8 a3       	std	Y+32, r27	; 0x20
    11f2:	95 95       	asr	r25
    11f4:	8e 80       	ldd	r8, Y+6	; 0x06
    11f6:	87 8e       	std	Z+31, r8	; 0x1f
    11f8:	80 71       	andi	r24, 0x10	; 16
    11fa:	63 55       	subi	r22, 0x53	; 83
    11fc:	55 55       	subi	r21, 0x55	; 85
    11fe:	47 55       	subi	r20, 0x57	; 87
    1200:	71 80       	ldd	r7, Z+1	; 0x01
    1202:	71 55       	subi	r23, 0x51	; 81
    1204:	4e 47       	sbci	r20, 0x7E	; 126
    1206:	40 39       	cpi	r20, 0x90	; 144
    1208:	55 71       	andi	r21, 0x15	; 21
    120a:	87 87       	std	Z+15, r24	; 0x0f
    120c:	80 87       	std	Z+8, r24	; 0x08
    120e:	87 80       	ldd	r8, Z+7	; 0x07
    1210:	78 78       	andi	r23, 0x88	; 136
    1212:	8e a3       	std	Y+38, r24	; 0x26
    1214:	b8 b8       	out	0x08, r11	; 8
    1216:	bf b1       	in	r27, 0x0f	; 15
    1218:	a3 9c       	mul	r10, r3
    121a:	8e 8e       	std	Y+30, r8	; 0x1e
    121c:	8e 8e       	std	Y+30, r8	; 0x1e
    121e:	95 9c       	mul	r9, r5
    1220:	95 87       	std	Z+13, r25	; 0x0d
    1222:	6a 55       	subi	r22, 0x5A	; 90
    1224:	47 47       	sbci	r20, 0x77	; 119
    1226:	4e 4e       	sbci	r20, 0xEE	; 238
    1228:	63 78       	andi	r22, 0x83	; 131
    122a:	71 55       	subi	r23, 0x51	; 81
    122c:	47 39       	cpi	r20, 0x97	; 151
    122e:	39 40       	sbci	r19, 0x09	; 9
    1230:	55 6a       	ori	r21, 0xA5	; 165
    1232:	80 8e       	std	Z+24, r8	; 0x18
    1234:	8e 87       	std	Y+14, r24	; 0x0e
    1236:	80 78       	andi	r24, 0x80	; 128
    1238:	71 78       	andi	r23, 0x81	; 129
    123a:	87 9c       	mul	r8, r7
    123c:	aa b8       	out	0x0a, r10	; 10
    123e:	b8 b1       	in	r27, 0x08	; 8
    1240:	a3 9c       	mul	r10, r3
    1242:	95 95       	asr	r25
    1244:	8e 95 9c a3 	call	0x614738	; 0x614738 <__TEXT_REGION_LENGTH__+0x60c738>
    1248:	9c 87       	std	Y+12, r25	; 0x0c
    124a:	71 55       	subi	r23, 0x51	; 81
    124c:	4e 39       	cpi	r20, 0x9E	; 158
    124e:	39 4e       	sbci	r19, 0xE9	; 233
    1250:	55 71       	andi	r21, 0x15	; 21
    1252:	78 63       	ori	r23, 0x38	; 56
    1254:	4e 40       	sbci	r20, 0x0E	; 14
    1256:	39 40       	sbci	r19, 0x09	; 9
    1258:	5c 6a       	ori	r21, 0xAC	; 172
    125a:	78 87       	std	Y+8, r23	; 0x08
    125c:	80 80       	ld	r8, Z
    125e:	80 78       	andi	r24, 0x80	; 128
    1260:	71 80       	ldd	r7, Z+1	; 0x01
    1262:	87 95       	ror	r24
    1264:	a3 aa       	std	Z+51, r10	; 0x33
    1266:	b8 bf       	out	0x38, r27	; 56
    1268:	b8 aa       	std	Y+48, r11	; 0x30
    126a:	9c 95 9c 9c 	jmp	0x653938	; 0x653938 <__TEXT_REGION_LENGTH__+0x64b938>
    126e:	9c 9c       	mul	r9, r12
    1270:	95 8e       	std	Z+29, r9	; 0x1d
    1272:	80 71       	andi	r24, 0x10	; 16
    1274:	4e 39       	cpi	r20, 0x9E	; 158
    1276:	32 40       	sbci	r19, 0x02	; 2
    1278:	55 63       	ori	r21, 0x35	; 53
    127a:	71 71       	andi	r23, 0x11	; 17
    127c:	63 55       	subi	r22, 0x53	; 83
    127e:	40 47       	sbci	r20, 0x70	; 112
    1280:	55 71       	andi	r21, 0x15	; 21
    1282:	71 6a       	ori	r23, 0xA1	; 161
    1284:	71 78       	andi	r23, 0x81	; 129
    1286:	80 80       	ld	r8, Z
    1288:	78 78       	andi	r23, 0x88	; 136
    128a:	87 95       	ror	r24
    128c:	9c aa       	std	Y+52, r9	; 0x34
    128e:	b1 b8       	out	0x01, r11	; 1
    1290:	b8 b1       	in	r27, 0x08	; 8
    1292:	a3 a3       	std	Z+35, r26	; 0x23
    1294:	a3 a3       	std	Z+35, r26	; 0x23
    1296:	a3 9c       	mul	r10, r3
    1298:	95 9c       	mul	r9, r5
    129a:	95 80       	ldd	r9, Z+5	; 0x05
    129c:	6a 4e       	sbci	r22, 0xEA	; 234
    129e:	39 39       	cpi	r19, 0x99	; 153
    12a0:	39 47       	sbci	r19, 0x79	; 121
    12a2:	5c 6a       	ori	r21, 0xAC	; 172
    12a4:	63 55       	subi	r22, 0x53	; 83
    12a6:	4e 40       	sbci	r20, 0x0E	; 14
    12a8:	4e 5c       	subi	r20, 0xCE	; 206
    12aa:	63 6a       	ori	r22, 0xA3	; 163
    12ac:	63 6a       	ori	r22, 0xA3	; 163
    12ae:	80 87       	std	Z+8, r24	; 0x08
    12b0:	87 80       	ldd	r8, Z+7	; 0x07
    12b2:	87 8e       	std	Z+31, r8	; 0x1f
    12b4:	9c a3       	std	Y+36, r25	; 0x24
    12b6:	aa b1       	in	r26, 0x0a	; 10
    12b8:	b8 b8       	out	0x08, r11	; 8
    12ba:	aa b1       	in	r26, 0x0a	; 10
    12bc:	b1 aa       	std	Z+49, r11	; 0x31
    12be:	aa a3       	std	Y+34, r26	; 0x22
    12c0:	95 95       	asr	r25
    12c2:	95 8e       	std	Z+29, r9	; 0x1d
    12c4:	78 5c       	subi	r23, 0xC8	; 200
    12c6:	47 40       	sbci	r20, 0x07	; 7
    12c8:	39 32       	cpi	r19, 0x29	; 41
    12ca:	40 55       	subi	r20, 0x50	; 80
    12cc:	63 63       	ori	r22, 0x33	; 51
    12ce:	55 39       	cpi	r21, 0x95	; 149
    12d0:	39 4e       	sbci	r19, 0xE9	; 233
    12d2:	5c 5c       	subi	r21, 0xCC	; 204
    12d4:	5c 5c       	subi	r21, 0xCC	; 204
    12d6:	6a 80       	ldd	r6, Y+2	; 0x02
    12d8:	80 87       	std	Z+8, r24	; 0x08
    12da:	87 87       	std	Z+15, r24	; 0x0f
    12dc:	95 9c       	mul	r9, r5
    12de:	a3 a3       	std	Z+35, r26	; 0x23
    12e0:	b1 b8       	out	0x01, r11	; 1
    12e2:	b8 b8       	out	0x08, r11	; 8
    12e4:	b1 aa       	std	Z+49, r11	; 0x31
    12e6:	aa a3       	std	Y+34, r26	; 0x22
    12e8:	95 95       	asr	r25
    12ea:	8e 8e       	std	Y+30, r8	; 0x1e
    12ec:	87 78       	andi	r24, 0x87	; 135
    12ee:	63 55       	subi	r22, 0x53	; 83
    12f0:	4e 40       	sbci	r20, 0x0E	; 14
    12f2:	39 32       	cpi	r19, 0x29	; 41
    12f4:	47 55       	subi	r20, 0x57	; 87
    12f6:	5c 55       	subi	r21, 0x5C	; 92
    12f8:	47 4e       	sbci	r20, 0xE7	; 231
    12fa:	55 5c       	subi	r21, 0xC5	; 197
    12fc:	5c 55       	subi	r21, 0x5C	; 92
    12fe:	5c 6a       	ori	r21, 0xAC	; 172
    1300:	87 8e       	std	Z+31, r8	; 0x1f
    1302:	95 95       	asr	r25
    1304:	95 9c       	mul	r9, r5
    1306:	a3 a3       	std	Z+35, r26	; 0x23
    1308:	aa b1       	in	r26, 0x0a	; 10
    130a:	b8 b8       	out	0x08, r11	; 8
    130c:	b8 b8       	out	0x08, r11	; 8
    130e:	b1 b1       	in	r27, 0x01	; 1
    1310:	a3 9c       	mul	r10, r3
    1312:	95 8e       	std	Z+29, r9	; 0x1d
    1314:	95 8e       	std	Z+29, r9	; 0x1d
    1316:	80 71       	andi	r24, 0x10	; 16
    1318:	5c 55       	subi	r21, 0x5C	; 92
    131a:	47 39       	cpi	r20, 0x97	; 151
    131c:	32 39       	cpi	r19, 0x92	; 146
    131e:	47 4e       	sbci	r20, 0xE7	; 231
    1320:	4e 4e       	sbci	r20, 0xEE	; 238
    1322:	4e 5c       	subi	r20, 0xCE	; 206
    1324:	5c 5c       	subi	r21, 0xCC	; 204
    1326:	5c 63       	ori	r21, 0x3C	; 60
    1328:	6a 80       	ldd	r6, Y+2	; 0x02
    132a:	8e 95 9c 9c 	call	0x613938	; 0x613938 <__TEXT_REGION_LENGTH__+0x60b938>
    132e:	9c 9c       	mul	r9, r12
    1330:	a3 aa       	std	Z+51, r10	; 0x33
    1332:	b1 b8       	out	0x01, r11	; 1
    1334:	b8 b8       	out	0x08, r11	; 8
    1336:	b8 b1       	in	r27, 0x08	; 8
    1338:	b1 aa       	std	Z+49, r11	; 0x31
    133a:	9c 95 8e 8e 	jmp	0x651d1c	; 0x651d1c <__TEXT_REGION_LENGTH__+0x649d1c>
    133e:	8e 80       	ldd	r8, Y+6	; 0x06
    1340:	78 6a       	ori	r23, 0xA8	; 168
    1342:	55 4e       	sbci	r21, 0xE5	; 229
    1344:	40 39       	cpi	r20, 0x90	; 144
    1346:	32 39       	cpi	r19, 0x92	; 146
    1348:	40 4e       	sbci	r20, 0xE0	; 224
    134a:	5c 5c       	subi	r21, 0xCC	; 204
    134c:	5c 5c       	subi	r21, 0xCC	; 204
    134e:	5c 63       	ori	r21, 0x3C	; 60
    1350:	63 6a       	ori	r22, 0xA3	; 163
    1352:	78 80       	ld	r7, Y
    1354:	87 95       	ror	r24
    1356:	9c 9c       	mul	r9, r12
    1358:	9c 9c       	mul	r9, r12
    135a:	9c a3       	std	Y+36, r25	; 0x24
    135c:	aa b1       	in	r26, 0x0a	; 10
    135e:	aa aa       	std	Y+50, r10	; 0x32
    1360:	aa aa       	std	Y+50, r10	; 0x32
    1362:	aa a3       	std	Y+34, r26	; 0x22
    1364:	9c 8e       	std	Y+28, r9	; 0x1c
    1366:	87 87       	std	Z+15, r24	; 0x0f
    1368:	80 80       	ld	r8, Z
    136a:	78 6a       	ori	r23, 0xA8	; 168
    136c:	63 55       	subi	r22, 0x53	; 83
    136e:	4e 47       	sbci	r20, 0x7E	; 126
    1370:	40 39       	cpi	r20, 0x90	; 144
    1372:	40 47       	sbci	r20, 0x70	; 112
    1374:	55 5c       	subi	r21, 0xC5	; 197
    1376:	5c 5c       	subi	r21, 0xCC	; 204
    1378:	5c 63       	ori	r21, 0x3C	; 60
    137a:	6a 6a       	ori	r22, 0xAA	; 170
    137c:	71 78       	andi	r23, 0x81	; 129
    137e:	87 8e       	std	Z+31, r8	; 0x1f
    1380:	95 9c       	mul	r9, r5
    1382:	9c 95 9c 9c 	jmp	0x653938	; 0x653938 <__TEXT_REGION_LENGTH__+0x64b938>
    1386:	a3 a3       	std	Z+35, r26	; 0x23
    1388:	a3 a3       	std	Z+35, r26	; 0x23
    138a:	a3 a3       	std	Z+35, r26	; 0x23
    138c:	a3 a3       	std	Z+35, r26	; 0x23
    138e:	9c 95 8e 87 	jmp	0x650f1c	; 0x650f1c <__TEXT_REGION_LENGTH__+0x648f1c>
    1392:	87 87       	std	Z+15, r24	; 0x0f
    1394:	80 78       	andi	r24, 0x80	; 128
    1396:	6a 63       	ori	r22, 0x3A	; 58
    1398:	55 4e       	sbci	r21, 0xE5	; 229
    139a:	40 39       	cpi	r20, 0x90	; 144
    139c:	39 40       	sbci	r19, 0x09	; 9
    139e:	47 4e       	sbci	r20, 0xE7	; 231
    13a0:	55 55       	subi	r21, 0x55	; 85
    13a2:	55 55       	subi	r21, 0x55	; 85
    13a4:	5c 63       	ori	r21, 0x3C	; 60
    13a6:	6a 71       	andi	r22, 0x1A	; 26
    13a8:	80 87       	std	Z+8, r24	; 0x08
    13aa:	8e 95 95 9c 	call	0x61392a	; 0x61392a <__TEXT_REGION_LENGTH__+0x60b92a>
    13ae:	9c 9c       	mul	r9, r12
    13b0:	a3 a3       	std	Z+35, r26	; 0x23
    13b2:	aa aa       	std	Y+50, r10	; 0x32
    13b4:	aa aa       	std	Y+50, r10	; 0x32
    13b6:	aa aa       	std	Y+50, r10	; 0x32
    13b8:	a3 9c       	mul	r10, r3
    13ba:	95 8e       	std	Z+29, r9	; 0x1d
    13bc:	87 87       	std	Z+15, r24	; 0x0f
    13be:	80 71       	andi	r24, 0x10	; 16
    13c0:	63 55       	subi	r22, 0x53	; 83
    13c2:	47 39       	cpi	r20, 0x97	; 151
    13c4:	32 2a       	or	r3, r18
    13c6:	2a 32       	cpi	r18, 0x2A	; 42
    13c8:	39 47       	sbci	r19, 0x79	; 121
    13ca:	47 47       	sbci	r20, 0x77	; 119
    13cc:	47 4e       	sbci	r20, 0xE7	; 231
    13ce:	55 5c       	subi	r21, 0xC5	; 197
    13d0:	6a 78       	andi	r22, 0x8A	; 138
    13d2:	80 8e       	std	Z+24, r8	; 0x18
    13d4:	95 9c       	mul	r9, r5
    13d6:	a3 aa       	std	Z+51, r10	; 0x33
    13d8:	aa b1       	in	r26, 0x0a	; 10
    13da:	b1 b1       	in	r27, 0x01	; 1
    13dc:	b1 b1       	in	r27, 0x01	; 1
    13de:	b1 b1       	in	r27, 0x01	; 1
    13e0:	aa a3       	std	Y+34, r26	; 0x22
    13e2:	9c 95 8e 87 	jmp	0x650f1c	; 0x650f1c <__TEXT_REGION_LENGTH__+0x648f1c>
    13e6:	80 78       	andi	r24, 0x80	; 128
    13e8:	6a 5c       	subi	r22, 0xCA	; 202
    13ea:	47 40       	sbci	r20, 0x07	; 7
    13ec:	32 2a       	or	r3, r18
    13ee:	2a 2a       	or	r2, r26
    13f0:	32 32       	cpi	r19, 0x22	; 34
    13f2:	39 40       	sbci	r19, 0x09	; 9
    13f4:	47 47       	sbci	r20, 0x77	; 119
    13f6:	55 55       	subi	r21, 0x55	; 85
    13f8:	63 71       	andi	r22, 0x13	; 19
    13fa:	78 87       	std	Y+8, r23	; 0x08
    13fc:	8e 9c       	mul	r8, r14
    13fe:	a3 aa       	std	Z+51, r10	; 0x33
    1400:	b1 b1       	in	r27, 0x01	; 1
    1402:	b8 b8       	out	0x08, r11	; 8
    1404:	b8 b8       	out	0x08, r11	; 8
    1406:	b8 b1       	in	r27, 0x08	; 8
    1408:	b1 aa       	std	Z+49, r11	; 0x31
    140a:	a3 9c       	mul	r10, r3
    140c:	9c 95 87 80 	jmp	0x65010e	; 0x65010e <__TEXT_REGION_LENGTH__+0x64810e>
    1410:	78 63       	ori	r23, 0x38	; 56
    1412:	55 47       	sbci	r21, 0x75	; 117
    1414:	39 2a       	or	r3, r25
    1416:	23 2a       	or	r2, r19
    1418:	2a 32       	cpi	r18, 0x2A	; 42
    141a:	39 39       	cpi	r19, 0x99	; 153
    141c:	39 40       	sbci	r19, 0x09	; 9
    141e:	47 55       	subi	r20, 0x57	; 87
    1420:	5c 6a       	ori	r21, 0xAC	; 172
    1422:	71 80       	ldd	r7, Z+1	; 0x01
    1424:	87 95       	ror	r24
    1426:	a3 aa       	std	Z+51, r10	; 0x33
    1428:	b1 b8       	out	0x01, r11	; 1
    142a:	b8 bf       	out	0x38, r27	; 56
    142c:	bf c6       	rjmp	.+3454   	; 0x21ac <__stack+0x18ad>
    142e:	bf bf       	out	0x3f, r27	; 63
    1430:	b8 b1       	in	r27, 0x08	; 8
    1432:	aa a3       	std	Y+34, r26	; 0x22
    1434:	a3 9c       	mul	r10, r3
    1436:	95 8e       	std	Z+29, r9	; 0x1d
    1438:	80 71       	andi	r24, 0x10	; 16
    143a:	63 55       	subi	r22, 0x53	; 83
    143c:	47 39       	cpi	r20, 0x97	; 151
    143e:	32 2a       	or	r3, r18
    1440:	32 32       	cpi	r19, 0x22	; 34
    1442:	39 39       	cpi	r19, 0x99	; 153
    1444:	39 39       	cpi	r19, 0x99	; 153
    1446:	47 4e       	sbci	r20, 0xE7	; 231
    1448:	5c 63       	ori	r21, 0x3C	; 60
    144a:	71 78       	andi	r23, 0x81	; 129
    144c:	80 87       	std	Z+8, r24	; 0x08
    144e:	95 a3       	std	Z+37, r25	; 0x25
    1450:	aa b1       	in	r26, 0x0a	; 10
    1452:	b1 b8       	out	0x01, r11	; 1
    1454:	bf bf       	out	0x3f, r27	; 63
    1456:	bf bf       	out	0x3f, r27	; 63
    1458:	bf b1       	in	r27, 0x0f	; 15
    145a:	b1 aa       	std	Z+49, r11	; 0x31
    145c:	aa a3       	std	Y+34, r26	; 0x22
    145e:	9c 95 8e 80 	jmp	0x65011c	; 0x65011c <__TEXT_REGION_LENGTH__+0x64811c>
    1462:	71 63       	ori	r23, 0x31	; 49
    1464:	55 47       	sbci	r21, 0x75	; 117
    1466:	40 32       	cpi	r20, 0x20	; 32
    1468:	32 32       	cpi	r19, 0x22	; 34
    146a:	32 32       	cpi	r19, 0x22	; 34
    146c:	32 32       	cpi	r19, 0x22	; 34
    146e:	39 40       	sbci	r19, 0x09	; 9
    1470:	47 55       	subi	r20, 0x57	; 87
    1472:	5c 6a       	ori	r21, 0xAC	; 172
    1474:	71 78       	andi	r23, 0x81	; 129
    1476:	87 95       	ror	r24
    1478:	9c aa       	std	Y+52, r9	; 0x34
    147a:	b1 b8       	out	0x01, r11	; 1
    147c:	bf bf       	out	0x3f, r27	; 63
    147e:	bf bf       	out	0x3f, r27	; 63
    1480:	bf b8       	out	0x0f, r11	; 15
    1482:	b1 b1       	in	r27, 0x01	; 1
    1484:	aa aa       	std	Y+50, r10	; 0x32
    1486:	a3 9c       	mul	r10, r3
    1488:	95 87       	std	Z+13, r25	; 0x0d
    148a:	80 71       	andi	r24, 0x10	; 16
    148c:	63 55       	subi	r22, 0x53	; 83
    148e:	47 39       	cpi	r20, 0x97	; 151
    1490:	32 32       	cpi	r19, 0x22	; 34
    1492:	32 32       	cpi	r19, 0x22	; 34
    1494:	32 32       	cpi	r19, 0x22	; 34
    1496:	32 32       	cpi	r19, 0x22	; 34
    1498:	40 4e       	sbci	r20, 0xE0	; 224
    149a:	55 63       	ori	r21, 0x35	; 53
    149c:	6a 71       	andi	r22, 0x1A	; 26
    149e:	80 87       	std	Z+8, r24	; 0x08
    14a0:	95 a3       	std	Z+37, r25	; 0x25
    14a2:	aa b1       	in	r26, 0x0a	; 10
    14a4:	b8 b8       	out	0x08, r11	; 8
    14a6:	bf bf       	out	0x3f, r27	; 63
    14a8:	bf bf       	out	0x3f, r27	; 63
    14aa:	bf b8       	out	0x0f, r11	; 15
    14ac:	b1 aa       	std	Z+49, r11	; 0x31
    14ae:	aa a3       	std	Y+34, r26	; 0x22
    14b0:	9c 8e       	std	Y+28, r9	; 0x1c
    14b2:	87 78       	andi	r24, 0x87	; 135
    14b4:	6a 5c       	subi	r22, 0xCA	; 202
    14b6:	4e 47       	sbci	r20, 0x7E	; 126
    14b8:	39 32       	cpi	r19, 0x29	; 41
    14ba:	32 32       	cpi	r19, 0x22	; 34
    14bc:	32 32       	cpi	r19, 0x22	; 34
    14be:	32 32       	cpi	r19, 0x22	; 34
    14c0:	39 47       	sbci	r19, 0x79	; 121
    14c2:	4e 5c       	subi	r20, 0xCE	; 206
    14c4:	63 6a       	ori	r22, 0xA3	; 163
    14c6:	71 80       	ldd	r7, Z+1	; 0x01
    14c8:	8e 95 a3 b1 	call	0x616346	; 0x616346 <__TEXT_REGION_LENGTH__+0x60e346>
    14cc:	b1 b8       	out	0x01, r11	; 1
    14ce:	bf bf       	out	0x3f, r27	; 63
    14d0:	c6 c6       	rjmp	.+3468   	; 0x225e <__stack+0x195f>
    14d2:	bf bf       	out	0x3f, r27	; 63
    14d4:	b8 b8       	out	0x08, r11	; 8
    14d6:	b1 aa       	std	Z+49, r11	; 0x31
    14d8:	a3 9c       	mul	r10, r3
    14da:	8e 87       	std	Y+14, r24	; 0x0e
    14dc:	78 6a       	ori	r23, 0xA8	; 168
    14de:	63 55       	subi	r22, 0x53	; 83
    14e0:	47 40       	sbci	r20, 0x07	; 7
    14e2:	39 39       	cpi	r19, 0x99	; 153
    14e4:	39 32       	cpi	r19, 0x29	; 41
    14e6:	39 39       	cpi	r19, 0x99	; 153
    14e8:	39 40       	sbci	r19, 0x09	; 9
    14ea:	47 4e       	sbci	r20, 0xE7	; 231
    14ec:	5c 63       	ori	r21, 0x3C	; 60
    14ee:	71 78       	andi	r23, 0x81	; 129
    14f0:	87 95       	ror	r24
    14f2:	9c aa       	std	Y+52, r9	; 0x34
    14f4:	b1 b1       	in	r27, 0x01	; 1
    14f6:	b8 b8       	out	0x08, r11	; 8
    14f8:	bf bf       	out	0x3f, r27	; 63
    14fa:	bf bf       	out	0x3f, r27	; 63
    14fc:	bf b8       	out	0x0f, r11	; 15
    14fe:	b8 aa       	std	Y+48, r11	; 0x30
    1500:	a3 9c       	mul	r10, r3
    1502:	95 8e       	std	Z+29, r9	; 0x1d
    1504:	87 78       	andi	r24, 0x87	; 135
    1506:	6a 63       	ori	r22, 0x3A	; 58
    1508:	55 4e       	sbci	r21, 0xE5	; 229
    150a:	47 39       	cpi	r20, 0x97	; 151
    150c:	39 39       	cpi	r19, 0x99	; 153
    150e:	39 40       	sbci	r19, 0x09	; 9
    1510:	40 40       	sbci	r20, 0x00	; 0
    1512:	47 4e       	sbci	r20, 0xE7	; 231
    1514:	55 5c       	subi	r21, 0xC5	; 197
    1516:	6a 71       	andi	r22, 0x1A	; 26
    1518:	80 87       	std	Z+8, r24	; 0x08
    151a:	8e 9c       	mul	r8, r14
    151c:	a3 aa       	std	Z+51, r10	; 0x33
    151e:	b1 b1       	in	r27, 0x01	; 1
    1520:	b1 b8       	out	0x01, r11	; 1
    1522:	b8 b8       	out	0x08, r11	; 8
    1524:	b8 b8       	out	0x08, r11	; 8
    1526:	b8 b1       	in	r27, 0x08	; 8
    1528:	aa a3       	std	Y+34, r26	; 0x22
    152a:	9c 95 8e 87 	jmp	0x650f1c	; 0x650f1c <__TEXT_REGION_LENGTH__+0x648f1c>
    152e:	78 6a       	ori	r23, 0xA8	; 168
    1530:	63 55       	subi	r22, 0x53	; 83
    1532:	4e 47       	sbci	r20, 0x7E	; 126
    1534:	40 40       	sbci	r20, 0x00	; 0
    1536:	40 40       	sbci	r20, 0x00	; 0
    1538:	40 47       	sbci	r20, 0x70	; 112
    153a:	47 47       	sbci	r20, 0x77	; 119
    153c:	4e 55       	subi	r20, 0x5E	; 94
    153e:	5c 6a       	ori	r21, 0xAC	; 172
    1540:	71 80       	ldd	r7, Z+1	; 0x01
    1542:	87 8e       	std	Z+31, r8	; 0x1f
    1544:	95 9c       	mul	r9, r5
    1546:	a3 aa       	std	Z+51, r10	; 0x33
    1548:	b1 b1       	in	r27, 0x01	; 1
    154a:	b1 b8       	out	0x01, r11	; 1
    154c:	b8 b8       	out	0x08, r11	; 8
    154e:	b8 b8       	out	0x08, r11	; 8
    1550:	b1 aa       	std	Z+49, r11	; 0x31
    1552:	a3 9c       	mul	r10, r3
    1554:	9c 95 8e 80 	jmp	0x65011c	; 0x65011c <__TEXT_REGION_LENGTH__+0x64811c>
    1558:	78 6a       	ori	r23, 0xA8	; 168
    155a:	63 55       	subi	r22, 0x53	; 83
    155c:	4e 47       	sbci	r20, 0x7E	; 126
    155e:	47 40       	sbci	r20, 0x07	; 7
    1560:	47 47       	sbci	r20, 0x77	; 119
    1562:	47 4e       	sbci	r20, 0xE7	; 231
    1564:	4e 4e       	sbci	r20, 0xEE	; 238
    1566:	55 5c       	subi	r21, 0xC5	; 197
    1568:	63 71       	andi	r22, 0x13	; 19
    156a:	78 87       	std	Y+8, r23	; 0x08
    156c:	87 8e       	std	Z+31, r8	; 0x1f
    156e:	9c a3       	std	Y+36, r25	; 0x24
    1570:	aa b1       	in	r26, 0x0a	; 10
    1572:	b1 b8       	out	0x01, r11	; 1
    1574:	b8 b8       	out	0x08, r11	; 8
    1576:	b8 b8       	out	0x08, r11	; 8
    1578:	b8 b1       	in	r27, 0x08	; 8
    157a:	b1 aa       	std	Z+49, r11	; 0x31
    157c:	a3 9c       	mul	r10, r3
    157e:	95 8e       	std	Z+29, r9	; 0x1d
    1580:	87 80       	ldd	r8, Z+7	; 0x07
    1582:	71 63       	ori	r23, 0x31	; 49
    1584:	5c 55       	subi	r21, 0x5C	; 92
    1586:	4e 47       	sbci	r20, 0x7E	; 126
    1588:	47 47       	sbci	r20, 0x77	; 119
    158a:	47 47       	sbci	r20, 0x77	; 119
    158c:	4e 4e       	sbci	r20, 0xEE	; 238
    158e:	55 55       	subi	r21, 0x55	; 85
    1590:	5c 63       	ori	r21, 0x3C	; 60
    1592:	71 78       	andi	r23, 0x81	; 129
    1594:	80 87       	std	Z+8, r24	; 0x08
    1596:	8e 95 9c a3 	call	0x614738	; 0x614738 <__TEXT_REGION_LENGTH__+0x60c738>
    159a:	aa aa       	std	Y+50, r10	; 0x32
    159c:	b1 b1       	in	r27, 0x01	; 1
    159e:	b1 b1       	in	r27, 0x01	; 1
    15a0:	b1 b1       	in	r27, 0x01	; 1
    15a2:	b1 aa       	std	Z+49, r11	; 0x31
    15a4:	aa a3       	std	Y+34, r26	; 0x22
    15a6:	9c 95 8e 80 	jmp	0x65011c	; 0x65011c <__TEXT_REGION_LENGTH__+0x64811c>
    15aa:	78 71       	andi	r23, 0x18	; 24
    15ac:	6a 5c       	subi	r22, 0xCA	; 202
    15ae:	55 55       	subi	r21, 0x55	; 85
    15b0:	4e 47       	sbci	r20, 0x7E	; 126
    15b2:	47 4e       	sbci	r20, 0xE7	; 231
    15b4:	4e 4e       	sbci	r20, 0xEE	; 238
    15b6:	55 55       	subi	r21, 0x55	; 85
    15b8:	55 5c       	subi	r21, 0xC5	; 197
    15ba:	63 6a       	ori	r22, 0xA3	; 163
    15bc:	71 78       	andi	r23, 0x81	; 129
    15be:	80 87       	std	Z+8, r24	; 0x08
    15c0:	8e 95 9c a3 	call	0x614738	; 0x614738 <__TEXT_REGION_LENGTH__+0x60c738>
    15c4:	aa aa       	std	Y+50, r10	; 0x32
    15c6:	aa b1       	in	r26, 0x0a	; 10
    15c8:	b1 aa       	std	Z+49, r11	; 0x31
    15ca:	aa aa       	std	Y+50, r10	; 0x32
    15cc:	a3 a3       	std	Z+35, r26	; 0x23
    15ce:	9c 95 8e 8e 	jmp	0x651d1c	; 0x651d1c <__TEXT_REGION_LENGTH__+0x649d1c>
    15d2:	80 78       	andi	r24, 0x80	; 128
    15d4:	71 6a       	ori	r23, 0xA1	; 161
    15d6:	63 5c       	subi	r22, 0xC3	; 195
    15d8:	55 4e       	sbci	r21, 0xE5	; 229
    15da:	4e 47       	sbci	r20, 0x7E	; 126
    15dc:	4e 4e       	sbci	r20, 0xEE	; 238
    15de:	4e 55       	subi	r20, 0x5E	; 94
    15e0:	55 55       	subi	r21, 0x55	; 85
    15e2:	5c 5c       	subi	r21, 0xCC	; 204
    15e4:	63 6a       	ori	r22, 0xA3	; 163
    15e6:	71 78       	andi	r23, 0x81	; 129
    15e8:	80 87       	std	Z+8, r24	; 0x08
    15ea:	8e 95 9c a3 	call	0x614738	; 0x614738 <__TEXT_REGION_LENGTH__+0x60c738>
    15ee:	a3 a3       	std	Z+35, r26	; 0x23
    15f0:	aa aa       	std	Y+50, r10	; 0x32
    15f2:	a3 a3       	std	Z+35, r26	; 0x23
    15f4:	a3 a3       	std	Z+35, r26	; 0x23
    15f6:	a3 9c       	mul	r10, r3
    15f8:	95 95       	asr	r25
    15fa:	8e 87       	std	Y+14, r24	; 0x0e
    15fc:	80 78       	andi	r24, 0x80	; 128
    15fe:	71 6a       	ori	r23, 0xA1	; 161
    1600:	6a 63       	ori	r22, 0x3A	; 58
    1602:	5c 55       	subi	r21, 0x5C	; 92
    1604:	55 4e       	sbci	r21, 0xE5	; 229
    1606:	55 55       	subi	r21, 0x55	; 85
    1608:	55 55       	subi	r21, 0x55	; 85
    160a:	55 5c       	subi	r21, 0xC5	; 197
    160c:	5c 63       	ori	r21, 0x3C	; 60
    160e:	6a 71       	andi	r22, 0x1A	; 26
    1610:	78 78       	andi	r23, 0x88	; 136
    1612:	80 87       	std	Z+8, r24	; 0x08
    1614:	8e 8e       	std	Y+30, r8	; 0x1e
    1616:	95 9c       	mul	r9, r5
    1618:	9c a3       	std	Y+36, r25	; 0x24
    161a:	a3 a3       	std	Z+35, r26	; 0x23
    161c:	a3 a3       	std	Z+35, r26	; 0x23
    161e:	a3 a3       	std	Z+35, r26	; 0x23
    1620:	9c 9c       	mul	r9, r12
    1622:	95 8e       	std	Z+29, r9	; 0x1d
    1624:	8e 87       	std	Y+14, r24	; 0x0e
    1626:	80 78       	andi	r24, 0x80	; 128
    1628:	71 6a       	ori	r23, 0xA1	; 161
    162a:	6a 63       	ori	r22, 0x3A	; 58
    162c:	5c 5c       	subi	r21, 0xCC	; 204
    162e:	55 55       	subi	r21, 0x55	; 85
    1630:	55 5c       	subi	r21, 0xC5	; 197
    1632:	5c 5c       	subi	r21, 0xCC	; 204
    1634:	63 63       	ori	r22, 0x33	; 51
    1636:	63 63       	ori	r22, 0x33	; 51
    1638:	6a 6a       	ori	r22, 0xAA	; 170
    163a:	71 78       	andi	r23, 0x81	; 129
    163c:	78 80       	ld	r7, Y
    163e:	87 8e       	std	Z+31, r8	; 0x1f
    1640:	8e 95 95 9c 	call	0x61392a	; 0x61392a <__TEXT_REGION_LENGTH__+0x60b92a>
    1644:	9c 9c       	mul	r9, r12
    1646:	9c 9c       	mul	r9, r12
    1648:	9c 9c       	mul	r9, r12
    164a:	9c 95 95 8e 	jmp	0x651d2a	; 0x651d2a <__TEXT_REGION_LENGTH__+0x649d2a>
    164e:	87 87       	std	Z+15, r24	; 0x0f
    1650:	80 78       	andi	r24, 0x80	; 128
    1652:	78 78       	andi	r23, 0x88	; 136
    1654:	71 6a       	ori	r23, 0xA1	; 161
    1656:	6a 63       	ori	r22, 0x3A	; 58
    1658:	5c 5c       	subi	r21, 0xCC	; 204
    165a:	5c 5c       	subi	r21, 0xCC	; 204
    165c:	5c 5c       	subi	r21, 0xCC	; 204
    165e:	5c 63       	ori	r21, 0x3C	; 60
    1660:	63 63       	ori	r22, 0x33	; 51
    1662:	6a 6a       	ori	r22, 0xAA	; 170
    1664:	71 78       	andi	r23, 0x81	; 129
    1666:	78 80       	ld	r7, Y
    1668:	87 87       	std	Z+15, r24	; 0x0f
    166a:	8e 8e       	std	Y+30, r8	; 0x1e
    166c:	95 95       	asr	r25
    166e:	95 95       	asr	r25
    1670:	9c 9c       	mul	r9, r12
    1672:	9c 9c       	mul	r9, r12
    1674:	9c 9c       	mul	r9, r12
    1676:	95 8e       	std	Z+29, r9	; 0x1d
    1678:	8e 87       	std	Y+14, r24	; 0x0e
    167a:	80 80       	ld	r8, Z
    167c:	80 78       	andi	r24, 0x80	; 128
    167e:	78 71       	andi	r23, 0x18	; 24
    1680:	71 6a       	ori	r23, 0xA1	; 161
    1682:	6a 63       	ori	r22, 0x3A	; 58
    1684:	63 63       	ori	r22, 0x33	; 51
    1686:	63 63       	ori	r22, 0x33	; 51
    1688:	63 63       	ori	r22, 0x33	; 51
    168a:	63 63       	ori	r22, 0x33	; 51
    168c:	6a 6a       	ori	r22, 0xAA	; 170
    168e:	71 71       	andi	r23, 0x11	; 17
    1690:	71 78       	andi	r23, 0x81	; 129
    1692:	80 87       	std	Z+8, r24	; 0x08
    1694:	87 87       	std	Z+15, r24	; 0x0f
    1696:	8e 8e       	std	Y+30, r8	; 0x1e
    1698:	8e 95 95 95 	call	0x612b2a	; 0x612b2a <__TEXT_REGION_LENGTH__+0x60ab2a>
    169c:	9c 9c       	mul	r9, r12
    169e:	9c 95 95 95 	jmp	0x652b2a	; 0x652b2a <__TEXT_REGION_LENGTH__+0x64ab2a>
    16a2:	8e 8e       	std	Y+30, r8	; 0x1e
    16a4:	87 87       	std	Z+15, r24	; 0x0f
    16a6:	80 80       	ld	r8, Z
    16a8:	80 80       	ld	r8, Z
    16aa:	78 78       	andi	r23, 0x88	; 136
    16ac:	71 71       	andi	r23, 0x11	; 17
    16ae:	6a 6a       	ori	r22, 0xAA	; 170
    16b0:	6a 63       	ori	r22, 0x3A	; 58
    16b2:	63 63       	ori	r22, 0x33	; 51
    16b4:	6a 6a       	ori	r22, 0xAA	; 170
    16b6:	6a 6a       	ori	r22, 0xAA	; 170
    16b8:	71 71       	andi	r23, 0x11	; 17
    16ba:	71 78       	andi	r23, 0x81	; 129
    16bc:	78 80       	ld	r7, Y
    16be:	80 80       	ld	r8, Z
    16c0:	87 87       	std	Z+15, r24	; 0x0f
    16c2:	87 87       	std	Z+15, r24	; 0x0f
    16c4:	8e 8e       	std	Y+30, r8	; 0x1e
    16c6:	8e 95 95 95 	call	0x612b2a	; 0x612b2a <__TEXT_REGION_LENGTH__+0x60ab2a>
    16ca:	8e 8e       	std	Y+30, r8	; 0x1e
    16cc:	8e 87       	std	Y+14, r24	; 0x0e
    16ce:	87 87       	std	Z+15, r24	; 0x0f
    16d0:	80 80       	ld	r8, Z
    16d2:	80 80       	ld	r8, Z
    16d4:	80 80       	ld	r8, Z
    16d6:	78 78       	andi	r23, 0x88	; 136
    16d8:	78 71       	andi	r23, 0x18	; 24
    16da:	71 71       	andi	r23, 0x11	; 17
    16dc:	71 71       	andi	r23, 0x11	; 17
    16de:	71 71       	andi	r23, 0x11	; 17
    16e0:	71 71       	andi	r23, 0x11	; 17
    16e2:	71 71       	andi	r23, 0x11	; 17
    16e4:	71 71       	andi	r23, 0x11	; 17
    16e6:	71 71       	andi	r23, 0x11	; 17
    16e8:	71 78       	andi	r23, 0x81	; 129
    16ea:	78 80       	ld	r7, Y
    16ec:	80 80       	ld	r8, Z
    16ee:	87 87       	std	Z+15, r24	; 0x0f
    16f0:	87 87       	std	Z+15, r24	; 0x0f
    16f2:	87 87       	std	Z+15, r24	; 0x0f
    16f4:	87 87       	std	Z+15, r24	; 0x0f
    16f6:	87 87       	std	Z+15, r24	; 0x0f
    16f8:	87 80       	ldd	r8, Z+7	; 0x07
    16fa:	87 80       	ldd	r8, Z+7	; 0x07
    16fc:	80 80       	ld	r8, Z
    16fe:	80 80       	ld	r8, Z
    1700:	80 78       	andi	r24, 0x80	; 128
    1702:	78 78       	andi	r23, 0x88	; 136
    1704:	78 78       	andi	r23, 0x88	; 136
    1706:	71 71       	andi	r23, 0x11	; 17
    1708:	71 71       	andi	r23, 0x11	; 17
    170a:	71 71       	andi	r23, 0x11	; 17
    170c:	71 71       	andi	r23, 0x11	; 17
    170e:	71 71       	andi	r23, 0x11	; 17
    1710:	71 71       	andi	r23, 0x11	; 17
    1712:	71 71       	andi	r23, 0x11	; 17
    1714:	71 78       	andi	r23, 0x81	; 129
    1716:	78 78       	andi	r23, 0x88	; 136
    1718:	78 78       	andi	r23, 0x88	; 136
    171a:	78 80       	ld	r7, Y
    171c:	80 80       	ld	r8, Z
    171e:	80 87       	std	Z+8, r24	; 0x08
    1720:	8e 95 95 8e 	call	0x611d2a	; 0x611d2a <__TEXT_REGION_LENGTH__+0x609d2a>
    1724:	8e 87       	std	Y+14, r24	; 0x0e
    1726:	87 87       	std	Z+15, r24	; 0x0f
    1728:	87 8e       	std	Z+31, r8	; 0x1f
    172a:	8e 8e       	std	Y+30, r8	; 0x1e
    172c:	87 87       	std	Z+15, r24	; 0x0f
    172e:	87 87       	std	Z+15, r24	; 0x0f
    1730:	87 80       	ldd	r8, Z+7	; 0x07
    1732:	80 80       	ld	r8, Z
    1734:	78 71       	andi	r23, 0x18	; 24
    1736:	71 6a       	ori	r23, 0xA1	; 161
    1738:	6a 6a       	ori	r22, 0xAA	; 170
    173a:	6a 6a       	ori	r22, 0xAA	; 170
    173c:	6a 71       	andi	r22, 0x1A	; 26
    173e:	71 78       	andi	r23, 0x81	; 129
    1740:	78 78       	andi	r23, 0x88	; 136
    1742:	78 78       	andi	r23, 0x88	; 136
    1744:	78 80       	ld	r7, Y
    1746:	80 87       	std	Z+8, r24	; 0x08
    1748:	87 87       	std	Z+15, r24	; 0x0f
    174a:	87 87       	std	Z+15, r24	; 0x0f
    174c:	87 87       	std	Z+15, r24	; 0x0f
    174e:	87 87       	std	Z+15, r24	; 0x0f
    1750:	80 80       	ld	r8, Z
    1752:	80 78       	andi	r24, 0x80	; 128
    1754:	78 78       	andi	r23, 0x88	; 136
    1756:	71 71       	andi	r23, 0x11	; 17
    1758:	71 71       	andi	r23, 0x11	; 17
    175a:	71 71       	andi	r23, 0x11	; 17
    175c:	6a 6a       	ori	r22, 0xAA	; 170
    175e:	6a 6a       	ori	r22, 0xAA	; 170
    1760:	6a 6a       	ori	r22, 0xAA	; 170
    1762:	6a 6a       	ori	r22, 0xAA	; 170
    1764:	71 71       	andi	r23, 0x11	; 17
    1766:	71 71       	andi	r23, 0x11	; 17
    1768:	71 78       	andi	r23, 0x81	; 129
    176a:	78 78       	andi	r23, 0x88	; 136
    176c:	78 71       	andi	r23, 0x18	; 24
    176e:	71 71       	andi	r23, 0x11	; 17
    1770:	71 78       	andi	r23, 0x81	; 129
    1772:	71 71       	andi	r23, 0x11	; 17
    1774:	71 71       	andi	r23, 0x11	; 17
    1776:	71 71       	andi	r23, 0x11	; 17
    1778:	71 71       	andi	r23, 0x11	; 17
    177a:	71 71       	andi	r23, 0x11	; 17
    177c:	71 71       	andi	r23, 0x11	; 17
    177e:	71 78       	andi	r23, 0x81	; 129
    1780:	78 78       	andi	r23, 0x88	; 136
    1782:	78 78       	andi	r23, 0x88	; 136
    1784:	78 78       	andi	r23, 0x88	; 136
    1786:	78 78       	andi	r23, 0x88	; 136
    1788:	78 78       	andi	r23, 0x88	; 136
    178a:	78 78       	andi	r23, 0x88	; 136
    178c:	78 78       	andi	r23, 0x88	; 136
    178e:	78 78       	andi	r23, 0x88	; 136
    1790:	78 78       	andi	r23, 0x88	; 136
    1792:	78 71       	andi	r23, 0x18	; 24
    1794:	71 71       	andi	r23, 0x11	; 17
    1796:	71 71       	andi	r23, 0x11	; 17
    1798:	71 71       	andi	r23, 0x11	; 17
    179a:	78 78       	andi	r23, 0x88	; 136
    179c:	80 95       	com	r24
    179e:	a3 a3       	std	Z+35, r26	; 0x23
    17a0:	9c 87       	std	Y+12, r25	; 0x0c
    17a2:	71 6a       	ori	r23, 0xA1	; 161
    17a4:	78 80       	ld	r7, Y
    17a6:	80 78       	andi	r24, 0x80	; 128
    17a8:	71 6a       	ori	r23, 0xA1	; 161
    17aa:	71 80       	ldd	r7, Z+1	; 0x01
    17ac:	87 87       	std	Z+15, r24	; 0x0f
    17ae:	87 8e       	std	Z+31, r8	; 0x1f
    17b0:	95 9c       	mul	r9, r5
    17b2:	9c 87       	std	Y+12, r25	; 0x0c
    17b4:	80 71       	andi	r24, 0x10	; 16
    17b6:	71 78       	andi	r23, 0x81	; 129
    17b8:	80 87       	std	Z+8, r24	; 0x08
    17ba:	8e 8e       	std	Y+30, r8	; 0x1e
    17bc:	87 80       	ldd	r8, Z+7	; 0x07
    17be:	80 80       	ld	r8, Z
    17c0:	80 80       	ld	r8, Z
    17c2:	78 71       	andi	r23, 0x18	; 24
    17c4:	6a 71       	andi	r22, 0x1A	; 26
    17c6:	78 80       	ld	r7, Y
    17c8:	80 78       	andi	r24, 0x80	; 128
    17ca:	80 80       	ld	r8, Z
    17cc:	8e 8e       	std	Y+30, r8	; 0x1e
    17ce:	8e 87       	std	Y+14, r24	; 0x0e
    17d0:	78 78       	andi	r23, 0x88	; 136
    17d2:	78 80       	ld	r7, Y
    17d4:	80 80       	ld	r8, Z
    17d6:	78 78       	andi	r23, 0x88	; 136
    17d8:	80 87       	std	Z+8, r24	; 0x08
    17da:	87 80       	ldd	r8, Z+7	; 0x07
    17dc:	6a 63       	ori	r22, 0x3A	; 58
    17de:	63 6a       	ori	r22, 0xA3	; 163
    17e0:	71 71       	andi	r23, 0x11	; 17
    17e2:	6a 6a       	ori	r22, 0xAA	; 170
    17e4:	63 6a       	ori	r22, 0xA3	; 163
    17e6:	71 78       	andi	r23, 0x81	; 129
    17e8:	80 80       	ld	r8, Z
    17ea:	87 87       	std	Z+15, r24	; 0x0f
    17ec:	87 80       	ldd	r8, Z+7	; 0x07
    17ee:	80 80       	ld	r8, Z
    17f0:	78 78       	andi	r23, 0x88	; 136
    17f2:	71 71       	andi	r23, 0x11	; 17
    17f4:	78 80       	ld	r7, Y
    17f6:	80 87       	std	Z+8, r24	; 0x08
    17f8:	80 78       	andi	r24, 0x80	; 128
    17fa:	78 78       	andi	r23, 0x88	; 136
    17fc:	78 71       	andi	r23, 0x18	; 24
    17fe:	71 6a       	ori	r23, 0xA1	; 161
    1800:	6a 6a       	ori	r22, 0xAA	; 170
    1802:	71 71       	andi	r23, 0x11	; 17
    1804:	71 6a       	ori	r23, 0xA1	; 161
    1806:	6a 6a       	ori	r22, 0xAA	; 170
    1808:	71 71       	andi	r23, 0x11	; 17
    180a:	71 71       	andi	r23, 0x11	; 17
    180c:	71 71       	andi	r23, 0x11	; 17
    180e:	71 78       	andi	r23, 0x81	; 129
    1810:	78 80       	ld	r7, Y
    1812:	78 78       	andi	r23, 0x88	; 136
    1814:	78 78       	andi	r23, 0x88	; 136
    1816:	80 80       	ld	r8, Z
    1818:	80 78       	andi	r24, 0x80	; 128
    181a:	71 71       	andi	r23, 0x11	; 17
    181c:	78 78       	andi	r23, 0x88	; 136
    181e:	80 78       	andi	r24, 0x80	; 128
    1820:	78 71       	andi	r23, 0x18	; 24
    1822:	71 78       	andi	r23, 0x81	; 129
    1824:	78 78       	andi	r23, 0x88	; 136
    1826:	71 71       	andi	r23, 0x11	; 17
    1828:	71 71       	andi	r23, 0x11	; 17
    182a:	71 71       	andi	r23, 0x11	; 17
    182c:	71 6a       	ori	r23, 0xA1	; 161
    182e:	6a 71       	andi	r22, 0x1A	; 26
    1830:	71 78       	andi	r23, 0x81	; 129
    1832:	78 78       	andi	r23, 0x88	; 136
    1834:	71 71       	andi	r23, 0x11	; 17
    1836:	71 78       	andi	r23, 0x81	; 129
    1838:	78 78       	andi	r23, 0x88	; 136
    183a:	78 78       	andi	r23, 0x88	; 136
    183c:	78 80       	ld	r7, Y
    183e:	80 80       	ld	r8, Z
    1840:	78 78       	andi	r23, 0x88	; 136
    1842:	80 80       	ld	r8, Z
    1844:	80 80       	ld	r8, Z
    1846:	80 80       	ld	r8, Z
    1848:	78 78       	andi	r23, 0x88	; 136
    184a:	78 78       	andi	r23, 0x88	; 136
    184c:	78 71       	andi	r23, 0x18	; 24
    184e:	71 71       	andi	r23, 0x11	; 17
    1850:	71 71       	andi	r23, 0x11	; 17
    1852:	78 71       	andi	r23, 0x18	; 24
    1854:	71 6a       	ori	r23, 0xA1	; 161
    1856:	6a 71       	andi	r22, 0x1A	; 26
    1858:	71 71       	andi	r23, 0x11	; 17
    185a:	71 71       	andi	r23, 0x11	; 17
    185c:	78 78       	andi	r23, 0x88	; 136
    185e:	78 80       	ld	r7, Y
    1860:	80 80       	ld	r8, Z
    1862:	80 80       	ld	r8, Z
    1864:	80 80       	ld	r8, Z
    1866:	80 80       	ld	r8, Z
    1868:	78 78       	andi	r23, 0x88	; 136
    186a:	78 80       	ld	r7, Y
    186c:	80 80       	ld	r8, Z
    186e:	78 78       	andi	r23, 0x88	; 136
    1870:	78 80       	ld	r7, Y
    1872:	80 80       	ld	r8, Z
    1874:	78 78       	andi	r23, 0x88	; 136
    1876:	71 71       	andi	r23, 0x11	; 17
    1878:	78 78       	andi	r23, 0x88	; 136
    187a:	78 78       	andi	r23, 0x88	; 136
    187c:	71 6a       	ori	r23, 0xA1	; 161
    187e:	71 71       	andi	r23, 0x11	; 17
    1880:	78 78       	andi	r23, 0x88	; 136
    1882:	78 71       	andi	r23, 0x18	; 24
    1884:	71 78       	andi	r23, 0x81	; 129
    1886:	78 80       	ld	r7, Y
    1888:	80 80       	ld	r8, Z
    188a:	80 80       	ld	r8, Z
    188c:	87 87       	std	Z+15, r24	; 0x0f
    188e:	87 87       	std	Z+15, r24	; 0x0f
    1890:	80 78       	andi	r24, 0x80	; 128
    1892:	80 80       	ld	r8, Z
    1894:	80 80       	ld	r8, Z
    1896:	80 78       	andi	r24, 0x80	; 128
    1898:	80 80       	ld	r8, Z
    189a:	87 8e       	std	Z+31, r8	; 0x1f
    189c:	8e 87       	std	Y+14, r24	; 0x0e
    189e:	80 71       	andi	r24, 0x10	; 16
    18a0:	71 78       	andi	r23, 0x81	; 129
    18a2:	80 80       	ld	r8, Z
    18a4:	78 78       	andi	r23, 0x88	; 136
    18a6:	71 71       	andi	r23, 0x11	; 17
    18a8:	71 78       	andi	r23, 0x81	; 129
    18aa:	78 78       	andi	r23, 0x88	; 136
    18ac:	71 71       	andi	r23, 0x11	; 17
    18ae:	78 80       	ld	r7, Y
    18b0:	8e 8e       	std	Y+30, r8	; 0x1e
    18b2:	8e 87       	std	Y+14, r24	; 0x0e
    18b4:	87 87       	std	Z+15, r24	; 0x0f
    18b6:	8e 8e       	std	Y+30, r8	; 0x1e
    18b8:	87 80       	ldd	r8, Z+7	; 0x07
    18ba:	78 78       	andi	r23, 0x88	; 136
    18bc:	80 87       	std	Z+8, r24	; 0x08
    18be:	87 87       	std	Z+15, r24	; 0x0f
    18c0:	87 80       	ldd	r8, Z+7	; 0x07
    18c2:	87 87       	std	Z+15, r24	; 0x0f
    18c4:	87 87       	std	Z+15, r24	; 0x0f
    18c6:	80 78       	andi	r24, 0x80	; 128
    18c8:	78 78       	andi	r23, 0x88	; 136
    18ca:	78 78       	andi	r23, 0x88	; 136
    18cc:	78 78       	andi	r23, 0x88	; 136
    18ce:	71 71       	andi	r23, 0x11	; 17
    18d0:	71 6a       	ori	r23, 0xA1	; 161
    18d2:	6a 6a       	ori	r22, 0xAA	; 170
    18d4:	6a 71       	andi	r22, 0x1A	; 26
    18d6:	80 87       	std	Z+8, r24	; 0x08
    18d8:	8e 95 95 8e 	call	0x611d2a	; 0x611d2a <__TEXT_REGION_LENGTH__+0x609d2a>
    18dc:	87 87       	std	Z+15, r24	; 0x0f
    18de:	80 80       	ld	r8, Z
    18e0:	80 78       	andi	r24, 0x80	; 128
    18e2:	78 71       	andi	r23, 0x18	; 24
    18e4:	71 78       	andi	r23, 0x81	; 129
    18e6:	78 80       	ld	r7, Y
    18e8:	80 80       	ld	r8, Z
    18ea:	80 78       	andi	r24, 0x80	; 128
    18ec:	80 80       	ld	r8, Z
    18ee:	87 87       	std	Z+15, r24	; 0x0f
    18f0:	87 80       	ldd	r8, Z+7	; 0x07
    18f2:	80 78       	andi	r24, 0x80	; 128
    18f4:	78 78       	andi	r23, 0x88	; 136
    18f6:	80 78       	andi	r24, 0x80	; 128
    18f8:	78 71       	andi	r23, 0x18	; 24
    18fa:	71 71       	andi	r23, 0x11	; 17
    18fc:	71 71       	andi	r23, 0x11	; 17
    18fe:	71 78       	andi	r23, 0x81	; 129
    1900:	80 80       	ld	r8, Z
    1902:	87 8e       	std	Z+31, r8	; 0x1f
    1904:	8e 8e       	std	Y+30, r8	; 0x1e
    1906:	87 87       	std	Z+15, r24	; 0x0f
    1908:	80 80       	ld	r8, Z
    190a:	78 78       	andi	r23, 0x88	; 136
    190c:	71 71       	andi	r23, 0x11	; 17
    190e:	71 71       	andi	r23, 0x11	; 17
    1910:	71 71       	andi	r23, 0x11	; 17
    1912:	6a 71       	andi	r22, 0x1A	; 26
    1914:	71 78       	andi	r23, 0x81	; 129
    1916:	80 80       	ld	r8, Z
    1918:	87 87       	std	Z+15, r24	; 0x0f
    191a:	87 87       	std	Z+15, r24	; 0x0f
    191c:	87 87       	std	Z+15, r24	; 0x0f
    191e:	87 80       	ldd	r8, Z+7	; 0x07
    1920:	80 78       	andi	r24, 0x80	; 128
    1922:	78 78       	andi	r23, 0x88	; 136
    1924:	78 78       	andi	r23, 0x88	; 136
    1926:	78 71       	andi	r23, 0x18	; 24
    1928:	71 71       	andi	r23, 0x11	; 17
    192a:	71 78       	andi	r23, 0x81	; 129
    192c:	80 87       	std	Z+8, r24	; 0x08
    192e:	87 87       	std	Z+15, r24	; 0x0f
    1930:	87 87       	std	Z+15, r24	; 0x0f
    1932:	87 87       	std	Z+15, r24	; 0x0f
    1934:	80 80       	ld	r8, Z
    1936:	78 71       	andi	r23, 0x18	; 24
    1938:	71 71       	andi	r23, 0x11	; 17
    193a:	71 71       	andi	r23, 0x11	; 17
    193c:	6a 6a       	ori	r22, 0xAA	; 170
    193e:	6a 71       	andi	r22, 0x1A	; 26
    1940:	78 80       	ld	r7, Y
    1942:	87 8e       	std	Z+31, r8	; 0x1f
    1944:	8e 8e       	std	Y+30, r8	; 0x1e
    1946:	8e 8e       	std	Y+30, r8	; 0x1e
    1948:	8e 8e       	std	Y+30, r8	; 0x1e
    194a:	87 80       	ldd	r8, Z+7	; 0x07
    194c:	78 78       	andi	r23, 0x88	; 136
    194e:	78 80       	ld	r7, Y
    1950:	80 78       	andi	r24, 0x80	; 128
    1952:	71 71       	andi	r23, 0x11	; 17
    1954:	71 78       	andi	r23, 0x81	; 129
    1956:	78 80       	ld	r7, Y
    1958:	87 87       	std	Z+15, r24	; 0x0f
    195a:	87 8e       	std	Z+31, r8	; 0x1f
    195c:	8e 8e       	std	Y+30, r8	; 0x1e
    195e:	8e 8e       	std	Y+30, r8	; 0x1e
    1960:	80 80       	ld	r8, Z
    1962:	78 78       	andi	r23, 0x88	; 136
    1964:	78 78       	andi	r23, 0x88	; 136
    1966:	78 71       	andi	r23, 0x18	; 24
    1968:	6a 6a       	ori	r22, 0xAA	; 170
    196a:	71 71       	andi	r23, 0x11	; 17
    196c:	78 80       	ld	r7, Y
    196e:	87 8e       	std	Z+31, r8	; 0x1f
    1970:	8e 95 95 95 	call	0x612b2a	; 0x612b2a <__TEXT_REGION_LENGTH__+0x60ab2a>
    1974:	95 8e       	std	Z+29, r9	; 0x1d
    1976:	87 87       	std	Z+15, r24	; 0x0f
    1978:	80 80       	ld	r8, Z
    197a:	80 80       	ld	r8, Z
    197c:	80 80       	ld	r8, Z
    197e:	78 78       	andi	r23, 0x88	; 136
    1980:	78 78       	andi	r23, 0x88	; 136
    1982:	80 80       	ld	r8, Z
    1984:	80 87       	std	Z+8, r24	; 0x08
    1986:	87 8e       	std	Z+31, r8	; 0x1f
    1988:	8e 8e       	std	Y+30, r8	; 0x1e
    198a:	8e 8e       	std	Y+30, r8	; 0x1e
    198c:	87 87       	std	Z+15, r24	; 0x0f
    198e:	80 80       	ld	r8, Z
    1990:	78 78       	andi	r23, 0x88	; 136
    1992:	78 71       	andi	r23, 0x18	; 24
    1994:	71 71       	andi	r23, 0x11	; 17
    1996:	71 71       	andi	r23, 0x11	; 17
    1998:	78 80       	ld	r7, Y
    199a:	87 8e       	std	Z+31, r8	; 0x1f
    199c:	95 95       	asr	r25
    199e:	9c 9c       	mul	r9, r12
    19a0:	95 95       	asr	r25
    19a2:	8e 87       	std	Y+14, r24	; 0x0e
    19a4:	87 80       	ldd	r8, Z+7	; 0x07
    19a6:	80 78       	andi	r24, 0x80	; 128
    19a8:	80 80       	ld	r8, Z
    19aa:	80 80       	ld	r8, Z
    19ac:	80 78       	andi	r24, 0x80	; 128
    19ae:	80 80       	ld	r8, Z
    19b0:	80 80       	ld	r8, Z
    19b2:	87 87       	std	Z+15, r24	; 0x0f
    19b4:	87 8e       	std	Z+31, r8	; 0x1f
    19b6:	8e 8e       	std	Y+30, r8	; 0x1e
    19b8:	87 87       	std	Z+15, r24	; 0x0f
    19ba:	80 78       	andi	r24, 0x80	; 128
    19bc:	78 78       	andi	r23, 0x88	; 136
    19be:	78 78       	andi	r23, 0x88	; 136
    19c0:	71 71       	andi	r23, 0x11	; 17
    19c2:	71 71       	andi	r23, 0x11	; 17
    19c4:	71 78       	andi	r23, 0x81	; 129
    19c6:	80 87       	std	Z+8, r24	; 0x08
    19c8:	87 8e       	std	Z+31, r8	; 0x1f
    19ca:	8e 8e       	std	Y+30, r8	; 0x1e
    19cc:	8e 8e       	std	Y+30, r8	; 0x1e
    19ce:	8e 87       	std	Y+14, r24	; 0x0e
    19d0:	80 78       	andi	r24, 0x80	; 128
    19d2:	78 78       	andi	r23, 0x88	; 136
    19d4:	78 80       	ld	r7, Y
    19d6:	80 80       	ld	r8, Z
    19d8:	80 78       	andi	r24, 0x80	; 128
    19da:	78 80       	ld	r7, Y
    19dc:	80 80       	ld	r8, Z
    19de:	80 80       	ld	r8, Z
    19e0:	87 87       	std	Z+15, r24	; 0x0f
    19e2:	8e 8e       	std	Y+30, r8	; 0x1e
    19e4:	87 87       	std	Z+15, r24	; 0x0f
    19e6:	80 80       	ld	r8, Z
    19e8:	78 78       	andi	r23, 0x88	; 136
    19ea:	78 78       	andi	r23, 0x88	; 136
    19ec:	71 71       	andi	r23, 0x11	; 17
    19ee:	71 71       	andi	r23, 0x11	; 17
    19f0:	71 78       	andi	r23, 0x81	; 129
    19f2:	78 80       	ld	r7, Y
    19f4:	80 87       	std	Z+8, r24	; 0x08
    19f6:	8e 8e       	std	Y+30, r8	; 0x1e
    19f8:	95 8e       	std	Z+29, r9	; 0x1d
    19fa:	87 87       	std	Z+15, r24	; 0x0f
    19fc:	80 80       	ld	r8, Z
    19fe:	78 80       	ld	r7, Y
    1a00:	80 80       	ld	r8, Z
    1a02:	80 80       	ld	r8, Z
    1a04:	80 87       	std	Z+8, r24	; 0x08
    1a06:	80 80       	ld	r8, Z
    1a08:	80 78       	andi	r24, 0x80	; 128
    1a0a:	78 80       	ld	r7, Y
    1a0c:	80 87       	std	Z+8, r24	; 0x08
    1a0e:	87 87       	std	Z+15, r24	; 0x0f
    1a10:	87 80       	ldd	r8, Z+7	; 0x07
    1a12:	80 80       	ld	r8, Z
    1a14:	80 78       	andi	r24, 0x80	; 128
    1a16:	78 78       	andi	r23, 0x88	; 136
    1a18:	71 71       	andi	r23, 0x11	; 17
    1a1a:	6a 6a       	ori	r22, 0xAA	; 170
    1a1c:	6a 6a       	ori	r22, 0xAA	; 170
    1a1e:	71 71       	andi	r23, 0x11	; 17
    1a20:	80 87       	std	Z+8, r24	; 0x08
    1a22:	87 8e       	std	Z+31, r8	; 0x1f
    1a24:	8e 8e       	std	Y+30, r8	; 0x1e
    1a26:	8e 87       	std	Y+14, r24	; 0x0e
    1a28:	87 80       	ldd	r8, Z+7	; 0x07
    1a2a:	80 78       	andi	r24, 0x80	; 128
    1a2c:	78 78       	andi	r23, 0x88	; 136
    1a2e:	78 78       	andi	r23, 0x88	; 136
    1a30:	80 80       	ld	r8, Z
    1a32:	80 80       	ld	r8, Z
    1a34:	80 80       	ld	r8, Z
    1a36:	78 78       	andi	r23, 0x88	; 136
    1a38:	78 78       	andi	r23, 0x88	; 136
    1a3a:	80 80       	ld	r8, Z
    1a3c:	80 80       	ld	r8, Z
    1a3e:	80 80       	ld	r8, Z
    1a40:	80 78       	andi	r24, 0x80	; 128
    1a42:	78 78       	andi	r23, 0x88	; 136
    1a44:	78 71       	andi	r23, 0x18	; 24
    1a46:	71 71       	andi	r23, 0x11	; 17
    1a48:	71 6a       	ori	r23, 0xA1	; 161
    1a4a:	71 71       	andi	r23, 0x11	; 17
    1a4c:	71 78       	andi	r23, 0x81	; 129
    1a4e:	80 80       	ld	r8, Z
    1a50:	87 87       	std	Z+15, r24	; 0x0f
    1a52:	87 87       	std	Z+15, r24	; 0x0f
    1a54:	87 80       	ldd	r8, Z+7	; 0x07
    1a56:	80 78       	andi	r24, 0x80	; 128
    1a58:	78 71       	andi	r23, 0x18	; 24
    1a5a:	71 78       	andi	r23, 0x81	; 129
    1a5c:	78 80       	ld	r7, Y
    1a5e:	80 80       	ld	r8, Z
    1a60:	78 78       	andi	r23, 0x88	; 136
    1a62:	78 78       	andi	r23, 0x88	; 136
    1a64:	78 78       	andi	r23, 0x88	; 136
    1a66:	78 78       	andi	r23, 0x88	; 136
    1a68:	78 80       	ld	r7, Y
    1a6a:	80 80       	ld	r8, Z
    1a6c:	80 80       	ld	r8, Z
    1a6e:	78 78       	andi	r23, 0x88	; 136
    1a70:	78 78       	andi	r23, 0x88	; 136
    1a72:	78 71       	andi	r23, 0x18	; 24
    1a74:	71 6a       	ori	r23, 0xA1	; 161
    1a76:	6a 6a       	ori	r22, 0xAA	; 170
    1a78:	6a 71       	andi	r22, 0x1A	; 26
    1a7a:	71 78       	andi	r23, 0x81	; 129
    1a7c:	78 80       	ld	r7, Y
    1a7e:	80 87       	std	Z+8, r24	; 0x08
    1a80:	87 80       	ldd	r8, Z+7	; 0x07
    1a82:	80 80       	ld	r8, Z
    1a84:	80 78       	andi	r24, 0x80	; 128
    1a86:	78 78       	andi	r23, 0x88	; 136
    1a88:	78 78       	andi	r23, 0x88	; 136
    1a8a:	78 80       	ld	r7, Y
    1a8c:	80 80       	ld	r8, Z
    1a8e:	80 80       	ld	r8, Z
    1a90:	78 78       	andi	r23, 0x88	; 136
    1a92:	78 78       	andi	r23, 0x88	; 136
    1a94:	78 80       	ld	r7, Y
    1a96:	80 80       	ld	r8, Z
    1a98:	80 80       	ld	r8, Z
    1a9a:	80 78       	andi	r24, 0x80	; 128
    1a9c:	78 78       	andi	r23, 0x88	; 136
    1a9e:	71 71       	andi	r23, 0x11	; 17
    1aa0:	71 71       	andi	r23, 0x11	; 17
    1aa2:	71 6a       	ori	r23, 0xA1	; 161
    1aa4:	6a 6a       	ori	r22, 0xAA	; 170
    1aa6:	71 71       	andi	r23, 0x11	; 17
    1aa8:	71 78       	andi	r23, 0x81	; 129
    1aaa:	80 87       	std	Z+8, r24	; 0x08
    1aac:	87 87       	std	Z+15, r24	; 0x0f
    1aae:	87 87       	std	Z+15, r24	; 0x0f
    1ab0:	87 80       	ldd	r8, Z+7	; 0x07
    1ab2:	80 80       	ld	r8, Z
    1ab4:	78 78       	andi	r23, 0x88	; 136
    1ab6:	78 78       	andi	r23, 0x88	; 136
    1ab8:	78 80       	ld	r7, Y
    1aba:	80 78       	andi	r24, 0x80	; 128
    1abc:	78 78       	andi	r23, 0x88	; 136
    1abe:	71 78       	andi	r23, 0x81	; 129
    1ac0:	78 78       	andi	r23, 0x88	; 136
    1ac2:	78 80       	ld	r7, Y
    1ac4:	80 80       	ld	r8, Z
    1ac6:	80 80       	ld	r8, Z
    1ac8:	78 78       	andi	r23, 0x88	; 136
    1aca:	78 71       	andi	r23, 0x18	; 24
    1acc:	71 71       	andi	r23, 0x11	; 17
    1ace:	71 71       	andi	r23, 0x11	; 17
    1ad0:	6a 6a       	ori	r22, 0xAA	; 170
    1ad2:	6a 6a       	ori	r22, 0xAA	; 170
    1ad4:	71 71       	andi	r23, 0x11	; 17
    1ad6:	78 80       	ld	r7, Y
    1ad8:	80 87       	std	Z+8, r24	; 0x08
    1ada:	87 87       	std	Z+15, r24	; 0x0f
    1adc:	87 87       	std	Z+15, r24	; 0x0f
    1ade:	80 80       	ld	r8, Z
    1ae0:	78 78       	andi	r23, 0x88	; 136
    1ae2:	78 78       	andi	r23, 0x88	; 136
    1ae4:	78 78       	andi	r23, 0x88	; 136
    1ae6:	78 78       	andi	r23, 0x88	; 136
    1ae8:	78 78       	andi	r23, 0x88	; 136
    1aea:	71 78       	andi	r23, 0x81	; 129
    1aec:	78 78       	andi	r23, 0x88	; 136
    1aee:	78 78       	andi	r23, 0x88	; 136
    1af0:	78 80       	ld	r7, Y
    1af2:	80 80       	ld	r8, Z
    1af4:	80 80       	ld	r8, Z
    1af6:	78 78       	andi	r23, 0x88	; 136
    1af8:	71 71       	andi	r23, 0x11	; 17
    1afa:	71 71       	andi	r23, 0x11	; 17
    1afc:	71 6a       	ori	r23, 0xA1	; 161
    1afe:	6a 6a       	ori	r22, 0xAA	; 170
    1b00:	6a 71       	andi	r22, 0x1A	; 26
    1b02:	78 78       	andi	r23, 0x88	; 136
    1b04:	80 80       	ld	r8, Z
    1b06:	80 87       	std	Z+8, r24	; 0x08
    1b08:	87 87       	std	Z+15, r24	; 0x0f
    1b0a:	87 80       	ldd	r8, Z+7	; 0x07
    1b0c:	80 78       	andi	r24, 0x80	; 128
    1b0e:	71 71       	andi	r23, 0x11	; 17
    1b10:	71 78       	andi	r23, 0x81	; 129
    1b12:	78 78       	andi	r23, 0x88	; 136
    1b14:	78 78       	andi	r23, 0x88	; 136
    1b16:	78 78       	andi	r23, 0x88	; 136
    1b18:	78 78       	andi	r23, 0x88	; 136
    1b1a:	78 78       	andi	r23, 0x88	; 136
    1b1c:	78 80       	ld	r7, Y
    1b1e:	80 80       	ld	r8, Z
    1b20:	80 80       	ld	r8, Z
    1b22:	78 78       	andi	r23, 0x88	; 136
    1b24:	71 71       	andi	r23, 0x11	; 17
    1b26:	71 71       	andi	r23, 0x11	; 17
    1b28:	71 71       	andi	r23, 0x11	; 17
    1b2a:	71 71       	andi	r23, 0x11	; 17
    1b2c:	71 71       	andi	r23, 0x11	; 17
    1b2e:	71 78       	andi	r23, 0x81	; 129
    1b30:	78 80       	ld	r7, Y
    1b32:	80 87       	std	Z+8, r24	; 0x08
    1b34:	87 87       	std	Z+15, r24	; 0x0f
    1b36:	87 87       	std	Z+15, r24	; 0x0f
    1b38:	80 80       	ld	r8, Z
    1b3a:	78 78       	andi	r23, 0x88	; 136
    1b3c:	78 78       	andi	r23, 0x88	; 136
    1b3e:	80 80       	ld	r8, Z
    1b40:	80 80       	ld	r8, Z
    1b42:	78 78       	andi	r23, 0x88	; 136
    1b44:	78 78       	andi	r23, 0x88	; 136
    1b46:	78 78       	andi	r23, 0x88	; 136
    1b48:	78 78       	andi	r23, 0x88	; 136
    1b4a:	78 80       	ld	r7, Y
    1b4c:	80 80       	ld	r8, Z
    1b4e:	80 80       	ld	r8, Z
    1b50:	78 78       	andi	r23, 0x88	; 136
    1b52:	78 78       	andi	r23, 0x88	; 136
    1b54:	71 71       	andi	r23, 0x11	; 17
    1b56:	71 71       	andi	r23, 0x11	; 17
    1b58:	71 71       	andi	r23, 0x11	; 17
    1b5a:	71 78       	andi	r23, 0x81	; 129
    1b5c:	78 80       	ld	r7, Y
    1b5e:	80 80       	ld	r8, Z
    1b60:	80 80       	ld	r8, Z
    1b62:	87 87       	std	Z+15, r24	; 0x0f
    1b64:	87 80       	ldd	r8, Z+7	; 0x07
    1b66:	78 78       	andi	r23, 0x88	; 136
    1b68:	71 71       	andi	r23, 0x11	; 17
    1b6a:	78 78       	andi	r23, 0x88	; 136
    1b6c:	78 78       	andi	r23, 0x88	; 136
    1b6e:	78 78       	andi	r23, 0x88	; 136
    1b70:	78 78       	andi	r23, 0x88	; 136
    1b72:	78 78       	andi	r23, 0x88	; 136
    1b74:	78 78       	andi	r23, 0x88	; 136
    1b76:	78 78       	andi	r23, 0x88	; 136
    1b78:	80 80       	ld	r8, Z
    1b7a:	80 80       	ld	r8, Z
    1b7c:	80 78       	andi	r24, 0x80	; 128
    1b7e:	78 78       	andi	r23, 0x88	; 136
    1b80:	78 78       	andi	r23, 0x88	; 136
    1b82:	71 78       	andi	r23, 0x81	; 129
    1b84:	78 78       	andi	r23, 0x88	; 136
    1b86:	78 78       	andi	r23, 0x88	; 136
    1b88:	78 78       	andi	r23, 0x88	; 136
    1b8a:	80 80       	ld	r8, Z
    1b8c:	80 80       	ld	r8, Z
    1b8e:	80 80       	ld	r8, Z
    1b90:	80 78       	andi	r24, 0x80	; 128
    1b92:	78 78       	andi	r23, 0x88	; 136
    1b94:	78 78       	andi	r23, 0x88	; 136
    1b96:	78 78       	andi	r23, 0x88	; 136
    1b98:	78 78       	andi	r23, 0x88	; 136
    1b9a:	78 78       	andi	r23, 0x88	; 136
    1b9c:	71 71       	andi	r23, 0x11	; 17
    1b9e:	71 71       	andi	r23, 0x11	; 17
    1ba0:	78 78       	andi	r23, 0x88	; 136
    1ba2:	80 80       	ld	r8, Z
    1ba4:	80 80       	ld	r8, Z
    1ba6:	80 80       	ld	r8, Z
    1ba8:	80 80       	ld	r8, Z
    1baa:	78 78       	andi	r23, 0x88	; 136
    1bac:	78 78       	andi	r23, 0x88	; 136
    1bae:	78 78       	andi	r23, 0x88	; 136
    1bb0:	71 78       	andi	r23, 0x81	; 129
    1bb2:	78 78       	andi	r23, 0x88	; 136
    1bb4:	78 78       	andi	r23, 0x88	; 136
    1bb6:	80 80       	ld	r8, Z
    1bb8:	80 80       	ld	r8, Z
    1bba:	80 78       	andi	r24, 0x80	; 128
    1bbc:	78 78       	andi	r23, 0x88	; 136
    1bbe:	78 78       	andi	r23, 0x88	; 136
    1bc0:	78 78       	andi	r23, 0x88	; 136
    1bc2:	78 78       	andi	r23, 0x88	; 136
    1bc4:	78 78       	andi	r23, 0x88	; 136
    1bc6:	78 78       	andi	r23, 0x88	; 136
    1bc8:	78 78       	andi	r23, 0x88	; 136
    1bca:	78 80       	ld	r7, Y
    1bcc:	80 87       	std	Z+8, r24	; 0x08
    1bce:	87 87       	std	Z+15, r24	; 0x0f
    1bd0:	87 80       	ldd	r8, Z+7	; 0x07
    1bd2:	80 80       	ld	r8, Z
    1bd4:	80 80       	ld	r8, Z
    1bd6:	80 78       	andi	r24, 0x80	; 128
    1bd8:	78 78       	andi	r23, 0x88	; 136
    1bda:	78 78       	andi	r23, 0x88	; 136
    1bdc:	78 78       	andi	r23, 0x88	; 136
    1bde:	78 78       	andi	r23, 0x88	; 136
    1be0:	78 80       	ld	r7, Y
    1be2:	80 80       	ld	r8, Z
    1be4:	80 80       	ld	r8, Z
    1be6:	78 78       	andi	r23, 0x88	; 136
    1be8:	78 80       	ld	r7, Y
    1bea:	80 78       	andi	r24, 0x80	; 128
    1bec:	78 78       	andi	r23, 0x88	; 136
    1bee:	78 71       	andi	r23, 0x18	; 24
    1bf0:	78 78       	andi	r23, 0x88	; 136
    1bf2:	78 78       	andi	r23, 0x88	; 136
    1bf4:	80 80       	ld	r8, Z
    1bf6:	80 80       	ld	r8, Z
    1bf8:	80 87       	std	Z+8, r24	; 0x08
    1bfa:	87 87       	std	Z+15, r24	; 0x0f
    1bfc:	80 80       	ld	r8, Z
    1bfe:	80 78       	andi	r24, 0x80	; 128
    1c00:	78 78       	andi	r23, 0x88	; 136
    1c02:	78 78       	andi	r23, 0x88	; 136
    1c04:	78 78       	andi	r23, 0x88	; 136
    1c06:	78 78       	andi	r23, 0x88	; 136
    1c08:	78 78       	andi	r23, 0x88	; 136
    1c0a:	80 80       	ld	r8, Z
    1c0c:	80 80       	ld	r8, Z
    1c0e:	78 78       	andi	r23, 0x88	; 136
    1c10:	78 78       	andi	r23, 0x88	; 136
    1c12:	78 78       	andi	r23, 0x88	; 136
    1c14:	78 78       	andi	r23, 0x88	; 136
    1c16:	78 78       	andi	r23, 0x88	; 136
    1c18:	78 78       	andi	r23, 0x88	; 136
    1c1a:	78 78       	andi	r23, 0x88	; 136
    1c1c:	78 78       	andi	r23, 0x88	; 136
    1c1e:	78 78       	andi	r23, 0x88	; 136
    1c20:	80 80       	ld	r8, Z
    1c22:	80 80       	ld	r8, Z
    1c24:	80 80       	ld	r8, Z
    1c26:	80 80       	ld	r8, Z
    1c28:	80 80       	ld	r8, Z
    1c2a:	78 78       	andi	r23, 0x88	; 136
    1c2c:	78 78       	andi	r23, 0x88	; 136
    1c2e:	78 78       	andi	r23, 0x88	; 136
    1c30:	78 78       	andi	r23, 0x88	; 136
    1c32:	78 78       	andi	r23, 0x88	; 136
    1c34:	78 78       	andi	r23, 0x88	; 136
    1c36:	78 78       	andi	r23, 0x88	; 136
    1c38:	78 71       	andi	r23, 0x18	; 24
    1c3a:	71 78       	andi	r23, 0x81	; 129
    1c3c:	78 78       	andi	r23, 0x88	; 136
    1c3e:	80 78       	andi	r24, 0x80	; 128
    1c40:	78 78       	andi	r23, 0x88	; 136
    1c42:	78 78       	andi	r23, 0x88	; 136
    1c44:	78 78       	andi	r23, 0x88	; 136
    1c46:	78 78       	andi	r23, 0x88	; 136
    1c48:	78 78       	andi	r23, 0x88	; 136
    1c4a:	78 78       	andi	r23, 0x88	; 136
    1c4c:	80 80       	ld	r8, Z
    1c4e:	80 80       	ld	r8, Z
    1c50:	80 80       	ld	r8, Z
    1c52:	78 78       	andi	r23, 0x88	; 136
    1c54:	78 78       	andi	r23, 0x88	; 136
    1c56:	78 78       	andi	r23, 0x88	; 136
    1c58:	78 78       	andi	r23, 0x88	; 136
    1c5a:	78 78       	andi	r23, 0x88	; 136
    1c5c:	78 78       	andi	r23, 0x88	; 136
    1c5e:	78 80       	ld	r7, Y
    1c60:	80 78       	andi	r24, 0x80	; 128
    1c62:	78 78       	andi	r23, 0x88	; 136
    1c64:	78 78       	andi	r23, 0x88	; 136
    1c66:	78 80       	ld	r7, Y
    1c68:	80 80       	ld	r8, Z
    1c6a:	80 80       	ld	r8, Z
    1c6c:	78 78       	andi	r23, 0x88	; 136
    1c6e:	78 78       	andi	r23, 0x88	; 136
    1c70:	78 78       	andi	r23, 0x88	; 136
    1c72:	78 78       	andi	r23, 0x88	; 136
    1c74:	78 78       	andi	r23, 0x88	; 136
    1c76:	78 80       	ld	r7, Y
    1c78:	80 80       	ld	r8, Z
    1c7a:	80 80       	ld	r8, Z
    1c7c:	80 78       	andi	r24, 0x80	; 128
    1c7e:	78 78       	andi	r23, 0x88	; 136
    1c80:	78 78       	andi	r23, 0x88	; 136
    1c82:	78 78       	andi	r23, 0x88	; 136
    1c84:	78 78       	andi	r23, 0x88	; 136
    1c86:	78 78       	andi	r23, 0x88	; 136
    1c88:	78 80       	ld	r7, Y
    1c8a:	80 78       	andi	r24, 0x80	; 128
    1c8c:	78 78       	andi	r23, 0x88	; 136
    1c8e:	71 78       	andi	r23, 0x81	; 129
    1c90:	78 78       	andi	r23, 0x88	; 136
    1c92:	80 78       	andi	r24, 0x80	; 128
    1c94:	78 78       	andi	r23, 0x88	; 136
    1c96:	78 78       	andi	r23, 0x88	; 136
    1c98:	78 78       	andi	r23, 0x88	; 136
    1c9a:	78 78       	andi	r23, 0x88	; 136
    1c9c:	78 78       	andi	r23, 0x88	; 136
    1c9e:	78 78       	andi	r23, 0x88	; 136
    1ca0:	78 78       	andi	r23, 0x88	; 136
    1ca2:	80 80       	ld	r8, Z
    1ca4:	78 78       	andi	r23, 0x88	; 136
    1ca6:	78 78       	andi	r23, 0x88	; 136
    1ca8:	78 78       	andi	r23, 0x88	; 136
    1caa:	78 78       	andi	r23, 0x88	; 136
    1cac:	78 78       	andi	r23, 0x88	; 136
    1cae:	78 78       	andi	r23, 0x88	; 136
    1cb0:	78 78       	andi	r23, 0x88	; 136
    1cb2:	80 80       	ld	r8, Z
    1cb4:	78 78       	andi	r23, 0x88	; 136
    1cb6:	78 71       	andi	r23, 0x18	; 24
    1cb8:	71 78       	andi	r23, 0x81	; 129
    1cba:	78 78       	andi	r23, 0x88	; 136
    1cbc:	80 80       	ld	r8, Z
    1cbe:	78 78       	andi	r23, 0x88	; 136
    1cc0:	78 78       	andi	r23, 0x88	; 136
    1cc2:	78 78       	andi	r23, 0x88	; 136
    1cc4:	78 78       	andi	r23, 0x88	; 136
    1cc6:	78 78       	andi	r23, 0x88	; 136
    1cc8:	71 78       	andi	r23, 0x81	; 129
    1cca:	78 78       	andi	r23, 0x88	; 136
    1ccc:	78 78       	andi	r23, 0x88	; 136
    1cce:	80 80       	ld	r8, Z
    1cd0:	78 78       	andi	r23, 0x88	; 136
    1cd2:	78 78       	andi	r23, 0x88	; 136
    1cd4:	78 78       	andi	r23, 0x88	; 136
    1cd6:	78 78       	andi	r23, 0x88	; 136
    1cd8:	78 78       	andi	r23, 0x88	; 136
    1cda:	78 78       	andi	r23, 0x88	; 136
    1cdc:	80 80       	ld	r8, Z
    1cde:	80 80       	ld	r8, Z
    1ce0:	78 78       	andi	r23, 0x88	; 136
    1ce2:	78 78       	andi	r23, 0x88	; 136
    1ce4:	78 80       	ld	r7, Y
    1ce6:	80 80       	ld	r8, Z
    1ce8:	80 80       	ld	r8, Z
    1cea:	80 80       	ld	r8, Z
    1cec:	80 80       	ld	r8, Z
    1cee:	80 80       	ld	r8, Z
    1cf0:	78 78       	andi	r23, 0x88	; 136
    1cf2:	78 78       	andi	r23, 0x88	; 136
    1cf4:	78 80       	ld	r7, Y
    1cf6:	80 80       	ld	r8, Z
    1cf8:	80 80       	ld	r8, Z
    1cfa:	80 80       	ld	r8, Z
    1cfc:	80 80       	ld	r8, Z
    1cfe:	80 80       	ld	r8, Z
    1d00:	80 80       	ld	r8, Z
    1d02:	80 80       	ld	r8, Z
    1d04:	80 80       	ld	r8, Z
    1d06:	80 80       	ld	r8, Z
    1d08:	80 80       	ld	r8, Z
    1d0a:	80 80       	ld	r8, Z
    1d0c:	80 80       	ld	r8, Z
    1d0e:	80 80       	ld	r8, Z
    1d10:	80 80       	ld	r8, Z
    1d12:	80 80       	ld	r8, Z
    1d14:	80 80       	ld	r8, Z
    1d16:	80 80       	ld	r8, Z
    1d18:	80 80       	ld	r8, Z
    1d1a:	80 80       	ld	r8, Z
    1d1c:	80 80       	ld	r8, Z
    1d1e:	80 80       	ld	r8, Z
    1d20:	80 80       	ld	r8, Z
    1d22:	80 80       	ld	r8, Z
    1d24:	80 80       	ld	r8, Z
    1d26:	80 80       	ld	r8, Z
    1d28:	80 80       	ld	r8, Z
    1d2a:	80 80       	ld	r8, Z
    1d2c:	80 80       	ld	r8, Z
    1d2e:	80 80       	ld	r8, Z
    1d30:	80 80       	ld	r8, Z
    1d32:	80 80       	ld	r8, Z
    1d34:	80 80       	ld	r8, Z
    1d36:	80 80       	ld	r8, Z
    1d38:	80 80       	ld	r8, Z
    1d3a:	80 80       	ld	r8, Z
    1d3c:	87 87       	std	Z+15, r24	; 0x0f
    1d3e:	87 87       	std	Z+15, r24	; 0x0f
    1d40:	87 87       	std	Z+15, r24	; 0x0f
    1d42:	80 80       	ld	r8, Z
    1d44:	80 80       	ld	r8, Z
    1d46:	80 80       	ld	r8, Z
    1d48:	80 87       	std	Z+8, r24	; 0x08
    1d4a:	80 80       	ld	r8, Z
    1d4c:	80 80       	ld	r8, Z
    1d4e:	80 80       	ld	r8, Z
    1d50:	80 80       	ld	r8, Z
    1d52:	80 80       	ld	r8, Z
    1d54:	80 80       	ld	r8, Z
    1d56:	80 80       	ld	r8, Z
    1d58:	80 80       	ld	r8, Z
    1d5a:	87 87       	std	Z+15, r24	; 0x0f
    1d5c:	87 87       	std	Z+15, r24	; 0x0f
    1d5e:	87 87       	std	Z+15, r24	; 0x0f
    1d60:	80 80       	ld	r8, Z
    1d62:	80 80       	ld	r8, Z
    1d64:	80 87       	std	Z+8, r24	; 0x08
    1d66:	87 87       	std	Z+15, r24	; 0x0f
    1d68:	87 87       	std	Z+15, r24	; 0x0f
    1d6a:	87 87       	std	Z+15, r24	; 0x0f
    1d6c:	80 80       	ld	r8, Z
    1d6e:	80 80       	ld	r8, Z
    1d70:	80 80       	ld	r8, Z
    1d72:	80 80       	ld	r8, Z
    1d74:	80 80       	ld	r8, Z
    1d76:	80 80       	ld	r8, Z
    1d78:	80 80       	ld	r8, Z
    1d7a:	80 80       	ld	r8, Z
    1d7c:	80 80       	ld	r8, Z
    1d7e:	80 80       	ld	r8, Z
    1d80:	80 80       	ld	r8, Z
    1d82:	80 80       	ld	r8, Z
    1d84:	80 80       	ld	r8, Z
    1d86:	80 80       	ld	r8, Z
    1d88:	80 80       	ld	r8, Z
    1d8a:	80 80       	ld	r8, Z
    1d8c:	80 80       	ld	r8, Z
    1d8e:	80 80       	ld	r8, Z
    1d90:	80 80       	ld	r8, Z
    1d92:	80 80       	ld	r8, Z
    1d94:	80 80       	ld	r8, Z
    1d96:	80 80       	ld	r8, Z
    1d98:	80 80       	ld	r8, Z
    1d9a:	80 80       	ld	r8, Z
    1d9c:	80 80       	ld	r8, Z
    1d9e:	80 80       	ld	r8, Z
    1da0:	80 80       	ld	r8, Z
    1da2:	80 80       	ld	r8, Z
    1da4:	80 80       	ld	r8, Z
    1da6:	80 80       	ld	r8, Z
    1da8:	80 80       	ld	r8, Z
    1daa:	80 80       	ld	r8, Z
    1dac:	80 80       	ld	r8, Z
    1dae:	80 80       	ld	r8, Z
    1db0:	80 80       	ld	r8, Z
    1db2:	80 80       	ld	r8, Z
    1db4:	80 80       	ld	r8, Z
    1db6:	80 80       	ld	r8, Z
    1db8:	80 80       	ld	r8, Z
    1dba:	80 80       	ld	r8, Z
    1dbc:	80 80       	ld	r8, Z
    1dbe:	80 80       	ld	r8, Z
    1dc0:	80 80       	ld	r8, Z
    1dc2:	80 80       	ld	r8, Z
    1dc4:	80 80       	ld	r8, Z
    1dc6:	80 80       	ld	r8, Z
    1dc8:	80 80       	ld	r8, Z
    1dca:	80 80       	ld	r8, Z
    1dcc:	80 80       	ld	r8, Z
    1dce:	80 80       	ld	r8, Z
    1dd0:	80 80       	ld	r8, Z
    1dd2:	80 80       	ld	r8, Z
    1dd4:	80 80       	ld	r8, Z
    1dd6:	80 80       	ld	r8, Z
    1dd8:	80 80       	ld	r8, Z
    1dda:	80 80       	ld	r8, Z
    1ddc:	80 80       	ld	r8, Z
    1dde:	80 80       	ld	r8, Z
    1de0:	80 80       	ld	r8, Z
    1de2:	80 80       	ld	r8, Z
    1de4:	80 80       	ld	r8, Z
    1de6:	80 80       	ld	r8, Z
    1de8:	87 87       	std	Z+15, r24	; 0x0f
    1dea:	87 87       	std	Z+15, r24	; 0x0f
    1dec:	87 87       	std	Z+15, r24	; 0x0f
    1dee:	87 87       	std	Z+15, r24	; 0x0f
    1df0:	87 87       	std	Z+15, r24	; 0x0f
    1df2:	80 80       	ld	r8, Z
    1df4:	80 80       	ld	r8, Z
    1df6:	80 80       	ld	r8, Z
    1df8:	80 80       	ld	r8, Z
    1dfa:	80 80       	ld	r8, Z
    1dfc:	80 80       	ld	r8, Z
    1dfe:	80 80       	ld	r8, Z
    1e00:	80 80       	ld	r8, Z
    1e02:	80 80       	ld	r8, Z
    1e04:	80 80       	ld	r8, Z
    1e06:	80 80       	ld	r8, Z
    1e08:	80 80       	ld	r8, Z
    1e0a:	80 87       	std	Z+8, r24	; 0x08
    1e0c:	87 87       	std	Z+15, r24	; 0x0f
    1e0e:	87 87       	std	Z+15, r24	; 0x0f
    1e10:	87 87       	std	Z+15, r24	; 0x0f
    1e12:	80 80       	ld	r8, Z
    1e14:	80 80       	ld	r8, Z
    1e16:	80 80       	ld	r8, Z
    1e18:	80 80       	ld	r8, Z
    1e1a:	80 80       	ld	r8, Z
    1e1c:	80 80       	ld	r8, Z
    1e1e:	80 80       	ld	r8, Z
    1e20:	80 80       	ld	r8, Z
    1e22:	80 80       	ld	r8, Z
    1e24:	80 80       	ld	r8, Z
    1e26:	80 80       	ld	r8, Z
    1e28:	80 80       	ld	r8, Z
    1e2a:	80 80       	ld	r8, Z
    1e2c:	80 80       	ld	r8, Z
    1e2e:	80 80       	ld	r8, Z
    1e30:	80 80       	ld	r8, Z
    1e32:	80 80       	ld	r8, Z
    1e34:	80 80       	ld	r8, Z
    1e36:	80 80       	ld	r8, Z
    1e38:	80 80       	ld	r8, Z
    1e3a:	80 80       	ld	r8, Z
    1e3c:	80 80       	ld	r8, Z
    1e3e:	80 80       	ld	r8, Z
    1e40:	80 80       	ld	r8, Z
    1e42:	80 80       	ld	r8, Z
    1e44:	80 80       	ld	r8, Z
    1e46:	80 80       	ld	r8, Z
    1e48:	80 80       	ld	r8, Z
    1e4a:	80 80       	ld	r8, Z
    1e4c:	78 78       	andi	r23, 0x88	; 136
    1e4e:	78 78       	andi	r23, 0x88	; 136
    1e50:	78 78       	andi	r23, 0x88	; 136
    1e52:	78 78       	andi	r23, 0x88	; 136
    1e54:	78 78       	andi	r23, 0x88	; 136
    1e56:	78 78       	andi	r23, 0x88	; 136
    1e58:	78 78       	andi	r23, 0x88	; 136
    1e5a:	78 78       	andi	r23, 0x88	; 136
    1e5c:	78 78       	andi	r23, 0x88	; 136
    1e5e:	78 78       	andi	r23, 0x88	; 136
    1e60:	78 78       	andi	r23, 0x88	; 136
    1e62:	78 78       	andi	r23, 0x88	; 136
    1e64:	78 78       	andi	r23, 0x88	; 136
    1e66:	78 78       	andi	r23, 0x88	; 136
    1e68:	78 78       	andi	r23, 0x88	; 136
    1e6a:	80 80       	ld	r8, Z
    1e6c:	80 80       	ld	r8, Z
    1e6e:	80 80       	ld	r8, Z
    1e70:	80 78       	andi	r24, 0x80	; 128
    1e72:	78 78       	andi	r23, 0x88	; 136
    1e74:	78 78       	andi	r23, 0x88	; 136
    1e76:	78 78       	andi	r23, 0x88	; 136
    1e78:	78 78       	andi	r23, 0x88	; 136
    1e7a:	78 78       	andi	r23, 0x88	; 136
    1e7c:	78 78       	andi	r23, 0x88	; 136
    1e7e:	78 78       	andi	r23, 0x88	; 136
    1e80:	78 78       	andi	r23, 0x88	; 136
    1e82:	78 78       	andi	r23, 0x88	; 136
    1e84:	78 78       	andi	r23, 0x88	; 136
    1e86:	78 78       	andi	r23, 0x88	; 136
    1e88:	78 78       	andi	r23, 0x88	; 136
    1e8a:	78 78       	andi	r23, 0x88	; 136
    1e8c:	78 78       	andi	r23, 0x88	; 136
    1e8e:	78 80       	ld	r7, Y
    1e90:	80 80       	ld	r8, Z
    1e92:	80 78       	andi	r24, 0x80	; 128
    1e94:	78 78       	andi	r23, 0x88	; 136
    1e96:	78 78       	andi	r23, 0x88	; 136
    1e98:	78 78       	andi	r23, 0x88	; 136
    1e9a:	78 78       	andi	r23, 0x88	; 136
    1e9c:	78 78       	andi	r23, 0x88	; 136
    1e9e:	78 78       	andi	r23, 0x88	; 136
    1ea0:	78 78       	andi	r23, 0x88	; 136
    1ea2:	78 78       	andi	r23, 0x88	; 136
    1ea4:	78 78       	andi	r23, 0x88	; 136
    1ea6:	78 78       	andi	r23, 0x88	; 136
    1ea8:	78 78       	andi	r23, 0x88	; 136
    1eaa:	78 78       	andi	r23, 0x88	; 136
    1eac:	78 78       	andi	r23, 0x88	; 136
    1eae:	78 78       	andi	r23, 0x88	; 136
    1eb0:	78 78       	andi	r23, 0x88	; 136
    1eb2:	78 78       	andi	r23, 0x88	; 136
    1eb4:	78 78       	andi	r23, 0x88	; 136
    1eb6:	78 78       	andi	r23, 0x88	; 136
    1eb8:	78 78       	andi	r23, 0x88	; 136
    1eba:	78 78       	andi	r23, 0x88	; 136
    1ebc:	78 78       	andi	r23, 0x88	; 136
    1ebe:	78 78       	andi	r23, 0x88	; 136
    1ec0:	78 78       	andi	r23, 0x88	; 136
    1ec2:	78 78       	andi	r23, 0x88	; 136
    1ec4:	78 78       	andi	r23, 0x88	; 136
    1ec6:	78 78       	andi	r23, 0x88	; 136
    1ec8:	78 78       	andi	r23, 0x88	; 136
    1eca:	78 78       	andi	r23, 0x88	; 136
    1ecc:	78 78       	andi	r23, 0x88	; 136
    1ece:	78 71       	andi	r23, 0x18	; 24
    1ed0:	71 71       	andi	r23, 0x11	; 17
    1ed2:	71 71       	andi	r23, 0x11	; 17
    1ed4:	71 71       	andi	r23, 0x11	; 17
    1ed6:	71 71       	andi	r23, 0x11	; 17
    1ed8:	71 71       	andi	r23, 0x11	; 17
    1eda:	71 71       	andi	r23, 0x11	; 17
    1edc:	71 78       	andi	r23, 0x81	; 129
    1ede:	78 78       	andi	r23, 0x88	; 136
    1ee0:	78 78       	andi	r23, 0x88	; 136
    1ee2:	78 78       	andi	r23, 0x88	; 136
    1ee4:	78 78       	andi	r23, 0x88	; 136
    1ee6:	78 78       	andi	r23, 0x88	; 136
    1ee8:	78 78       	andi	r23, 0x88	; 136
    1eea:	78 78       	andi	r23, 0x88	; 136
    1eec:	78 78       	andi	r23, 0x88	; 136
    1eee:	78 78       	andi	r23, 0x88	; 136
    1ef0:	78 78       	andi	r23, 0x88	; 136
    1ef2:	78 78       	andi	r23, 0x88	; 136
    1ef4:	71 71       	andi	r23, 0x11	; 17
    1ef6:	71 71       	andi	r23, 0x11	; 17
    1ef8:	71 71       	andi	r23, 0x11	; 17
    1efa:	71 71       	andi	r23, 0x11	; 17
    1efc:	71 71       	andi	r23, 0x11	; 17
    1efe:	71 71       	andi	r23, 0x11	; 17
    1f00:	71 71       	andi	r23, 0x11	; 17
    1f02:	71 71       	andi	r23, 0x11	; 17
    1f04:	71 71       	andi	r23, 0x11	; 17
    1f06:	71 78       	andi	r23, 0x81	; 129
    1f08:	78 78       	andi	r23, 0x88	; 136
    1f0a:	78 78       	andi	r23, 0x88	; 136
    1f0c:	78 78       	andi	r23, 0x88	; 136
    1f0e:	78 78       	andi	r23, 0x88	; 136
    1f10:	78 78       	andi	r23, 0x88	; 136
    1f12:	78 78       	andi	r23, 0x88	; 136
    1f14:	78 78       	andi	r23, 0x88	; 136
    1f16:	78 78       	andi	r23, 0x88	; 136
    1f18:	71 71       	andi	r23, 0x11	; 17
    1f1a:	71 71       	andi	r23, 0x11	; 17
    1f1c:	71 71       	andi	r23, 0x11	; 17
    1f1e:	71 71       	andi	r23, 0x11	; 17
    1f20:	71 71       	andi	r23, 0x11	; 17
    1f22:	78 78       	andi	r23, 0x88	; 136
    1f24:	78 78       	andi	r23, 0x88	; 136
    1f26:	78 78       	andi	r23, 0x88	; 136
    1f28:	78 78       	andi	r23, 0x88	; 136
    1f2a:	78 78       	andi	r23, 0x88	; 136
    1f2c:	78 78       	andi	r23, 0x88	; 136
    1f2e:	78 78       	andi	r23, 0x88	; 136
    1f30:	78 78       	andi	r23, 0x88	; 136
    1f32:	78 78       	andi	r23, 0x88	; 136
    1f34:	78 78       	andi	r23, 0x88	; 136
    1f36:	78 78       	andi	r23, 0x88	; 136
    1f38:	78 78       	andi	r23, 0x88	; 136
    1f3a:	78 78       	andi	r23, 0x88	; 136
    1f3c:	78 78       	andi	r23, 0x88	; 136
    1f3e:	78 78       	andi	r23, 0x88	; 136
    1f40:	78 78       	andi	r23, 0x88	; 136
    1f42:	78 78       	andi	r23, 0x88	; 136
    1f44:	78 78       	andi	r23, 0x88	; 136
    1f46:	78 78       	andi	r23, 0x88	; 136
    1f48:	78 78       	andi	r23, 0x88	; 136
    1f4a:	78 78       	andi	r23, 0x88	; 136
    1f4c:	78 78       	andi	r23, 0x88	; 136
    1f4e:	78 78       	andi	r23, 0x88	; 136
    1f50:	78 78       	andi	r23, 0x88	; 136
    1f52:	78 78       	andi	r23, 0x88	; 136
    1f54:	78 78       	andi	r23, 0x88	; 136
    1f56:	78 78       	andi	r23, 0x88	; 136
    1f58:	78 78       	andi	r23, 0x88	; 136
    1f5a:	78 78       	andi	r23, 0x88	; 136
    1f5c:	78 78       	andi	r23, 0x88	; 136
    1f5e:	80 80       	ld	r8, Z
    1f60:	78 78       	andi	r23, 0x88	; 136
    1f62:	78 78       	andi	r23, 0x88	; 136
    1f64:	80 80       	ld	r8, Z
    1f66:	78 78       	andi	r23, 0x88	; 136
    1f68:	78 78       	andi	r23, 0x88	; 136
    1f6a:	78 78       	andi	r23, 0x88	; 136
    1f6c:	78 78       	andi	r23, 0x88	; 136
    1f6e:	78 78       	andi	r23, 0x88	; 136
    1f70:	78 78       	andi	r23, 0x88	; 136
    1f72:	78 78       	andi	r23, 0x88	; 136
    1f74:	78 78       	andi	r23, 0x88	; 136
    1f76:	78 78       	andi	r23, 0x88	; 136
    1f78:	78 78       	andi	r23, 0x88	; 136
    1f7a:	78 78       	andi	r23, 0x88	; 136
    1f7c:	78 78       	andi	r23, 0x88	; 136
    1f7e:	78 78       	andi	r23, 0x88	; 136
    1f80:	78 78       	andi	r23, 0x88	; 136
    1f82:	78 78       	andi	r23, 0x88	; 136
    1f84:	78 78       	andi	r23, 0x88	; 136
    1f86:	78 78       	andi	r23, 0x88	; 136
    1f88:	78 78       	andi	r23, 0x88	; 136
    1f8a:	78 78       	andi	r23, 0x88	; 136
    1f8c:	78 78       	andi	r23, 0x88	; 136
    1f8e:	78 78       	andi	r23, 0x88	; 136
    1f90:	78 78       	andi	r23, 0x88	; 136
    1f92:	78 78       	andi	r23, 0x88	; 136
    1f94:	78 78       	andi	r23, 0x88	; 136
    1f96:	78 78       	andi	r23, 0x88	; 136
    1f98:	78 78       	andi	r23, 0x88	; 136
    1f9a:	78 78       	andi	r23, 0x88	; 136
    1f9c:	78 78       	andi	r23, 0x88	; 136
    1f9e:	78 78       	andi	r23, 0x88	; 136
    1fa0:	78 78       	andi	r23, 0x88	; 136
    1fa2:	78 78       	andi	r23, 0x88	; 136
    1fa4:	78 78       	andi	r23, 0x88	; 136
    1fa6:	78 78       	andi	r23, 0x88	; 136
    1fa8:	78 78       	andi	r23, 0x88	; 136
    1faa:	78 78       	andi	r23, 0x88	; 136
    1fac:	78 80       	ld	r7, Y
    1fae:	80 80       	ld	r8, Z
    1fb0:	78 78       	andi	r23, 0x88	; 136
    1fb2:	78 80       	ld	r7, Y
    1fb4:	80 80       	ld	r8, Z
    1fb6:	80 78       	andi	r24, 0x80	; 128
    1fb8:	78 78       	andi	r23, 0x88	; 136
    1fba:	78 78       	andi	r23, 0x88	; 136
    1fbc:	78 78       	andi	r23, 0x88	; 136
    1fbe:	78 78       	andi	r23, 0x88	; 136
    1fc0:	78 78       	andi	r23, 0x88	; 136
    1fc2:	78 78       	andi	r23, 0x88	; 136
    1fc4:	78 78       	andi	r23, 0x88	; 136
    1fc6:	78 78       	andi	r23, 0x88	; 136
    1fc8:	78 78       	andi	r23, 0x88	; 136
    1fca:	78 78       	andi	r23, 0x88	; 136
    1fcc:	78 78       	andi	r23, 0x88	; 136
    1fce:	78 78       	andi	r23, 0x88	; 136
    1fd0:	78 78       	andi	r23, 0x88	; 136
    1fd2:	80 80       	ld	r8, Z
    1fd4:	80 80       	ld	r8, Z
    1fd6:	80 80       	ld	r8, Z
    1fd8:	80 80       	ld	r8, Z
    1fda:	80 80       	ld	r8, Z
    1fdc:	80 80       	ld	r8, Z
    1fde:	80 80       	ld	r8, Z
    1fe0:	80 80       	ld	r8, Z
    1fe2:	80 80       	ld	r8, Z
    1fe4:	80 80       	ld	r8, Z
    1fe6:	80 80       	ld	r8, Z
    1fe8:	80 80       	ld	r8, Z
    1fea:	80 78       	andi	r24, 0x80	; 128
    1fec:	78 78       	andi	r23, 0x88	; 136
    1fee:	78 78       	andi	r23, 0x88	; 136
    1ff0:	78 78       	andi	r23, 0x88	; 136
    1ff2:	78 78       	andi	r23, 0x88	; 136
    1ff4:	78 78       	andi	r23, 0x88	; 136
    1ff6:	78 80       	ld	r7, Y
    1ff8:	80 80       	ld	r8, Z
    1ffa:	80 80       	ld	r8, Z
    1ffc:	80 80       	ld	r8, Z
    1ffe:	80 80       	ld	r8, Z
    2000:	80 80       	ld	r8, Z
    2002:	80 80       	ld	r8, Z
    2004:	80 80       	ld	r8, Z
    2006:	80 80       	ld	r8, Z
    2008:	80 80       	ld	r8, Z
    200a:	80 80       	ld	r8, Z
    200c:	80 80       	ld	r8, Z
    200e:	80 80       	ld	r8, Z
    2010:	80 80       	ld	r8, Z
    2012:	80 80       	ld	r8, Z
    2014:	80 78       	andi	r24, 0x80	; 128
    2016:	78 78       	andi	r23, 0x88	; 136
    2018:	78 78       	andi	r23, 0x88	; 136
    201a:	78 78       	andi	r23, 0x88	; 136
    201c:	78 78       	andi	r23, 0x88	; 136
    201e:	80 80       	ld	r8, Z
    2020:	80 80       	ld	r8, Z
    2022:	80 80       	ld	r8, Z
    2024:	80 80       	ld	r8, Z
    2026:	80 80       	ld	r8, Z
    2028:	80 80       	ld	r8, Z
    202a:	80 80       	ld	r8, Z
    202c:	80 80       	ld	r8, Z
    202e:	80 80       	ld	r8, Z
    2030:	80 80       	ld	r8, Z
    2032:	80 80       	ld	r8, Z
    2034:	80 80       	ld	r8, Z
    2036:	80 80       	ld	r8, Z
    2038:	80 80       	ld	r8, Z
    203a:	80 80       	ld	r8, Z
    203c:	80 80       	ld	r8, Z
    203e:	80 80       	ld	r8, Z
    2040:	80 80       	ld	r8, Z
    2042:	80 80       	ld	r8, Z
    2044:	78 78       	andi	r23, 0x88	; 136
    2046:	78 78       	andi	r23, 0x88	; 136
    2048:	78 80       	ld	r7, Y
    204a:	80 80       	ld	r8, Z
    204c:	80 80       	ld	r8, Z
    204e:	80 80       	ld	r8, Z
    2050:	80 80       	ld	r8, Z
    2052:	80 80       	ld	r8, Z
    2054:	80 80       	ld	r8, Z
    2056:	80 80       	ld	r8, Z
    2058:	80 80       	ld	r8, Z
    205a:	80 80       	ld	r8, Z
    205c:	80 80       	ld	r8, Z
    205e:	80 80       	ld	r8, Z
    2060:	80 80       	ld	r8, Z
    2062:	80 80       	ld	r8, Z
    2064:	80 80       	ld	r8, Z
    2066:	80 80       	ld	r8, Z
    2068:	80 80       	ld	r8, Z
    206a:	80 80       	ld	r8, Z
    206c:	80 80       	ld	r8, Z
    206e:	80 80       	ld	r8, Z
    2070:	80 80       	ld	r8, Z
    2072:	80 80       	ld	r8, Z
    2074:	80 80       	ld	r8, Z
    2076:	80 80       	ld	r8, Z
    2078:	80 80       	ld	r8, Z
    207a:	80 80       	ld	r8, Z
    207c:	80 80       	ld	r8, Z
    207e:	80 80       	ld	r8, Z
    2080:	80 80       	ld	r8, Z
    2082:	80 80       	ld	r8, Z
    2084:	87 87       	std	Z+15, r24	; 0x0f
    2086:	87 87       	std	Z+15, r24	; 0x0f
    2088:	87 80       	ldd	r8, Z+7	; 0x07
    208a:	80 80       	ld	r8, Z
    208c:	80 80       	ld	r8, Z
    208e:	80 80       	ld	r8, Z
    2090:	80 80       	ld	r8, Z
    2092:	80 80       	ld	r8, Z
    2094:	80 80       	ld	r8, Z
    2096:	80 80       	ld	r8, Z
    2098:	80 80       	ld	r8, Z
    209a:	80 80       	ld	r8, Z
    209c:	80 80       	ld	r8, Z
    209e:	80 80       	ld	r8, Z
    20a0:	80 80       	ld	r8, Z
    20a2:	80 80       	ld	r8, Z
    20a4:	80 80       	ld	r8, Z
    20a6:	80 80       	ld	r8, Z
    20a8:	80 80       	ld	r8, Z
    20aa:	80 80       	ld	r8, Z
    20ac:	80 80       	ld	r8, Z
    20ae:	80 80       	ld	r8, Z
    20b0:	80 80       	ld	r8, Z
    20b2:	80 80       	ld	r8, Z
    20b4:	80 80       	ld	r8, Z
    20b6:	80 80       	ld	r8, Z
    20b8:	80 80       	ld	r8, Z
    20ba:	80 80       	ld	r8, Z
    20bc:	80 80       	ld	r8, Z
    20be:	80 78       	andi	r24, 0x80	; 128
    20c0:	78 78       	andi	r23, 0x88	; 136
    20c2:	78 78       	andi	r23, 0x88	; 136
    20c4:	78 78       	andi	r23, 0x88	; 136
    20c6:	78 78       	andi	r23, 0x88	; 136
    20c8:	78 78       	andi	r23, 0x88	; 136
    20ca:	78 80       	ld	r7, Y
    20cc:	80 80       	ld	r8, Z
    20ce:	80 80       	ld	r8, Z
    20d0:	80 80       	ld	r8, Z
    20d2:	80 80       	ld	r8, Z
    20d4:	80 80       	ld	r8, Z
    20d6:	80 80       	ld	r8, Z
    20d8:	80 80       	ld	r8, Z
    20da:	80 80       	ld	r8, Z
    20dc:	80 80       	ld	r8, Z
    20de:	80 80       	ld	r8, Z
    20e0:	80 80       	ld	r8, Z
    20e2:	78 78       	andi	r23, 0x88	; 136
    20e4:	78 78       	andi	r23, 0x88	; 136
    20e6:	78 78       	andi	r23, 0x88	; 136
    20e8:	78 78       	andi	r23, 0x88	; 136
    20ea:	78 78       	andi	r23, 0x88	; 136
    20ec:	78 78       	andi	r23, 0x88	; 136
    20ee:	78 78       	andi	r23, 0x88	; 136
    20f0:	78 78       	andi	r23, 0x88	; 136
    20f2:	78 78       	andi	r23, 0x88	; 136
    20f4:	78 78       	andi	r23, 0x88	; 136
    20f6:	78 78       	andi	r23, 0x88	; 136
    20f8:	78 78       	andi	r23, 0x88	; 136
    20fa:	78 78       	andi	r23, 0x88	; 136
    20fc:	78 78       	andi	r23, 0x88	; 136
    20fe:	78 78       	andi	r23, 0x88	; 136
    2100:	80 80       	ld	r8, Z
    2102:	80 80       	ld	r8, Z
    2104:	80 80       	ld	r8, Z
    2106:	80 80       	ld	r8, Z
    2108:	80 80       	ld	r8, Z
    210a:	80 80       	ld	r8, Z
    210c:	80 80       	ld	r8, Z
    210e:	78 78       	andi	r23, 0x88	; 136
    2110:	78 78       	andi	r23, 0x88	; 136
    2112:	78 78       	andi	r23, 0x88	; 136
    2114:	78 78       	andi	r23, 0x88	; 136
    2116:	78 78       	andi	r23, 0x88	; 136
    2118:	78 78       	andi	r23, 0x88	; 136
    211a:	78 78       	andi	r23, 0x88	; 136
    211c:	78 78       	andi	r23, 0x88	; 136
    211e:	78 78       	andi	r23, 0x88	; 136
    2120:	80 80       	ld	r8, Z
    2122:	80 80       	ld	r8, Z
    2124:	80 80       	ld	r8, Z
    2126:	80 80       	ld	r8, Z
    2128:	80 80       	ld	r8, Z
    212a:	80 80       	ld	r8, Z
    212c:	80 80       	ld	r8, Z
    212e:	80 80       	ld	r8, Z
    2130:	80 80       	ld	r8, Z
    2132:	80 80       	ld	r8, Z
    2134:	80 80       	ld	r8, Z
    2136:	80 80       	ld	r8, Z
    2138:	80 80       	ld	r8, Z
    213a:	80 80       	ld	r8, Z
    213c:	78 78       	andi	r23, 0x88	; 136
    213e:	78 78       	andi	r23, 0x88	; 136
    2140:	78 78       	andi	r23, 0x88	; 136
    2142:	78 78       	andi	r23, 0x88	; 136
    2144:	78 78       	andi	r23, 0x88	; 136
    2146:	80 80       	ld	r8, Z
    2148:	80 80       	ld	r8, Z
    214a:	80 80       	ld	r8, Z
    214c:	80 80       	ld	r8, Z
    214e:	80 80       	ld	r8, Z
    2150:	80 80       	ld	r8, Z
    2152:	80 80       	ld	r8, Z
    2154:	80 80       	ld	r8, Z
    2156:	80 80       	ld	r8, Z
    2158:	80 80       	ld	r8, Z
    215a:	80 80       	ld	r8, Z
    215c:	80 80       	ld	r8, Z
    215e:	80 80       	ld	r8, Z
    2160:	80 80       	ld	r8, Z
    2162:	80 80       	ld	r8, Z
    2164:	80 80       	ld	r8, Z
    2166:	80 80       	ld	r8, Z
    2168:	80 80       	ld	r8, Z
    216a:	80 80       	ld	r8, Z
    216c:	80 80       	ld	r8, Z
    216e:	80 80       	ld	r8, Z
    2170:	80 80       	ld	r8, Z
    2172:	80 80       	ld	r8, Z
    2174:	80 80       	ld	r8, Z
    2176:	80 80       	ld	r8, Z
    2178:	80 80       	ld	r8, Z
    217a:	80 80       	ld	r8, Z
    217c:	80 80       	ld	r8, Z
    217e:	80 80       	ld	r8, Z
    2180:	80 80       	ld	r8, Z
    2182:	80 80       	ld	r8, Z
    2184:	80 80       	ld	r8, Z
    2186:	80 80       	ld	r8, Z
    2188:	80 80       	ld	r8, Z
    218a:	80 80       	ld	r8, Z
    218c:	80 80       	ld	r8, Z
    218e:	80 80       	ld	r8, Z
    2190:	80 80       	ld	r8, Z
    2192:	80 80       	ld	r8, Z
    2194:	80 80       	ld	r8, Z
    2196:	80 80       	ld	r8, Z
    2198:	80 80       	ld	r8, Z
    219a:	80 80       	ld	r8, Z
    219c:	80 80       	ld	r8, Z
    219e:	80 80       	ld	r8, Z
    21a0:	80 80       	ld	r8, Z
    21a2:	80 80       	ld	r8, Z
    21a4:	80 80       	ld	r8, Z
    21a6:	80 80       	ld	r8, Z
    21a8:	80 80       	ld	r8, Z
    21aa:	80 80       	ld	r8, Z
    21ac:	80 80       	ld	r8, Z
    21ae:	80 80       	ld	r8, Z
    21b0:	80 80       	ld	r8, Z
    21b2:	80 80       	ld	r8, Z
    21b4:	80 80       	ld	r8, Z
    21b6:	80 80       	ld	r8, Z
    21b8:	80 80       	ld	r8, Z
    21ba:	80 80       	ld	r8, Z
    21bc:	80 78       	andi	r24, 0x80	; 128
    21be:	78 78       	andi	r23, 0x88	; 136
    21c0:	80 80       	ld	r8, Z
    21c2:	80 80       	ld	r8, Z
    21c4:	80 80       	ld	r8, Z
    21c6:	80 80       	ld	r8, Z
    21c8:	80 80       	ld	r8, Z
    21ca:	80 80       	ld	r8, Z
    21cc:	80 80       	ld	r8, Z
    21ce:	80 80       	ld	r8, Z
    21d0:	80 80       	ld	r8, Z
    21d2:	80 80       	ld	r8, Z
    21d4:	80 80       	ld	r8, Z
    21d6:	80 80       	ld	r8, Z
    21d8:	80 80       	ld	r8, Z
    21da:	80 80       	ld	r8, Z
    21dc:	80 80       	ld	r8, Z
    21de:	80 80       	ld	r8, Z
    21e0:	80 80       	ld	r8, Z
    21e2:	80 80       	ld	r8, Z
    21e4:	80 80       	ld	r8, Z
    21e6:	78 78       	andi	r23, 0x88	; 136
    21e8:	78 80       	ld	r7, Y
    21ea:	80 80       	ld	r8, Z
    21ec:	80 80       	ld	r8, Z
    21ee:	78 78       	andi	r23, 0x88	; 136
    21f0:	78 78       	andi	r23, 0x88	; 136
    21f2:	78 78       	andi	r23, 0x88	; 136
    21f4:	78 78       	andi	r23, 0x88	; 136
    21f6:	78 78       	andi	r23, 0x88	; 136
    21f8:	78 78       	andi	r23, 0x88	; 136
    21fa:	78 78       	andi	r23, 0x88	; 136
    21fc:	78 78       	andi	r23, 0x88	; 136
    21fe:	78 80       	ld	r7, Y
    2200:	80 80       	ld	r8, Z
    2202:	80 80       	ld	r8, Z
    2204:	80 80       	ld	r8, Z
    2206:	80 80       	ld	r8, Z
    2208:	80 80       	ld	r8, Z
    220a:	80 80       	ld	r8, Z
    220c:	80 80       	ld	r8, Z
    220e:	80 80       	ld	r8, Z
    2210:	80 80       	ld	r8, Z
    2212:	80 80       	ld	r8, Z
    2214:	80 80       	ld	r8, Z
    2216:	80 80       	ld	r8, Z
    2218:	80 80       	ld	r8, Z
    221a:	80 80       	ld	r8, Z
    221c:	80 78       	andi	r24, 0x80	; 128
    221e:	78 78       	andi	r23, 0x88	; 136
    2220:	78 78       	andi	r23, 0x88	; 136
    2222:	78 78       	andi	r23, 0x88	; 136
    2224:	78 78       	andi	r23, 0x88	; 136
    2226:	78 78       	andi	r23, 0x88	; 136
    2228:	78 78       	andi	r23, 0x88	; 136
    222a:	78 78       	andi	r23, 0x88	; 136
    222c:	78 78       	andi	r23, 0x88	; 136
    222e:	78 78       	andi	r23, 0x88	; 136
    2230:	80 80       	ld	r8, Z
    2232:	80 80       	ld	r8, Z
    2234:	80 80       	ld	r8, Z
    2236:	80 78       	andi	r24, 0x80	; 128
    2238:	78 78       	andi	r23, 0x88	; 136
    223a:	80 80       	ld	r8, Z
    223c:	80 80       	ld	r8, Z
    223e:	80 80       	ld	r8, Z
    2240:	80 80       	ld	r8, Z
    2242:	80 80       	ld	r8, Z
    2244:	80 80       	ld	r8, Z
    2246:	80 80       	ld	r8, Z
    2248:	80 80       	ld	r8, Z
    224a:	80 80       	ld	r8, Z
    224c:	78 78       	andi	r23, 0x88	; 136
    224e:	80 80       	ld	r8, Z
    2250:	78 78       	andi	r23, 0x88	; 136
    2252:	78 78       	andi	r23, 0x88	; 136
    2254:	78 80       	ld	r7, Y
    2256:	80 80       	ld	r8, Z
    2258:	80 80       	ld	r8, Z
    225a:	80 80       	ld	r8, Z
    225c:	80 80       	ld	r8, Z
    225e:	80 80       	ld	r8, Z
    2260:	80 80       	ld	r8, Z
    2262:	80 80       	ld	r8, Z
    2264:	80 80       	ld	r8, Z
    2266:	80 80       	ld	r8, Z
    2268:	80 80       	ld	r8, Z
    226a:	80 80       	ld	r8, Z
    226c:	80 80       	ld	r8, Z
    226e:	80 80       	ld	r8, Z
    2270:	80 80       	ld	r8, Z
    2272:	80 80       	ld	r8, Z
    2274:	80 80       	ld	r8, Z
    2276:	80 80       	ld	r8, Z
    2278:	80 80       	ld	r8, Z
    227a:	80 80       	ld	r8, Z
    227c:	80 80       	ld	r8, Z
    227e:	80 80       	ld	r8, Z
    2280:	80 80       	ld	r8, Z
    2282:	80 80       	ld	r8, Z
    2284:	80 80       	ld	r8, Z
    2286:	80 80       	ld	r8, Z
    2288:	80 80       	ld	r8, Z
    228a:	80 80       	ld	r8, Z
    228c:	80 80       	ld	r8, Z
    228e:	80 80       	ld	r8, Z
    2290:	80 80       	ld	r8, Z
    2292:	80 80       	ld	r8, Z
    2294:	80 80       	ld	r8, Z
    2296:	80 80       	ld	r8, Z
    2298:	80 80       	ld	r8, Z
    229a:	80 80       	ld	r8, Z
    229c:	80 80       	ld	r8, Z
    229e:	80 80       	ld	r8, Z
    22a0:	80 80       	ld	r8, Z
    22a2:	80 80       	ld	r8, Z
    22a4:	80 80       	ld	r8, Z
    22a6:	80 80       	ld	r8, Z
    22a8:	80 80       	ld	r8, Z
    22aa:	80 80       	ld	r8, Z
    22ac:	80 80       	ld	r8, Z
    22ae:	80 80       	ld	r8, Z
    22b0:	80 80       	ld	r8, Z
    22b2:	80 80       	ld	r8, Z
    22b4:	80 80       	ld	r8, Z
    22b6:	80 80       	ld	r8, Z
    22b8:	80 80       	ld	r8, Z
    22ba:	80 78       	andi	r24, 0x80	; 128
    22bc:	78 78       	andi	r23, 0x88	; 136
    22be:	78 78       	andi	r23, 0x88	; 136
    22c0:	78 78       	andi	r23, 0x88	; 136
    22c2:	78 78       	andi	r23, 0x88	; 136
    22c4:	78 78       	andi	r23, 0x88	; 136
    22c6:	78 78       	andi	r23, 0x88	; 136
    22c8:	78 78       	andi	r23, 0x88	; 136
    22ca:	78 78       	andi	r23, 0x88	; 136
    22cc:	78 78       	andi	r23, 0x88	; 136
    22ce:	78 78       	andi	r23, 0x88	; 136
    22d0:	78 78       	andi	r23, 0x88	; 136
    22d2:	78 78       	andi	r23, 0x88	; 136
    22d4:	80 80       	ld	r8, Z
    22d6:	80 78       	andi	r24, 0x80	; 128
    22d8:	78 78       	andi	r23, 0x88	; 136
    22da:	78 78       	andi	r23, 0x88	; 136
    22dc:	78 78       	andi	r23, 0x88	; 136
    22de:	78 78       	andi	r23, 0x88	; 136
    22e0:	78 78       	andi	r23, 0x88	; 136
    22e2:	78 78       	andi	r23, 0x88	; 136
    22e4:	78 78       	andi	r23, 0x88	; 136
    22e6:	78 78       	andi	r23, 0x88	; 136
    22e8:	78 78       	andi	r23, 0x88	; 136
    22ea:	78 78       	andi	r23, 0x88	; 136
    22ec:	78 78       	andi	r23, 0x88	; 136
    22ee:	78 78       	andi	r23, 0x88	; 136
    22f0:	78 78       	andi	r23, 0x88	; 136
    22f2:	78 78       	andi	r23, 0x88	; 136
    22f4:	78 78       	andi	r23, 0x88	; 136
    22f6:	78 78       	andi	r23, 0x88	; 136
    22f8:	78 78       	andi	r23, 0x88	; 136
    22fa:	78 78       	andi	r23, 0x88	; 136
    22fc:	78 78       	andi	r23, 0x88	; 136
    22fe:	78 78       	andi	r23, 0x88	; 136
    2300:	78 78       	andi	r23, 0x88	; 136
    2302:	78 78       	andi	r23, 0x88	; 136
    2304:	78 78       	andi	r23, 0x88	; 136
    2306:	78 78       	andi	r23, 0x88	; 136
    2308:	78 78       	andi	r23, 0x88	; 136
    230a:	78 78       	andi	r23, 0x88	; 136
    230c:	78 78       	andi	r23, 0x88	; 136
    230e:	78 78       	andi	r23, 0x88	; 136
    2310:	78 78       	andi	r23, 0x88	; 136
    2312:	78 78       	andi	r23, 0x88	; 136
    2314:	78 78       	andi	r23, 0x88	; 136
    2316:	78 78       	andi	r23, 0x88	; 136
    2318:	78 78       	andi	r23, 0x88	; 136
    231a:	78 78       	andi	r23, 0x88	; 136
    231c:	78 78       	andi	r23, 0x88	; 136
    231e:	78 78       	andi	r23, 0x88	; 136
    2320:	78 78       	andi	r23, 0x88	; 136
    2322:	78 78       	andi	r23, 0x88	; 136
    2324:	78 78       	andi	r23, 0x88	; 136
    2326:	78 78       	andi	r23, 0x88	; 136
    2328:	78 78       	andi	r23, 0x88	; 136
    232a:	78 78       	andi	r23, 0x88	; 136
    232c:	78 78       	andi	r23, 0x88	; 136
    232e:	78 78       	andi	r23, 0x88	; 136
    2330:	78 78       	andi	r23, 0x88	; 136
    2332:	78 78       	andi	r23, 0x88	; 136
    2334:	78 78       	andi	r23, 0x88	; 136
    2336:	78 78       	andi	r23, 0x88	; 136
    2338:	78 78       	andi	r23, 0x88	; 136
    233a:	78 78       	andi	r23, 0x88	; 136
    233c:	78 78       	andi	r23, 0x88	; 136
    233e:	78 78       	andi	r23, 0x88	; 136
    2340:	78 78       	andi	r23, 0x88	; 136
    2342:	78 78       	andi	r23, 0x88	; 136
    2344:	78 78       	andi	r23, 0x88	; 136
    2346:	78 78       	andi	r23, 0x88	; 136
    2348:	78 78       	andi	r23, 0x88	; 136
    234a:	78 78       	andi	r23, 0x88	; 136
    234c:	78 78       	andi	r23, 0x88	; 136
    234e:	78 78       	andi	r23, 0x88	; 136
    2350:	78 78       	andi	r23, 0x88	; 136
    2352:	78 78       	andi	r23, 0x88	; 136
    2354:	78 78       	andi	r23, 0x88	; 136
    2356:	78 78       	andi	r23, 0x88	; 136
    2358:	78 78       	andi	r23, 0x88	; 136
    235a:	78 78       	andi	r23, 0x88	; 136
    235c:	78 78       	andi	r23, 0x88	; 136
    235e:	78 78       	andi	r23, 0x88	; 136
    2360:	78 78       	andi	r23, 0x88	; 136
    2362:	78 78       	andi	r23, 0x88	; 136
    2364:	78 78       	andi	r23, 0x88	; 136
    2366:	78 78       	andi	r23, 0x88	; 136
    2368:	78 78       	andi	r23, 0x88	; 136
    236a:	78 78       	andi	r23, 0x88	; 136
    236c:	78 78       	andi	r23, 0x88	; 136
    236e:	78 78       	andi	r23, 0x88	; 136
    2370:	78 78       	andi	r23, 0x88	; 136
    2372:	78 78       	andi	r23, 0x88	; 136
    2374:	78 78       	andi	r23, 0x88	; 136
    2376:	78 78       	andi	r23, 0x88	; 136
    2378:	78 78       	andi	r23, 0x88	; 136
    237a:	78 78       	andi	r23, 0x88	; 136
    237c:	78 78       	andi	r23, 0x88	; 136
    237e:	78 78       	andi	r23, 0x88	; 136
    2380:	78 78       	andi	r23, 0x88	; 136
    2382:	78 78       	andi	r23, 0x88	; 136
    2384:	78 78       	andi	r23, 0x88	; 136
    2386:	78 78       	andi	r23, 0x88	; 136
    2388:	78 78       	andi	r23, 0x88	; 136
    238a:	78 78       	andi	r23, 0x88	; 136
    238c:	78 78       	andi	r23, 0x88	; 136
    238e:	78 78       	andi	r23, 0x88	; 136
    2390:	78 78       	andi	r23, 0x88	; 136
    2392:	78 78       	andi	r23, 0x88	; 136
    2394:	78 78       	andi	r23, 0x88	; 136
    2396:	78 78       	andi	r23, 0x88	; 136
    2398:	78 78       	andi	r23, 0x88	; 136
    239a:	78 78       	andi	r23, 0x88	; 136
    239c:	78 78       	andi	r23, 0x88	; 136
    239e:	78 78       	andi	r23, 0x88	; 136
    23a0:	78 78       	andi	r23, 0x88	; 136
    23a2:	78 78       	andi	r23, 0x88	; 136
    23a4:	78 78       	andi	r23, 0x88	; 136
    23a6:	78 78       	andi	r23, 0x88	; 136
    23a8:	78 78       	andi	r23, 0x88	; 136
    23aa:	78 78       	andi	r23, 0x88	; 136
    23ac:	78 78       	andi	r23, 0x88	; 136
    23ae:	78 78       	andi	r23, 0x88	; 136
    23b0:	78 78       	andi	r23, 0x88	; 136
    23b2:	78 78       	andi	r23, 0x88	; 136
    23b4:	78 78       	andi	r23, 0x88	; 136
    23b6:	78 78       	andi	r23, 0x88	; 136
    23b8:	78 78       	andi	r23, 0x88	; 136
    23ba:	78 78       	andi	r23, 0x88	; 136
    23bc:	78 78       	andi	r23, 0x88	; 136
    23be:	78 78       	andi	r23, 0x88	; 136
    23c0:	78 78       	andi	r23, 0x88	; 136
    23c2:	78 80       	ld	r7, Y
    23c4:	80 80       	ld	r8, Z
    23c6:	80 80       	ld	r8, Z
    23c8:	80 80       	ld	r8, Z
    23ca:	78 78       	andi	r23, 0x88	; 136
    23cc:	78 78       	andi	r23, 0x88	; 136
    23ce:	78 78       	andi	r23, 0x88	; 136
    23d0:	78 78       	andi	r23, 0x88	; 136
    23d2:	78 78       	andi	r23, 0x88	; 136
    23d4:	78 78       	andi	r23, 0x88	; 136
    23d6:	78 78       	andi	r23, 0x88	; 136
    23d8:	78 80       	ld	r7, Y
    23da:	80 78       	andi	r24, 0x80	; 128
    23dc:	78 78       	andi	r23, 0x88	; 136
    23de:	78 78       	andi	r23, 0x88	; 136
    23e0:	78 78       	andi	r23, 0x88	; 136
    23e2:	80 80       	ld	r8, Z
    23e4:	80 80       	ld	r8, Z
    23e6:	80 80       	ld	r8, Z
    23e8:	80 80       	ld	r8, Z
    23ea:	80 80       	ld	r8, Z
    23ec:	80 80       	ld	r8, Z
    23ee:	80 80       	ld	r8, Z
    23f0:	80 80       	ld	r8, Z
    23f2:	78 78       	andi	r23, 0x88	; 136
    23f4:	78 78       	andi	r23, 0x88	; 136
    23f6:	78 80       	ld	r7, Y
    23f8:	80 80       	ld	r8, Z
    23fa:	80 80       	ld	r8, Z
    23fc:	80 80       	ld	r8, Z
    23fe:	80 80       	ld	r8, Z
    2400:	78 78       	andi	r23, 0x88	; 136
    2402:	78 78       	andi	r23, 0x88	; 136
    2404:	78 78       	andi	r23, 0x88	; 136
    2406:	78 80       	ld	r7, Y
    2408:	80 80       	ld	r8, Z
    240a:	80 80       	ld	r8, Z
    240c:	80 80       	ld	r8, Z
    240e:	80 80       	ld	r8, Z
    2410:	80 80       	ld	r8, Z
    2412:	80 80       	ld	r8, Z
    2414:	80 78       	andi	r24, 0x80	; 128
    2416:	78 78       	andi	r23, 0x88	; 136
    2418:	80 80       	ld	r8, Z
    241a:	80 80       	ld	r8, Z
    241c:	80 80       	ld	r8, Z
    241e:	80 80       	ld	r8, Z
    2420:	80 80       	ld	r8, Z
    2422:	80 80       	ld	r8, Z
    2424:	80 78       	andi	r24, 0x80	; 128
    2426:	78 78       	andi	r23, 0x88	; 136
    2428:	78 78       	andi	r23, 0x88	; 136
    242a:	78 78       	andi	r23, 0x88	; 136
    242c:	80 80       	ld	r8, Z
    242e:	80 80       	ld	r8, Z
    2430:	80 80       	ld	r8, Z
    2432:	80 80       	ld	r8, Z
    2434:	78 78       	andi	r23, 0x88	; 136
    2436:	78 78       	andi	r23, 0x88	; 136
    2438:	78 80       	ld	r7, Y
    243a:	80 80       	ld	r8, Z
    243c:	80 80       	ld	r8, Z
    243e:	80 80       	ld	r8, Z
    2440:	80 80       	ld	r8, Z
    2442:	80 80       	ld	r8, Z
    2444:	80 80       	ld	r8, Z
    2446:	80 80       	ld	r8, Z
    2448:	80 80       	ld	r8, Z
    244a:	80 80       	ld	r8, Z
    244c:	80 80       	ld	r8, Z
    244e:	80 80       	ld	r8, Z
    2450:	80 80       	ld	r8, Z
    2452:	80 80       	ld	r8, Z
    2454:	80 80       	ld	r8, Z
    2456:	80 80       	ld	r8, Z
    2458:	80 80       	ld	r8, Z
    245a:	80 80       	ld	r8, Z
    245c:	80 80       	ld	r8, Z
    245e:	80 80       	ld	r8, Z
    2460:	80 80       	ld	r8, Z
    2462:	80 80       	ld	r8, Z
    2464:	80 80       	ld	r8, Z
    2466:	80 80       	ld	r8, Z
    2468:	80 80       	ld	r8, Z
    246a:	80 80       	ld	r8, Z
    246c:	80 80       	ld	r8, Z
    246e:	80 80       	ld	r8, Z
    2470:	80 80       	ld	r8, Z
    2472:	80 80       	ld	r8, Z
    2474:	80 80       	ld	r8, Z
    2476:	80 80       	ld	r8, Z
    2478:	80 80       	ld	r8, Z
    247a:	80 80       	ld	r8, Z
    247c:	80 80       	ld	r8, Z
    247e:	80 80       	ld	r8, Z
    2480:	80 80       	ld	r8, Z
    2482:	80 80       	ld	r8, Z
    2484:	80 80       	ld	r8, Z
    2486:	80 80       	ld	r8, Z
    2488:	80 80       	ld	r8, Z
    248a:	80 80       	ld	r8, Z
    248c:	80 80       	ld	r8, Z
    248e:	80 80       	ld	r8, Z
    2490:	80 80       	ld	r8, Z
    2492:	80 80       	ld	r8, Z
    2494:	80 80       	ld	r8, Z
    2496:	80 80       	ld	r8, Z
    2498:	80 80       	ld	r8, Z
    249a:	80 80       	ld	r8, Z
    249c:	80 80       	ld	r8, Z
    249e:	80 80       	ld	r8, Z
    24a0:	80 80       	ld	r8, Z
    24a2:	80 80       	ld	r8, Z
    24a4:	80 80       	ld	r8, Z
    24a6:	80 80       	ld	r8, Z
    24a8:	80 80       	ld	r8, Z
    24aa:	80 80       	ld	r8, Z
    24ac:	80 80       	ld	r8, Z
    24ae:	80 80       	ld	r8, Z
    24b0:	80 80       	ld	r8, Z
    24b2:	80 80       	ld	r8, Z
    24b4:	80 80       	ld	r8, Z
    24b6:	80 80       	ld	r8, Z
    24b8:	80 80       	ld	r8, Z
    24ba:	80 80       	ld	r8, Z
    24bc:	80 80       	ld	r8, Z
    24be:	80 80       	ld	r8, Z
    24c0:	80 80       	ld	r8, Z
    24c2:	80 80       	ld	r8, Z
    24c4:	80 80       	ld	r8, Z
    24c6:	80 80       	ld	r8, Z
    24c8:	80 80       	ld	r8, Z
    24ca:	80 80       	ld	r8, Z
    24cc:	80 80       	ld	r8, Z
    24ce:	80 80       	ld	r8, Z
    24d0:	80 80       	ld	r8, Z
    24d2:	80 80       	ld	r8, Z
    24d4:	80 80       	ld	r8, Z
    24d6:	80 80       	ld	r8, Z
    24d8:	80 80       	ld	r8, Z
    24da:	80 80       	ld	r8, Z
    24dc:	80 80       	ld	r8, Z
    24de:	80 80       	ld	r8, Z
    24e0:	80 80       	ld	r8, Z
    24e2:	80 80       	ld	r8, Z
    24e4:	80 80       	ld	r8, Z
    24e6:	80 80       	ld	r8, Z
    24e8:	80 80       	ld	r8, Z
    24ea:	80 80       	ld	r8, Z
    24ec:	80 80       	ld	r8, Z
    24ee:	80 80       	ld	r8, Z
    24f0:	80 80       	ld	r8, Z
    24f2:	80 80       	ld	r8, Z
    24f4:	80 80       	ld	r8, Z
    24f6:	80 80       	ld	r8, Z
    24f8:	80 80       	ld	r8, Z
    24fa:	80 80       	ld	r8, Z
    24fc:	80 80       	ld	r8, Z
    24fe:	80 80       	ld	r8, Z
    2500:	80 80       	ld	r8, Z
    2502:	80 80       	ld	r8, Z
    2504:	80 80       	ld	r8, Z
    2506:	80 80       	ld	r8, Z
    2508:	80 80       	ld	r8, Z
    250a:	80 80       	ld	r8, Z
    250c:	80 80       	ld	r8, Z
    250e:	80 80       	ld	r8, Z
    2510:	80 80       	ld	r8, Z
    2512:	80 80       	ld	r8, Z
    2514:	80 80       	ld	r8, Z
    2516:	80 80       	ld	r8, Z
    2518:	80 80       	ld	r8, Z
    251a:	80 80       	ld	r8, Z
    251c:	80 80       	ld	r8, Z
    251e:	80 80       	ld	r8, Z
    2520:	80 80       	ld	r8, Z
    2522:	80 80       	ld	r8, Z
    2524:	80 78       	andi	r24, 0x80	; 128
    2526:	78 78       	andi	r23, 0x88	; 136
    2528:	78 78       	andi	r23, 0x88	; 136
    252a:	78 78       	andi	r23, 0x88	; 136
    252c:	78 78       	andi	r23, 0x88	; 136
    252e:	78 78       	andi	r23, 0x88	; 136
    2530:	78 78       	andi	r23, 0x88	; 136
    2532:	78 78       	andi	r23, 0x88	; 136
    2534:	78 78       	andi	r23, 0x88	; 136
    2536:	78 78       	andi	r23, 0x88	; 136
    2538:	78 78       	andi	r23, 0x88	; 136
    253a:	78 78       	andi	r23, 0x88	; 136
    253c:	78 78       	andi	r23, 0x88	; 136
    253e:	78 78       	andi	r23, 0x88	; 136
    2540:	78 78       	andi	r23, 0x88	; 136
    2542:	78 78       	andi	r23, 0x88	; 136
    2544:	78 78       	andi	r23, 0x88	; 136
    2546:	78 78       	andi	r23, 0x88	; 136
    2548:	78 78       	andi	r23, 0x88	; 136
    254a:	78 78       	andi	r23, 0x88	; 136
    254c:	78 78       	andi	r23, 0x88	; 136
    254e:	78 78       	andi	r23, 0x88	; 136
    2550:	78 78       	andi	r23, 0x88	; 136
    2552:	78 78       	andi	r23, 0x88	; 136
    2554:	78 78       	andi	r23, 0x88	; 136
    2556:	78 78       	andi	r23, 0x88	; 136
    2558:	78 78       	andi	r23, 0x88	; 136
    255a:	78 78       	andi	r23, 0x88	; 136
    255c:	78 78       	andi	r23, 0x88	; 136
    255e:	78 78       	andi	r23, 0x88	; 136
    2560:	78 78       	andi	r23, 0x88	; 136
    2562:	78 78       	andi	r23, 0x88	; 136
    2564:	78 78       	andi	r23, 0x88	; 136
    2566:	78 78       	andi	r23, 0x88	; 136
    2568:	78 78       	andi	r23, 0x88	; 136
    256a:	78 78       	andi	r23, 0x88	; 136
    256c:	78 78       	andi	r23, 0x88	; 136
    256e:	78 78       	andi	r23, 0x88	; 136
    2570:	78 78       	andi	r23, 0x88	; 136
    2572:	78 78       	andi	r23, 0x88	; 136
    2574:	78 78       	andi	r23, 0x88	; 136
    2576:	78 78       	andi	r23, 0x88	; 136
    2578:	78 78       	andi	r23, 0x88	; 136
    257a:	78 78       	andi	r23, 0x88	; 136
    257c:	78 78       	andi	r23, 0x88	; 136
    257e:	78 78       	andi	r23, 0x88	; 136
    2580:	78 78       	andi	r23, 0x88	; 136
    2582:	78 78       	andi	r23, 0x88	; 136
    2584:	78 78       	andi	r23, 0x88	; 136
    2586:	78 78       	andi	r23, 0x88	; 136
    2588:	78 78       	andi	r23, 0x88	; 136
    258a:	78 78       	andi	r23, 0x88	; 136
    258c:	78 78       	andi	r23, 0x88	; 136
    258e:	78 78       	andi	r23, 0x88	; 136
    2590:	78 78       	andi	r23, 0x88	; 136
    2592:	78 78       	andi	r23, 0x88	; 136
    2594:	78 78       	andi	r23, 0x88	; 136
    2596:	78 78       	andi	r23, 0x88	; 136
    2598:	78 78       	andi	r23, 0x88	; 136
    259a:	78 78       	andi	r23, 0x88	; 136
    259c:	78 78       	andi	r23, 0x88	; 136
    259e:	78 78       	andi	r23, 0x88	; 136
    25a0:	80 80       	ld	r8, Z
    25a2:	80 80       	ld	r8, Z
    25a4:	80 80       	ld	r8, Z
    25a6:	80 80       	ld	r8, Z
    25a8:	80 80       	ld	r8, Z
    25aa:	80 80       	ld	r8, Z
    25ac:	80 80       	ld	r8, Z
    25ae:	80 80       	ld	r8, Z
    25b0:	80 80       	ld	r8, Z
    25b2:	78 78       	andi	r23, 0x88	; 136
    25b4:	78 78       	andi	r23, 0x88	; 136
    25b6:	78 78       	andi	r23, 0x88	; 136
    25b8:	78 78       	andi	r23, 0x88	; 136
    25ba:	78 80       	ld	r7, Y
    25bc:	80 80       	ld	r8, Z
    25be:	80 80       	ld	r8, Z
    25c0:	80 80       	ld	r8, Z
    25c2:	80 80       	ld	r8, Z
    25c4:	80 80       	ld	r8, Z
    25c6:	80 80       	ld	r8, Z
    25c8:	80 80       	ld	r8, Z
    25ca:	80 80       	ld	r8, Z
    25cc:	80 80       	ld	r8, Z
    25ce:	80 80       	ld	r8, Z
    25d0:	80 80       	ld	r8, Z
    25d2:	80 80       	ld	r8, Z
    25d4:	80 80       	ld	r8, Z
    25d6:	80 80       	ld	r8, Z
    25d8:	80 80       	ld	r8, Z
    25da:	80 80       	ld	r8, Z
    25dc:	80 80       	ld	r8, Z
    25de:	80 80       	ld	r8, Z
    25e0:	80 80       	ld	r8, Z
    25e2:	78 78       	andi	r23, 0x88	; 136
    25e4:	78 78       	andi	r23, 0x88	; 136
    25e6:	78 78       	andi	r23, 0x88	; 136
    25e8:	78 78       	andi	r23, 0x88	; 136
    25ea:	78 78       	andi	r23, 0x88	; 136
    25ec:	78 78       	andi	r23, 0x88	; 136
    25ee:	78 78       	andi	r23, 0x88	; 136
    25f0:	78 78       	andi	r23, 0x88	; 136
    25f2:	78 78       	andi	r23, 0x88	; 136
    25f4:	80 80       	ld	r8, Z
    25f6:	80 80       	ld	r8, Z
    25f8:	80 80       	ld	r8, Z
    25fa:	80 80       	ld	r8, Z
    25fc:	80 80       	ld	r8, Z
    25fe:	78 78       	andi	r23, 0x88	; 136
    2600:	78 78       	andi	r23, 0x88	; 136
    2602:	78 78       	andi	r23, 0x88	; 136
    2604:	78 78       	andi	r23, 0x88	; 136
    2606:	78 78       	andi	r23, 0x88	; 136
    2608:	78 78       	andi	r23, 0x88	; 136
    260a:	78 78       	andi	r23, 0x88	; 136
    260c:	78 78       	andi	r23, 0x88	; 136
    260e:	78 78       	andi	r23, 0x88	; 136
    2610:	78 78       	andi	r23, 0x88	; 136
    2612:	78 78       	andi	r23, 0x88	; 136
    2614:	78 78       	andi	r23, 0x88	; 136
    2616:	78 78       	andi	r23, 0x88	; 136
    2618:	78 78       	andi	r23, 0x88	; 136
    261a:	78 78       	andi	r23, 0x88	; 136
    261c:	78 78       	andi	r23, 0x88	; 136
    261e:	78 78       	andi	r23, 0x88	; 136
    2620:	78 78       	andi	r23, 0x88	; 136
    2622:	78 78       	andi	r23, 0x88	; 136
    2624:	78 78       	andi	r23, 0x88	; 136
    2626:	78 78       	andi	r23, 0x88	; 136
    2628:	78 78       	andi	r23, 0x88	; 136
    262a:	78 78       	andi	r23, 0x88	; 136
    262c:	78 78       	andi	r23, 0x88	; 136
    262e:	78 78       	andi	r23, 0x88	; 136
    2630:	78 78       	andi	r23, 0x88	; 136
    2632:	78 80       	ld	r7, Y
    2634:	78 78       	andi	r23, 0x88	; 136
    2636:	78 78       	andi	r23, 0x88	; 136
    2638:	78 78       	andi	r23, 0x88	; 136
    263a:	78 78       	andi	r23, 0x88	; 136
    263c:	78 78       	andi	r23, 0x88	; 136
    263e:	78 78       	andi	r23, 0x88	; 136
    2640:	78 78       	andi	r23, 0x88	; 136
    2642:	78 78       	andi	r23, 0x88	; 136
    2644:	78 78       	andi	r23, 0x88	; 136
    2646:	78 78       	andi	r23, 0x88	; 136
    2648:	78 78       	andi	r23, 0x88	; 136
    264a:	78 78       	andi	r23, 0x88	; 136
    264c:	78 78       	andi	r23, 0x88	; 136
    264e:	78 78       	andi	r23, 0x88	; 136
    2650:	78 78       	andi	r23, 0x88	; 136
    2652:	78 78       	andi	r23, 0x88	; 136
    2654:	80 80       	ld	r8, Z
    2656:	80 80       	ld	r8, Z
    2658:	78 78       	andi	r23, 0x88	; 136
    265a:	78 78       	andi	r23, 0x88	; 136
    265c:	80 80       	ld	r8, Z
    265e:	80 80       	ld	r8, Z
    2660:	80 80       	ld	r8, Z
    2662:	78 78       	andi	r23, 0x88	; 136
    2664:	78 78       	andi	r23, 0x88	; 136
    2666:	78 78       	andi	r23, 0x88	; 136
    2668:	78 78       	andi	r23, 0x88	; 136
    266a:	78 78       	andi	r23, 0x88	; 136
    266c:	78 78       	andi	r23, 0x88	; 136
    266e:	78 78       	andi	r23, 0x88	; 136
    2670:	78 78       	andi	r23, 0x88	; 136
    2672:	78 78       	andi	r23, 0x88	; 136
    2674:	78 78       	andi	r23, 0x88	; 136
    2676:	78 78       	andi	r23, 0x88	; 136
    2678:	78 78       	andi	r23, 0x88	; 136
    267a:	78 78       	andi	r23, 0x88	; 136
    267c:	78 78       	andi	r23, 0x88	; 136
    267e:	78 78       	andi	r23, 0x88	; 136
    2680:	78 78       	andi	r23, 0x88	; 136
    2682:	78 78       	andi	r23, 0x88	; 136
    2684:	78 78       	andi	r23, 0x88	; 136
    2686:	78 78       	andi	r23, 0x88	; 136
    2688:	78 78       	andi	r23, 0x88	; 136
    268a:	78 78       	andi	r23, 0x88	; 136
    268c:	78 78       	andi	r23, 0x88	; 136
    268e:	78 78       	andi	r23, 0x88	; 136
    2690:	78 78       	andi	r23, 0x88	; 136
    2692:	78 78       	andi	r23, 0x88	; 136
    2694:	78 78       	andi	r23, 0x88	; 136
    2696:	78 78       	andi	r23, 0x88	; 136
    2698:	78 78       	andi	r23, 0x88	; 136
    269a:	78 78       	andi	r23, 0x88	; 136
    269c:	78 78       	andi	r23, 0x88	; 136
    269e:	78 78       	andi	r23, 0x88	; 136
    26a0:	78 78       	andi	r23, 0x88	; 136
    26a2:	78 78       	andi	r23, 0x88	; 136
    26a4:	78 78       	andi	r23, 0x88	; 136
    26a6:	78 78       	andi	r23, 0x88	; 136
    26a8:	78 78       	andi	r23, 0x88	; 136
    26aa:	78 78       	andi	r23, 0x88	; 136
    26ac:	78 78       	andi	r23, 0x88	; 136
    26ae:	78 78       	andi	r23, 0x88	; 136
    26b0:	78 78       	andi	r23, 0x88	; 136
    26b2:	78 78       	andi	r23, 0x88	; 136
    26b4:	78 78       	andi	r23, 0x88	; 136
    26b6:	78 78       	andi	r23, 0x88	; 136
    26b8:	78 78       	andi	r23, 0x88	; 136
    26ba:	78 78       	andi	r23, 0x88	; 136
    26bc:	80 80       	ld	r8, Z
    26be:	78 78       	andi	r23, 0x88	; 136
    26c0:	78 78       	andi	r23, 0x88	; 136
    26c2:	78 78       	andi	r23, 0x88	; 136
    26c4:	78 78       	andi	r23, 0x88	; 136
    26c6:	78 78       	andi	r23, 0x88	; 136
    26c8:	78 78       	andi	r23, 0x88	; 136
    26ca:	78 78       	andi	r23, 0x88	; 136
    26cc:	78 78       	andi	r23, 0x88	; 136
    26ce:	78 78       	andi	r23, 0x88	; 136
    26d0:	78 78       	andi	r23, 0x88	; 136
    26d2:	78 78       	andi	r23, 0x88	; 136
    26d4:	78 78       	andi	r23, 0x88	; 136
    26d6:	78 78       	andi	r23, 0x88	; 136
    26d8:	78 78       	andi	r23, 0x88	; 136
    26da:	78 78       	andi	r23, 0x88	; 136
    26dc:	78 78       	andi	r23, 0x88	; 136
    26de:	78 78       	andi	r23, 0x88	; 136
    26e0:	78 78       	andi	r23, 0x88	; 136
    26e2:	78 78       	andi	r23, 0x88	; 136
    26e4:	78 78       	andi	r23, 0x88	; 136
    26e6:	78 78       	andi	r23, 0x88	; 136
    26e8:	78 78       	andi	r23, 0x88	; 136
    26ea:	78 78       	andi	r23, 0x88	; 136
    26ec:	78 78       	andi	r23, 0x88	; 136
    26ee:	78 78       	andi	r23, 0x88	; 136
    26f0:	78 78       	andi	r23, 0x88	; 136
    26f2:	78 78       	andi	r23, 0x88	; 136
    26f4:	80 80       	ld	r8, Z
    26f6:	80 80       	ld	r8, Z
    26f8:	80 80       	ld	r8, Z
    26fa:	80 80       	ld	r8, Z
    26fc:	80 80       	ld	r8, Z
    26fe:	80 80       	ld	r8, Z
    2700:	80 80       	ld	r8, Z
    2702:	80 80       	ld	r8, Z
    2704:	80 80       	ld	r8, Z
    2706:	80 80       	ld	r8, Z
    2708:	80 80       	ld	r8, Z
    270a:	80 80       	ld	r8, Z
    270c:	80 80       	ld	r8, Z
    270e:	80 80       	ld	r8, Z
    2710:	80 80       	ld	r8, Z
    2712:	80 80       	ld	r8, Z
    2714:	80 80       	ld	r8, Z
    2716:	80 80       	ld	r8, Z
    2718:	80 80       	ld	r8, Z
    271a:	80 80       	ld	r8, Z
    271c:	80 78       	andi	r24, 0x80	; 128
    271e:	78 78       	andi	r23, 0x88	; 136
    2720:	78 78       	andi	r23, 0x88	; 136
    2722:	78 78       	andi	r23, 0x88	; 136
    2724:	78 78       	andi	r23, 0x88	; 136
    2726:	80 78       	andi	r24, 0x80	; 128
    2728:	78 78       	andi	r23, 0x88	; 136
    272a:	78 78       	andi	r23, 0x88	; 136
    272c:	78 78       	andi	r23, 0x88	; 136
    272e:	78 78       	andi	r23, 0x88	; 136
    2730:	78 78       	andi	r23, 0x88	; 136
    2732:	78 78       	andi	r23, 0x88	; 136
    2734:	78 78       	andi	r23, 0x88	; 136
    2736:	78 78       	andi	r23, 0x88	; 136
    2738:	78 78       	andi	r23, 0x88	; 136
    273a:	78 78       	andi	r23, 0x88	; 136
    273c:	78 78       	andi	r23, 0x88	; 136
    273e:	78 78       	andi	r23, 0x88	; 136
    2740:	78 78       	andi	r23, 0x88	; 136
    2742:	78 78       	andi	r23, 0x88	; 136
    2744:	78 78       	andi	r23, 0x88	; 136
    2746:	78 78       	andi	r23, 0x88	; 136
    2748:	78 78       	andi	r23, 0x88	; 136
    274a:	78 78       	andi	r23, 0x88	; 136
    274c:	78 78       	andi	r23, 0x88	; 136
    274e:	78 78       	andi	r23, 0x88	; 136
    2750:	78 78       	andi	r23, 0x88	; 136
    2752:	78 78       	andi	r23, 0x88	; 136
    2754:	78 78       	andi	r23, 0x88	; 136
    2756:	78 78       	andi	r23, 0x88	; 136
    2758:	78 78       	andi	r23, 0x88	; 136
    275a:	78 78       	andi	r23, 0x88	; 136
    275c:	78 78       	andi	r23, 0x88	; 136
    275e:	78 78       	andi	r23, 0x88	; 136
    2760:	78 78       	andi	r23, 0x88	; 136
    2762:	78 78       	andi	r23, 0x88	; 136
    2764:	78 78       	andi	r23, 0x88	; 136
    2766:	78 78       	andi	r23, 0x88	; 136
    2768:	78 78       	andi	r23, 0x88	; 136
    276a:	78 78       	andi	r23, 0x88	; 136
    276c:	78 78       	andi	r23, 0x88	; 136
    276e:	78 78       	andi	r23, 0x88	; 136
    2770:	78 78       	andi	r23, 0x88	; 136
    2772:	78 78       	andi	r23, 0x88	; 136
    2774:	78 78       	andi	r23, 0x88	; 136
    2776:	78 78       	andi	r23, 0x88	; 136
    2778:	78 78       	andi	r23, 0x88	; 136
    277a:	78 78       	andi	r23, 0x88	; 136
    277c:	78 78       	andi	r23, 0x88	; 136
    277e:	78 78       	andi	r23, 0x88	; 136
    2780:	78 78       	andi	r23, 0x88	; 136
    2782:	78 78       	andi	r23, 0x88	; 136
    2784:	78 78       	andi	r23, 0x88	; 136
    2786:	78 78       	andi	r23, 0x88	; 136
    2788:	78 78       	andi	r23, 0x88	; 136
    278a:	78 78       	andi	r23, 0x88	; 136
    278c:	78 78       	andi	r23, 0x88	; 136
    278e:	78 78       	andi	r23, 0x88	; 136
    2790:	78 78       	andi	r23, 0x88	; 136
    2792:	78 78       	andi	r23, 0x88	; 136
    2794:	78 78       	andi	r23, 0x88	; 136
    2796:	78 78       	andi	r23, 0x88	; 136
    2798:	78 78       	andi	r23, 0x88	; 136
    279a:	78 78       	andi	r23, 0x88	; 136
    279c:	78 78       	andi	r23, 0x88	; 136
    279e:	78 78       	andi	r23, 0x88	; 136
    27a0:	78 78       	andi	r23, 0x88	; 136
    27a2:	78 78       	andi	r23, 0x88	; 136
    27a4:	78 78       	andi	r23, 0x88	; 136
    27a6:	78 78       	andi	r23, 0x88	; 136
    27a8:	78 78       	andi	r23, 0x88	; 136
    27aa:	78 78       	andi	r23, 0x88	; 136
    27ac:	78 78       	andi	r23, 0x88	; 136
    27ae:	78 78       	andi	r23, 0x88	; 136
    27b0:	78 78       	andi	r23, 0x88	; 136
    27b2:	78 78       	andi	r23, 0x88	; 136
    27b4:	78 80       	ld	r7, Y
    27b6:	80 80       	ld	r8, Z
    27b8:	80 78       	andi	r24, 0x80	; 128
    27ba:	78 78       	andi	r23, 0x88	; 136
    27bc:	78 78       	andi	r23, 0x88	; 136
    27be:	78 78       	andi	r23, 0x88	; 136
    27c0:	78 80       	ld	r7, Y
    27c2:	80 80       	ld	r8, Z
    27c4:	80 80       	ld	r8, Z
    27c6:	80 80       	ld	r8, Z
    27c8:	80 80       	ld	r8, Z
    27ca:	80 80       	ld	r8, Z
    27cc:	80 80       	ld	r8, Z
    27ce:	78 78       	andi	r23, 0x88	; 136
    27d0:	78 78       	andi	r23, 0x88	; 136
    27d2:	78 80       	ld	r7, Y
    27d4:	80 80       	ld	r8, Z
    27d6:	80 80       	ld	r8, Z
    27d8:	80 80       	ld	r8, Z
    27da:	80 80       	ld	r8, Z
    27dc:	80 80       	ld	r8, Z
    27de:	80 80       	ld	r8, Z
    27e0:	80 80       	ld	r8, Z
    27e2:	80 80       	ld	r8, Z
    27e4:	80 80       	ld	r8, Z
    27e6:	80 80       	ld	r8, Z
    27e8:	80 80       	ld	r8, Z
    27ea:	80 80       	ld	r8, Z
    27ec:	80 80       	ld	r8, Z
    27ee:	80 80       	ld	r8, Z
    27f0:	80 80       	ld	r8, Z
    27f2:	80 80       	ld	r8, Z
    27f4:	80 80       	ld	r8, Z
    27f6:	80 80       	ld	r8, Z
    27f8:	80 80       	ld	r8, Z
    27fa:	80 80       	ld	r8, Z
    27fc:	80 80       	ld	r8, Z
    27fe:	80 80       	ld	r8, Z
    2800:	80 80       	ld	r8, Z
    2802:	78 78       	andi	r23, 0x88	; 136
    2804:	78 78       	andi	r23, 0x88	; 136
    2806:	78 78       	andi	r23, 0x88	; 136
    2808:	78 78       	andi	r23, 0x88	; 136
    280a:	78 78       	andi	r23, 0x88	; 136
    280c:	78 78       	andi	r23, 0x88	; 136
    280e:	78 78       	andi	r23, 0x88	; 136
    2810:	78 80       	ld	r7, Y
    2812:	80 80       	ld	r8, Z
    2814:	80 80       	ld	r8, Z
    2816:	80 80       	ld	r8, Z
    2818:	80 80       	ld	r8, Z
    281a:	80 80       	ld	r8, Z
    281c:	80 80       	ld	r8, Z
    281e:	80 80       	ld	r8, Z
    2820:	80 80       	ld	r8, Z
    2822:	80 80       	ld	r8, Z
    2824:	80 80       	ld	r8, Z
    2826:	80 80       	ld	r8, Z
    2828:	80 80       	ld	r8, Z
    282a:	80 80       	ld	r8, Z
    282c:	80 80       	ld	r8, Z
    282e:	80 80       	ld	r8, Z
    2830:	80 80       	ld	r8, Z
    2832:	80 80       	ld	r8, Z
    2834:	80 80       	ld	r8, Z
    2836:	80 80       	ld	r8, Z
    2838:	80 80       	ld	r8, Z
    283a:	80 80       	ld	r8, Z
    283c:	80 80       	ld	r8, Z
    283e:	80 80       	ld	r8, Z
    2840:	80 80       	ld	r8, Z
    2842:	80 80       	ld	r8, Z
    2844:	80 80       	ld	r8, Z
    2846:	80 80       	ld	r8, Z
    2848:	80 80       	ld	r8, Z
    284a:	80 80       	ld	r8, Z
    284c:	80 80       	ld	r8, Z
    284e:	80 80       	ld	r8, Z
    2850:	80 80       	ld	r8, Z
    2852:	80 80       	ld	r8, Z
    2854:	80 80       	ld	r8, Z
    2856:	80 80       	ld	r8, Z
    2858:	80 80       	ld	r8, Z
    285a:	80 80       	ld	r8, Z
    285c:	80 80       	ld	r8, Z
    285e:	80 80       	ld	r8, Z
    2860:	80 80       	ld	r8, Z
    2862:	80 80       	ld	r8, Z
    2864:	80 80       	ld	r8, Z
    2866:	80 80       	ld	r8, Z
    2868:	80 80       	ld	r8, Z
    286a:	80 80       	ld	r8, Z
    286c:	80 80       	ld	r8, Z
    286e:	80 80       	ld	r8, Z
    2870:	80 80       	ld	r8, Z
    2872:	80 80       	ld	r8, Z
    2874:	80 80       	ld	r8, Z
    2876:	80 80       	ld	r8, Z
    2878:	80 80       	ld	r8, Z
    287a:	80 80       	ld	r8, Z
    287c:	80 80       	ld	r8, Z
    287e:	80 80       	ld	r8, Z
    2880:	80 80       	ld	r8, Z
    2882:	80 80       	ld	r8, Z
    2884:	80 80       	ld	r8, Z
    2886:	80 80       	ld	r8, Z
    2888:	80 80       	ld	r8, Z
    288a:	80 80       	ld	r8, Z
    288c:	80 80       	ld	r8, Z
    288e:	80 80       	ld	r8, Z
    2890:	80 80       	ld	r8, Z
    2892:	80 80       	ld	r8, Z
    2894:	80 80       	ld	r8, Z
    2896:	80 80       	ld	r8, Z
    2898:	80 80       	ld	r8, Z
    289a:	80 80       	ld	r8, Z
    289c:	80 80       	ld	r8, Z
    289e:	80 80       	ld	r8, Z
    28a0:	80 80       	ld	r8, Z
    28a2:	80 80       	ld	r8, Z
    28a4:	80 80       	ld	r8, Z
    28a6:	80 80       	ld	r8, Z
    28a8:	80 80       	ld	r8, Z
    28aa:	80 80       	ld	r8, Z
    28ac:	80 80       	ld	r8, Z
    28ae:	80 80       	ld	r8, Z
    28b0:	80 80       	ld	r8, Z
    28b2:	80 80       	ld	r8, Z
    28b4:	80 80       	ld	r8, Z
    28b6:	80 80       	ld	r8, Z
    28b8:	80 80       	ld	r8, Z
    28ba:	80 80       	ld	r8, Z
    28bc:	80 80       	ld	r8, Z
    28be:	80 80       	ld	r8, Z
    28c0:	80 80       	ld	r8, Z
    28c2:	80 80       	ld	r8, Z
    28c4:	80 80       	ld	r8, Z
    28c6:	80 80       	ld	r8, Z
    28c8:	80 80       	ld	r8, Z
    28ca:	80 80       	ld	r8, Z
    28cc:	80 80       	ld	r8, Z
    28ce:	80 80       	ld	r8, Z
    28d0:	80 80       	ld	r8, Z
    28d2:	80 80       	ld	r8, Z
    28d4:	80 80       	ld	r8, Z
    28d6:	80 80       	ld	r8, Z
    28d8:	80 80       	ld	r8, Z
    28da:	80 80       	ld	r8, Z
    28dc:	80 80       	ld	r8, Z
    28de:	80 80       	ld	r8, Z
    28e0:	80 80       	ld	r8, Z
    28e2:	80 80       	ld	r8, Z
    28e4:	80 80       	ld	r8, Z
    28e6:	80 80       	ld	r8, Z
    28e8:	80 80       	ld	r8, Z
    28ea:	80 80       	ld	r8, Z
    28ec:	80 80       	ld	r8, Z
    28ee:	80 80       	ld	r8, Z
    28f0:	80 80       	ld	r8, Z
    28f2:	80 80       	ld	r8, Z
    28f4:	80 80       	ld	r8, Z
    28f6:	80 80       	ld	r8, Z
    28f8:	80 80       	ld	r8, Z
    28fa:	80 80       	ld	r8, Z
    28fc:	80 80       	ld	r8, Z
    28fe:	80 80       	ld	r8, Z
    2900:	80 80       	ld	r8, Z
    2902:	80 80       	ld	r8, Z
    2904:	80 80       	ld	r8, Z
    2906:	80 80       	ld	r8, Z
    2908:	80 80       	ld	r8, Z
    290a:	80 80       	ld	r8, Z
    290c:	80 80       	ld	r8, Z
    290e:	80 80       	ld	r8, Z
    2910:	80 80       	ld	r8, Z
    2912:	80 80       	ld	r8, Z
    2914:	80 80       	ld	r8, Z
    2916:	80 80       	ld	r8, Z
    2918:	80 80       	ld	r8, Z
    291a:	80 80       	ld	r8, Z
    291c:	80 80       	ld	r8, Z
    291e:	80 80       	ld	r8, Z
    2920:	80 80       	ld	r8, Z
    2922:	80 80       	ld	r8, Z
    2924:	80 80       	ld	r8, Z
    2926:	80 80       	ld	r8, Z
    2928:	80 80       	ld	r8, Z
    292a:	80 80       	ld	r8, Z
    292c:	80 80       	ld	r8, Z
    292e:	80 80       	ld	r8, Z
    2930:	80 80       	ld	r8, Z
    2932:	80 80       	ld	r8, Z
    2934:	80 80       	ld	r8, Z
    2936:	80 80       	ld	r8, Z
    2938:	80 80       	ld	r8, Z
    293a:	80 80       	ld	r8, Z
    293c:	80 80       	ld	r8, Z
    293e:	80 80       	ld	r8, Z
    2940:	80 80       	ld	r8, Z
    2942:	80 80       	ld	r8, Z
    2944:	80 80       	ld	r8, Z
    2946:	80 80       	ld	r8, Z
    2948:	78 78       	andi	r23, 0x88	; 136
    294a:	78 78       	andi	r23, 0x88	; 136
    294c:	78 78       	andi	r23, 0x88	; 136
    294e:	78 78       	andi	r23, 0x88	; 136
    2950:	78 78       	andi	r23, 0x88	; 136
    2952:	78 78       	andi	r23, 0x88	; 136
    2954:	78 78       	andi	r23, 0x88	; 136
    2956:	78 78       	andi	r23, 0x88	; 136
    2958:	78 78       	andi	r23, 0x88	; 136
    295a:	78 78       	andi	r23, 0x88	; 136
    295c:	78 78       	andi	r23, 0x88	; 136
    295e:	78 78       	andi	r23, 0x88	; 136
    2960:	78 78       	andi	r23, 0x88	; 136
    2962:	78 78       	andi	r23, 0x88	; 136
    2964:	78 78       	andi	r23, 0x88	; 136
    2966:	78 78       	andi	r23, 0x88	; 136
    2968:	78 78       	andi	r23, 0x88	; 136
    296a:	78 78       	andi	r23, 0x88	; 136
    296c:	78 78       	andi	r23, 0x88	; 136
    296e:	78 78       	andi	r23, 0x88	; 136
    2970:	78 78       	andi	r23, 0x88	; 136
    2972:	78 78       	andi	r23, 0x88	; 136
    2974:	78 78       	andi	r23, 0x88	; 136
    2976:	78 78       	andi	r23, 0x88	; 136
    2978:	78 78       	andi	r23, 0x88	; 136
    297a:	78 78       	andi	r23, 0x88	; 136
    297c:	78 78       	andi	r23, 0x88	; 136
    297e:	78 78       	andi	r23, 0x88	; 136
    2980:	78 78       	andi	r23, 0x88	; 136
    2982:	78 78       	andi	r23, 0x88	; 136
    2984:	78 78       	andi	r23, 0x88	; 136
    2986:	78 78       	andi	r23, 0x88	; 136
    2988:	78 78       	andi	r23, 0x88	; 136
    298a:	78 78       	andi	r23, 0x88	; 136
    298c:	78 78       	andi	r23, 0x88	; 136
    298e:	78 78       	andi	r23, 0x88	; 136
    2990:	78 78       	andi	r23, 0x88	; 136
    2992:	78 78       	andi	r23, 0x88	; 136
    2994:	78 78       	andi	r23, 0x88	; 136
    2996:	78 78       	andi	r23, 0x88	; 136
    2998:	78 78       	andi	r23, 0x88	; 136
    299a:	78 78       	andi	r23, 0x88	; 136
    299c:	78 78       	andi	r23, 0x88	; 136
    299e:	78 78       	andi	r23, 0x88	; 136
    29a0:	78 78       	andi	r23, 0x88	; 136
    29a2:	78 78       	andi	r23, 0x88	; 136
    29a4:	78 78       	andi	r23, 0x88	; 136
    29a6:	78 78       	andi	r23, 0x88	; 136
    29a8:	78 78       	andi	r23, 0x88	; 136
    29aa:	78 78       	andi	r23, 0x88	; 136
    29ac:	78 78       	andi	r23, 0x88	; 136
    29ae:	78 78       	andi	r23, 0x88	; 136
    29b0:	78 78       	andi	r23, 0x88	; 136
    29b2:	78 78       	andi	r23, 0x88	; 136
    29b4:	78 78       	andi	r23, 0x88	; 136
    29b6:	78 78       	andi	r23, 0x88	; 136
    29b8:	78 78       	andi	r23, 0x88	; 136
    29ba:	78 78       	andi	r23, 0x88	; 136
    29bc:	78 78       	andi	r23, 0x88	; 136
    29be:	78 78       	andi	r23, 0x88	; 136
    29c0:	78 78       	andi	r23, 0x88	; 136
    29c2:	78 78       	andi	r23, 0x88	; 136
    29c4:	78 78       	andi	r23, 0x88	; 136
    29c6:	78 78       	andi	r23, 0x88	; 136
    29c8:	78 78       	andi	r23, 0x88	; 136
    29ca:	78 78       	andi	r23, 0x88	; 136
    29cc:	78 78       	andi	r23, 0x88	; 136
    29ce:	78 78       	andi	r23, 0x88	; 136
    29d0:	78 78       	andi	r23, 0x88	; 136
    29d2:	78 78       	andi	r23, 0x88	; 136
    29d4:	78 78       	andi	r23, 0x88	; 136
    29d6:	78 78       	andi	r23, 0x88	; 136
    29d8:	78 78       	andi	r23, 0x88	; 136
    29da:	78 78       	andi	r23, 0x88	; 136
    29dc:	78 78       	andi	r23, 0x88	; 136
    29de:	78 78       	andi	r23, 0x88	; 136
    29e0:	78 78       	andi	r23, 0x88	; 136
    29e2:	78 78       	andi	r23, 0x88	; 136
    29e4:	78 78       	andi	r23, 0x88	; 136
    29e6:	78 78       	andi	r23, 0x88	; 136
    29e8:	78 78       	andi	r23, 0x88	; 136
    29ea:	78 78       	andi	r23, 0x88	; 136
    29ec:	78 78       	andi	r23, 0x88	; 136
    29ee:	78 78       	andi	r23, 0x88	; 136
    29f0:	78 78       	andi	r23, 0x88	; 136
    29f2:	78 78       	andi	r23, 0x88	; 136
    29f4:	78 78       	andi	r23, 0x88	; 136
    29f6:	78 78       	andi	r23, 0x88	; 136
    29f8:	78 78       	andi	r23, 0x88	; 136
    29fa:	78 78       	andi	r23, 0x88	; 136
    29fc:	78 78       	andi	r23, 0x88	; 136
    29fe:	78 78       	andi	r23, 0x88	; 136
    2a00:	78 78       	andi	r23, 0x88	; 136
    2a02:	78 78       	andi	r23, 0x88	; 136
    2a04:	78 78       	andi	r23, 0x88	; 136
    2a06:	78 78       	andi	r23, 0x88	; 136
    2a08:	78 78       	andi	r23, 0x88	; 136
    2a0a:	78 78       	andi	r23, 0x88	; 136
    2a0c:	78 78       	andi	r23, 0x88	; 136
    2a0e:	78 78       	andi	r23, 0x88	; 136
    2a10:	78 78       	andi	r23, 0x88	; 136
    2a12:	78 78       	andi	r23, 0x88	; 136
    2a14:	78 78       	andi	r23, 0x88	; 136
    2a16:	78 78       	andi	r23, 0x88	; 136
    2a18:	78 78       	andi	r23, 0x88	; 136
    2a1a:	78 78       	andi	r23, 0x88	; 136
    2a1c:	78 78       	andi	r23, 0x88	; 136
    2a1e:	78 78       	andi	r23, 0x88	; 136
    2a20:	78 78       	andi	r23, 0x88	; 136
    2a22:	78 78       	andi	r23, 0x88	; 136
    2a24:	78 78       	andi	r23, 0x88	; 136
    2a26:	78 78       	andi	r23, 0x88	; 136
    2a28:	78 78       	andi	r23, 0x88	; 136
    2a2a:	78 78       	andi	r23, 0x88	; 136
    2a2c:	78 78       	andi	r23, 0x88	; 136
    2a2e:	78 78       	andi	r23, 0x88	; 136
    2a30:	78 78       	andi	r23, 0x88	; 136
    2a32:	78 78       	andi	r23, 0x88	; 136
    2a34:	78 78       	andi	r23, 0x88	; 136
    2a36:	78 78       	andi	r23, 0x88	; 136
    2a38:	78 78       	andi	r23, 0x88	; 136
    2a3a:	78 78       	andi	r23, 0x88	; 136
    2a3c:	78 78       	andi	r23, 0x88	; 136
    2a3e:	78 78       	andi	r23, 0x88	; 136
    2a40:	78 78       	andi	r23, 0x88	; 136
    2a42:	78 78       	andi	r23, 0x88	; 136
    2a44:	78 78       	andi	r23, 0x88	; 136
    2a46:	78 78       	andi	r23, 0x88	; 136
    2a48:	78 78       	andi	r23, 0x88	; 136
    2a4a:	78 78       	andi	r23, 0x88	; 136
    2a4c:	78 78       	andi	r23, 0x88	; 136
    2a4e:	78 78       	andi	r23, 0x88	; 136
    2a50:	78 78       	andi	r23, 0x88	; 136
    2a52:	78 78       	andi	r23, 0x88	; 136
    2a54:	78 78       	andi	r23, 0x88	; 136
    2a56:	78 78       	andi	r23, 0x88	; 136
    2a58:	78 78       	andi	r23, 0x88	; 136
    2a5a:	78 78       	andi	r23, 0x88	; 136
    2a5c:	78 78       	andi	r23, 0x88	; 136
    2a5e:	78 78       	andi	r23, 0x88	; 136
    2a60:	78 78       	andi	r23, 0x88	; 136
    2a62:	78 78       	andi	r23, 0x88	; 136
    2a64:	78 78       	andi	r23, 0x88	; 136
    2a66:	78 78       	andi	r23, 0x88	; 136
    2a68:	78 78       	andi	r23, 0x88	; 136
    2a6a:	78 78       	andi	r23, 0x88	; 136
    2a6c:	78 78       	andi	r23, 0x88	; 136
    2a6e:	78 78       	andi	r23, 0x88	; 136
    2a70:	78 78       	andi	r23, 0x88	; 136
    2a72:	78 78       	andi	r23, 0x88	; 136
    2a74:	78 78       	andi	r23, 0x88	; 136
    2a76:	78 78       	andi	r23, 0x88	; 136
    2a78:	78 78       	andi	r23, 0x88	; 136
    2a7a:	78 78       	andi	r23, 0x88	; 136
    2a7c:	78 78       	andi	r23, 0x88	; 136
    2a7e:	78 78       	andi	r23, 0x88	; 136
    2a80:	78 78       	andi	r23, 0x88	; 136
    2a82:	78 78       	andi	r23, 0x88	; 136
    2a84:	78 78       	andi	r23, 0x88	; 136
    2a86:	78 78       	andi	r23, 0x88	; 136
    2a88:	78 78       	andi	r23, 0x88	; 136
    2a8a:	78 78       	andi	r23, 0x88	; 136
    2a8c:	78 78       	andi	r23, 0x88	; 136
    2a8e:	78 78       	andi	r23, 0x88	; 136
    2a90:	78 78       	andi	r23, 0x88	; 136
    2a92:	78 78       	andi	r23, 0x88	; 136
    2a94:	78 78       	andi	r23, 0x88	; 136
    2a96:	78 78       	andi	r23, 0x88	; 136
    2a98:	78 78       	andi	r23, 0x88	; 136
    2a9a:	78 78       	andi	r23, 0x88	; 136
    2a9c:	78 78       	andi	r23, 0x88	; 136
    2a9e:	78 78       	andi	r23, 0x88	; 136
    2aa0:	78 78       	andi	r23, 0x88	; 136
    2aa2:	78 78       	andi	r23, 0x88	; 136
    2aa4:	78 78       	andi	r23, 0x88	; 136
    2aa6:	78 78       	andi	r23, 0x88	; 136
    2aa8:	78 78       	andi	r23, 0x88	; 136
    2aaa:	78 78       	andi	r23, 0x88	; 136
    2aac:	78 78       	andi	r23, 0x88	; 136
    2aae:	78 78       	andi	r23, 0x88	; 136
    2ab0:	78 78       	andi	r23, 0x88	; 136
    2ab2:	78 78       	andi	r23, 0x88	; 136
    2ab4:	78 78       	andi	r23, 0x88	; 136
    2ab6:	78 78       	andi	r23, 0x88	; 136
    2ab8:	78 78       	andi	r23, 0x88	; 136
    2aba:	78 78       	andi	r23, 0x88	; 136
    2abc:	78 78       	andi	r23, 0x88	; 136
    2abe:	78 78       	andi	r23, 0x88	; 136
    2ac0:	78 78       	andi	r23, 0x88	; 136
    2ac2:	78 78       	andi	r23, 0x88	; 136
    2ac4:	78 78       	andi	r23, 0x88	; 136
    2ac6:	78 78       	andi	r23, 0x88	; 136
    2ac8:	80 80       	ld	r8, Z
    2aca:	80 80       	ld	r8, Z
    2acc:	80 80       	ld	r8, Z
    2ace:	80 80       	ld	r8, Z
    2ad0:	80 80       	ld	r8, Z
    2ad2:	80 80       	ld	r8, Z
    2ad4:	80 80       	ld	r8, Z
    2ad6:	80 80       	ld	r8, Z
    2ad8:	80 80       	ld	r8, Z
    2ada:	80 80       	ld	r8, Z
    2adc:	80 80       	ld	r8, Z
    2ade:	80 80       	ld	r8, Z
    2ae0:	80 80       	ld	r8, Z
    2ae2:	80 80       	ld	r8, Z
    2ae4:	80 80       	ld	r8, Z
    2ae6:	80 80       	ld	r8, Z
    2ae8:	80 80       	ld	r8, Z
    2aea:	80 80       	ld	r8, Z
    2aec:	80 80       	ld	r8, Z
    2aee:	80 80       	ld	r8, Z
    2af0:	80 80       	ld	r8, Z
    2af2:	80 80       	ld	r8, Z
    2af4:	80 80       	ld	r8, Z
    2af6:	80 80       	ld	r8, Z
    2af8:	80 80       	ld	r8, Z
    2afa:	80 80       	ld	r8, Z
    2afc:	80 80       	ld	r8, Z
    2afe:	80 80       	ld	r8, Z
    2b00:	80 80       	ld	r8, Z
    2b02:	80 80       	ld	r8, Z
    2b04:	80 80       	ld	r8, Z
    2b06:	80 80       	ld	r8, Z
    2b08:	80 80       	ld	r8, Z
    2b0a:	80 80       	ld	r8, Z
    2b0c:	80 80       	ld	r8, Z
    2b0e:	80 80       	ld	r8, Z
    2b10:	80 80       	ld	r8, Z
    2b12:	80 80       	ld	r8, Z
    2b14:	80 80       	ld	r8, Z
    2b16:	80 80       	ld	r8, Z
    2b18:	80 80       	ld	r8, Z
    2b1a:	80 80       	ld	r8, Z
    2b1c:	80 80       	ld	r8, Z
    2b1e:	80 80       	ld	r8, Z
    2b20:	80 80       	ld	r8, Z
    2b22:	80 80       	ld	r8, Z
    2b24:	80 80       	ld	r8, Z
    2b26:	80 80       	ld	r8, Z
    2b28:	80 80       	ld	r8, Z
    2b2a:	80 80       	ld	r8, Z
    2b2c:	80 80       	ld	r8, Z
    2b2e:	80 80       	ld	r8, Z
    2b30:	80 80       	ld	r8, Z
    2b32:	80 80       	ld	r8, Z
    2b34:	80 80       	ld	r8, Z
    2b36:	80 80       	ld	r8, Z
    2b38:	80 80       	ld	r8, Z
    2b3a:	80 80       	ld	r8, Z
    2b3c:	80 80       	ld	r8, Z
    2b3e:	80 80       	ld	r8, Z
    2b40:	80 80       	ld	r8, Z
    2b42:	80 80       	ld	r8, Z
    2b44:	80 80       	ld	r8, Z
    2b46:	80 80       	ld	r8, Z
    2b48:	80 80       	ld	r8, Z
    2b4a:	80 80       	ld	r8, Z
    2b4c:	80 80       	ld	r8, Z
    2b4e:	80 80       	ld	r8, Z
    2b50:	80 80       	ld	r8, Z
    2b52:	80 80       	ld	r8, Z
    2b54:	80 80       	ld	r8, Z
    2b56:	80 80       	ld	r8, Z
    2b58:	80 80       	ld	r8, Z
    2b5a:	80 80       	ld	r8, Z
    2b5c:	80 80       	ld	r8, Z
    2b5e:	80 80       	ld	r8, Z
    2b60:	80 80       	ld	r8, Z
    2b62:	80 80       	ld	r8, Z
    2b64:	80 80       	ld	r8, Z
    2b66:	80 78       	andi	r24, 0x80	; 128
    2b68:	78 78       	andi	r23, 0x88	; 136
    2b6a:	78 78       	andi	r23, 0x88	; 136
    2b6c:	78 78       	andi	r23, 0x88	; 136
    2b6e:	80 78       	andi	r24, 0x80	; 128
    2b70:	78 78       	andi	r23, 0x88	; 136
    2b72:	78 78       	andi	r23, 0x88	; 136
    2b74:	78 80       	ld	r7, Y
    2b76:	80 80       	ld	r8, Z
    2b78:	80 80       	ld	r8, Z
    2b7a:	80 80       	ld	r8, Z
    2b7c:	80 80       	ld	r8, Z
    2b7e:	80 80       	ld	r8, Z
    2b80:	80 80       	ld	r8, Z
    2b82:	80 80       	ld	r8, Z
    2b84:	80 80       	ld	r8, Z
    2b86:	80 80       	ld	r8, Z
    2b88:	80 78       	andi	r24, 0x80	; 128
    2b8a:	78 78       	andi	r23, 0x88	; 136
    2b8c:	78 78       	andi	r23, 0x88	; 136
    2b8e:	78 80       	ld	r7, Y
    2b90:	80 80       	ld	r8, Z
    2b92:	80 80       	ld	r8, Z
    2b94:	80 80       	ld	r8, Z
    2b96:	80 80       	ld	r8, Z
    2b98:	80 80       	ld	r8, Z
    2b9a:	80 80       	ld	r8, Z
    2b9c:	80 80       	ld	r8, Z
    2b9e:	80 80       	ld	r8, Z
    2ba0:	80 80       	ld	r8, Z
    2ba2:	80 80       	ld	r8, Z
    2ba4:	80 80       	ld	r8, Z
    2ba6:	80 80       	ld	r8, Z
    2ba8:	80 80       	ld	r8, Z
    2baa:	80 80       	ld	r8, Z
    2bac:	80 80       	ld	r8, Z
    2bae:	80 80       	ld	r8, Z
    2bb0:	80 80       	ld	r8, Z
    2bb2:	80 80       	ld	r8, Z
    2bb4:	80 80       	ld	r8, Z
    2bb6:	80 80       	ld	r8, Z
    2bb8:	80 80       	ld	r8, Z
    2bba:	80 80       	ld	r8, Z
    2bbc:	80 80       	ld	r8, Z
    2bbe:	80 80       	ld	r8, Z
    2bc0:	80 80       	ld	r8, Z
    2bc2:	80 80       	ld	r8, Z
    2bc4:	78 80       	ld	r7, Y
    2bc6:	80 80       	ld	r8, Z
    2bc8:	80 80       	ld	r8, Z
    2bca:	80 80       	ld	r8, Z
    2bcc:	80 80       	ld	r8, Z
    2bce:	80 80       	ld	r8, Z
    2bd0:	80 80       	ld	r8, Z
    2bd2:	80 80       	ld	r8, Z
    2bd4:	80 80       	ld	r8, Z
    2bd6:	80 80       	ld	r8, Z
    2bd8:	80 80       	ld	r8, Z
    2bda:	80 80       	ld	r8, Z
    2bdc:	80 78       	andi	r24, 0x80	; 128
    2bde:	78 78       	andi	r23, 0x88	; 136
    2be0:	78 78       	andi	r23, 0x88	; 136
    2be2:	78 78       	andi	r23, 0x88	; 136
    2be4:	78 80       	ld	r7, Y
    2be6:	80 80       	ld	r8, Z
    2be8:	80 80       	ld	r8, Z
    2bea:	80 80       	ld	r8, Z
    2bec:	80 80       	ld	r8, Z
    2bee:	80 80       	ld	r8, Z
    2bf0:	80 80       	ld	r8, Z
    2bf2:	80 80       	ld	r8, Z
    2bf4:	80 80       	ld	r8, Z
    2bf6:	80 80       	ld	r8, Z
    2bf8:	80 80       	ld	r8, Z
    2bfa:	80 80       	ld	r8, Z
    2bfc:	80 80       	ld	r8, Z
    2bfe:	80 80       	ld	r8, Z
    2c00:	80 80       	ld	r8, Z
    2c02:	80 80       	ld	r8, Z
    2c04:	80 80       	ld	r8, Z
    2c06:	80 80       	ld	r8, Z
    2c08:	80 80       	ld	r8, Z
    2c0a:	80 80       	ld	r8, Z
    2c0c:	80 80       	ld	r8, Z
    2c0e:	80 80       	ld	r8, Z
    2c10:	80 80       	ld	r8, Z
    2c12:	80 80       	ld	r8, Z
    2c14:	80 80       	ld	r8, Z
    2c16:	80 80       	ld	r8, Z
    2c18:	80 80       	ld	r8, Z
    2c1a:	80 80       	ld	r8, Z
    2c1c:	80 80       	ld	r8, Z
    2c1e:	80 80       	ld	r8, Z
    2c20:	80 80       	ld	r8, Z
    2c22:	80 80       	ld	r8, Z
    2c24:	80 80       	ld	r8, Z
    2c26:	80 80       	ld	r8, Z
    2c28:	80 80       	ld	r8, Z
    2c2a:	80 80       	ld	r8, Z
    2c2c:	80 80       	ld	r8, Z
    2c2e:	80 80       	ld	r8, Z
    2c30:	80 80       	ld	r8, Z
    2c32:	80 80       	ld	r8, Z
    2c34:	80 80       	ld	r8, Z
    2c36:	80 80       	ld	r8, Z
    2c38:	80 80       	ld	r8, Z
    2c3a:	80 80       	ld	r8, Z
    2c3c:	80 80       	ld	r8, Z
    2c3e:	80 80       	ld	r8, Z
    2c40:	80 80       	ld	r8, Z
    2c42:	80 80       	ld	r8, Z
    2c44:	80 80       	ld	r8, Z
    2c46:	80 80       	ld	r8, Z
    2c48:	80 80       	ld	r8, Z
    2c4a:	80 80       	ld	r8, Z
    2c4c:	80 80       	ld	r8, Z
    2c4e:	80 80       	ld	r8, Z
    2c50:	80 80       	ld	r8, Z
    2c52:	80 80       	ld	r8, Z
    2c54:	80 80       	ld	r8, Z
    2c56:	80 80       	ld	r8, Z
    2c58:	80 80       	ld	r8, Z
    2c5a:	80 80       	ld	r8, Z
    2c5c:	78 78       	andi	r23, 0x88	; 136
    2c5e:	78 78       	andi	r23, 0x88	; 136
    2c60:	78 78       	andi	r23, 0x88	; 136
    2c62:	78 78       	andi	r23, 0x88	; 136
    2c64:	78 80       	ld	r7, Y
    2c66:	80 80       	ld	r8, Z
    2c68:	80 78       	andi	r24, 0x80	; 128
    2c6a:	80 78       	andi	r24, 0x80	; 128
    2c6c:	78 78       	andi	r23, 0x88	; 136
    2c6e:	78 78       	andi	r23, 0x88	; 136
    2c70:	78 78       	andi	r23, 0x88	; 136
    2c72:	78 78       	andi	r23, 0x88	; 136
    2c74:	78 78       	andi	r23, 0x88	; 136
    2c76:	78 78       	andi	r23, 0x88	; 136
    2c78:	78 78       	andi	r23, 0x88	; 136
    2c7a:	78 78       	andi	r23, 0x88	; 136
    2c7c:	78 78       	andi	r23, 0x88	; 136
    2c7e:	78 78       	andi	r23, 0x88	; 136
    2c80:	78 78       	andi	r23, 0x88	; 136
    2c82:	78 78       	andi	r23, 0x88	; 136
    2c84:	78 78       	andi	r23, 0x88	; 136
    2c86:	78 78       	andi	r23, 0x88	; 136
    2c88:	78 78       	andi	r23, 0x88	; 136
    2c8a:	78 78       	andi	r23, 0x88	; 136
    2c8c:	78 78       	andi	r23, 0x88	; 136
    2c8e:	78 78       	andi	r23, 0x88	; 136
    2c90:	78 78       	andi	r23, 0x88	; 136
    2c92:	78 78       	andi	r23, 0x88	; 136
    2c94:	78 78       	andi	r23, 0x88	; 136
    2c96:	78 78       	andi	r23, 0x88	; 136
    2c98:	78 78       	andi	r23, 0x88	; 136
    2c9a:	78 78       	andi	r23, 0x88	; 136
    2c9c:	78 78       	andi	r23, 0x88	; 136
    2c9e:	78 78       	andi	r23, 0x88	; 136
    2ca0:	78 78       	andi	r23, 0x88	; 136
    2ca2:	78 78       	andi	r23, 0x88	; 136
    2ca4:	78 78       	andi	r23, 0x88	; 136
    2ca6:	78 78       	andi	r23, 0x88	; 136
    2ca8:	78 78       	andi	r23, 0x88	; 136
    2caa:	78 78       	andi	r23, 0x88	; 136
    2cac:	78 78       	andi	r23, 0x88	; 136
    2cae:	78 78       	andi	r23, 0x88	; 136
    2cb0:	78 78       	andi	r23, 0x88	; 136
    2cb2:	78 78       	andi	r23, 0x88	; 136
    2cb4:	78 78       	andi	r23, 0x88	; 136
    2cb6:	78 78       	andi	r23, 0x88	; 136
    2cb8:	78 78       	andi	r23, 0x88	; 136
    2cba:	78 78       	andi	r23, 0x88	; 136
    2cbc:	78 78       	andi	r23, 0x88	; 136
    2cbe:	78 78       	andi	r23, 0x88	; 136
    2cc0:	78 78       	andi	r23, 0x88	; 136
    2cc2:	78 78       	andi	r23, 0x88	; 136
    2cc4:	80 80       	ld	r8, Z
    2cc6:	80 80       	ld	r8, Z
    2cc8:	80 80       	ld	r8, Z
    2cca:	80 80       	ld	r8, Z
    2ccc:	80 80       	ld	r8, Z
    2cce:	80 80       	ld	r8, Z
    2cd0:	80 80       	ld	r8, Z
    2cd2:	80 80       	ld	r8, Z
    2cd4:	80 78       	andi	r24, 0x80	; 128
    2cd6:	78 78       	andi	r23, 0x88	; 136
    2cd8:	78 78       	andi	r23, 0x88	; 136
    2cda:	78 78       	andi	r23, 0x88	; 136
    2cdc:	78 78       	andi	r23, 0x88	; 136
    2cde:	80 80       	ld	r8, Z
    2ce0:	80 80       	ld	r8, Z
    2ce2:	80 80       	ld	r8, Z
    2ce4:	80 80       	ld	r8, Z
    2ce6:	80 80       	ld	r8, Z
    2ce8:	80 80       	ld	r8, Z
    2cea:	80 80       	ld	r8, Z
    2cec:	80 80       	ld	r8, Z
    2cee:	80 80       	ld	r8, Z
    2cf0:	80 80       	ld	r8, Z
    2cf2:	80 80       	ld	r8, Z
    2cf4:	80 80       	ld	r8, Z
    2cf6:	80 80       	ld	r8, Z
    2cf8:	80 80       	ld	r8, Z
    2cfa:	80 80       	ld	r8, Z
    2cfc:	80 80       	ld	r8, Z
    2cfe:	80 80       	ld	r8, Z
    2d00:	80 80       	ld	r8, Z
    2d02:	80 80       	ld	r8, Z
    2d04:	80 80       	ld	r8, Z
    2d06:	80 80       	ld	r8, Z
    2d08:	80 80       	ld	r8, Z
    2d0a:	80 80       	ld	r8, Z
    2d0c:	80 80       	ld	r8, Z
    2d0e:	80 80       	ld	r8, Z
    2d10:	80 80       	ld	r8, Z
    2d12:	80 80       	ld	r8, Z
    2d14:	80 80       	ld	r8, Z
    2d16:	80 80       	ld	r8, Z
    2d18:	80 80       	ld	r8, Z
    2d1a:	80 80       	ld	r8, Z
    2d1c:	80 80       	ld	r8, Z
    2d1e:	80 80       	ld	r8, Z
    2d20:	80 80       	ld	r8, Z
    2d22:	80 80       	ld	r8, Z
    2d24:	80 80       	ld	r8, Z
    2d26:	80 80       	ld	r8, Z
    2d28:	80 80       	ld	r8, Z
    2d2a:	80 80       	ld	r8, Z
    2d2c:	80 80       	ld	r8, Z
    2d2e:	80 80       	ld	r8, Z
    2d30:	80 80       	ld	r8, Z
    2d32:	80 80       	ld	r8, Z
    2d34:	80 80       	ld	r8, Z
    2d36:	80 80       	ld	r8, Z
    2d38:	80 80       	ld	r8, Z
    2d3a:	80 80       	ld	r8, Z
    2d3c:	80 80       	ld	r8, Z
    2d3e:	80 80       	ld	r8, Z
    2d40:	80 80       	ld	r8, Z
    2d42:	80 80       	ld	r8, Z
    2d44:	80 80       	ld	r8, Z
    2d46:	80 80       	ld	r8, Z
    2d48:	80 80       	ld	r8, Z
    2d4a:	80 80       	ld	r8, Z
    2d4c:	80 80       	ld	r8, Z
    2d4e:	80 80       	ld	r8, Z
    2d50:	80 80       	ld	r8, Z
    2d52:	80 80       	ld	r8, Z
    2d54:	80 80       	ld	r8, Z
    2d56:	80 80       	ld	r8, Z
    2d58:	80 80       	ld	r8, Z
    2d5a:	80 80       	ld	r8, Z
    2d5c:	80 80       	ld	r8, Z
    2d5e:	80 80       	ld	r8, Z
    2d60:	80 80       	ld	r8, Z
    2d62:	80 80       	ld	r8, Z
    2d64:	80 80       	ld	r8, Z
    2d66:	80 80       	ld	r8, Z
    2d68:	80 80       	ld	r8, Z
    2d6a:	80 80       	ld	r8, Z
    2d6c:	80 80       	ld	r8, Z
    2d6e:	80 80       	ld	r8, Z
    2d70:	80 80       	ld	r8, Z
    2d72:	80 80       	ld	r8, Z
    2d74:	80 80       	ld	r8, Z
    2d76:	80 80       	ld	r8, Z
    2d78:	80 80       	ld	r8, Z
    2d7a:	80 80       	ld	r8, Z
    2d7c:	80 80       	ld	r8, Z
    2d7e:	80 80       	ld	r8, Z
    2d80:	80 80       	ld	r8, Z
    2d82:	80 80       	ld	r8, Z
    2d84:	80 80       	ld	r8, Z
    2d86:	80 80       	ld	r8, Z
    2d88:	80 80       	ld	r8, Z
    2d8a:	80 80       	ld	r8, Z
    2d8c:	80 80       	ld	r8, Z
    2d8e:	80 80       	ld	r8, Z
    2d90:	80 80       	ld	r8, Z
    2d92:	80 80       	ld	r8, Z
    2d94:	80 80       	ld	r8, Z
    2d96:	80 80       	ld	r8, Z
    2d98:	80 80       	ld	r8, Z
    2d9a:	80 80       	ld	r8, Z
    2d9c:	80 80       	ld	r8, Z
    2d9e:	80 80       	ld	r8, Z
    2da0:	80 80       	ld	r8, Z
    2da2:	80 80       	ld	r8, Z
    2da4:	80 80       	ld	r8, Z
    2da6:	80 80       	ld	r8, Z
    2da8:	80 78       	andi	r24, 0x80	; 128
    2daa:	78 78       	andi	r23, 0x88	; 136
    2dac:	78 78       	andi	r23, 0x88	; 136
    2dae:	78 78       	andi	r23, 0x88	; 136
    2db0:	78 78       	andi	r23, 0x88	; 136
    2db2:	78 78       	andi	r23, 0x88	; 136
    2db4:	78 78       	andi	r23, 0x88	; 136
    2db6:	78 78       	andi	r23, 0x88	; 136
    2db8:	78 78       	andi	r23, 0x88	; 136
    2dba:	78 78       	andi	r23, 0x88	; 136
    2dbc:	78 78       	andi	r23, 0x88	; 136
    2dbe:	78 78       	andi	r23, 0x88	; 136
    2dc0:	78 78       	andi	r23, 0x88	; 136
    2dc2:	80 78       	andi	r24, 0x80	; 128
    2dc4:	78 78       	andi	r23, 0x88	; 136
    2dc6:	78 78       	andi	r23, 0x88	; 136
    2dc8:	78 78       	andi	r23, 0x88	; 136
    2dca:	78 78       	andi	r23, 0x88	; 136
    2dcc:	80 80       	ld	r8, Z
    2dce:	80 80       	ld	r8, Z
    2dd0:	80 80       	ld	r8, Z
    2dd2:	80 78       	andi	r24, 0x80	; 128
    2dd4:	78 78       	andi	r23, 0x88	; 136
    2dd6:	78 78       	andi	r23, 0x88	; 136
    2dd8:	78 78       	andi	r23, 0x88	; 136
    2dda:	78 78       	andi	r23, 0x88	; 136
    2ddc:	78 78       	andi	r23, 0x88	; 136
    2dde:	78 78       	andi	r23, 0x88	; 136
    2de0:	78 78       	andi	r23, 0x88	; 136
    2de2:	78 78       	andi	r23, 0x88	; 136
    2de4:	78 78       	andi	r23, 0x88	; 136
    2de6:	78 78       	andi	r23, 0x88	; 136
    2de8:	78 78       	andi	r23, 0x88	; 136
    2dea:	78 78       	andi	r23, 0x88	; 136
    2dec:	78 78       	andi	r23, 0x88	; 136
    2dee:	78 78       	andi	r23, 0x88	; 136
    2df0:	78 78       	andi	r23, 0x88	; 136
    2df2:	78 78       	andi	r23, 0x88	; 136
    2df4:	78 78       	andi	r23, 0x88	; 136
    2df6:	78 78       	andi	r23, 0x88	; 136
    2df8:	78 78       	andi	r23, 0x88	; 136
    2dfa:	78 78       	andi	r23, 0x88	; 136
    2dfc:	78 78       	andi	r23, 0x88	; 136
    2dfe:	78 78       	andi	r23, 0x88	; 136
    2e00:	78 78       	andi	r23, 0x88	; 136
    2e02:	78 78       	andi	r23, 0x88	; 136
    2e04:	78 78       	andi	r23, 0x88	; 136
    2e06:	78 78       	andi	r23, 0x88	; 136
    2e08:	78 78       	andi	r23, 0x88	; 136
    2e0a:	78 78       	andi	r23, 0x88	; 136
    2e0c:	78 78       	andi	r23, 0x88	; 136
    2e0e:	78 78       	andi	r23, 0x88	; 136
    2e10:	78 78       	andi	r23, 0x88	; 136
    2e12:	78 78       	andi	r23, 0x88	; 136
    2e14:	78 78       	andi	r23, 0x88	; 136
    2e16:	78 78       	andi	r23, 0x88	; 136
    2e18:	78 78       	andi	r23, 0x88	; 136
    2e1a:	78 78       	andi	r23, 0x88	; 136
    2e1c:	78 78       	andi	r23, 0x88	; 136
    2e1e:	78 78       	andi	r23, 0x88	; 136
    2e20:	78 78       	andi	r23, 0x88	; 136
    2e22:	78 78       	andi	r23, 0x88	; 136
    2e24:	78 78       	andi	r23, 0x88	; 136
    2e26:	78 78       	andi	r23, 0x88	; 136
    2e28:	78 78       	andi	r23, 0x88	; 136
    2e2a:	78 78       	andi	r23, 0x88	; 136
    2e2c:	78 78       	andi	r23, 0x88	; 136
    2e2e:	78 78       	andi	r23, 0x88	; 136
    2e30:	78 78       	andi	r23, 0x88	; 136
    2e32:	78 78       	andi	r23, 0x88	; 136
    2e34:	78 78       	andi	r23, 0x88	; 136
    2e36:	78 78       	andi	r23, 0x88	; 136
    2e38:	78 78       	andi	r23, 0x88	; 136
    2e3a:	78 78       	andi	r23, 0x88	; 136
    2e3c:	78 78       	andi	r23, 0x88	; 136
    2e3e:	78 78       	andi	r23, 0x88	; 136
    2e40:	78 78       	andi	r23, 0x88	; 136
    2e42:	78 78       	andi	r23, 0x88	; 136
    2e44:	78 78       	andi	r23, 0x88	; 136
    2e46:	78 78       	andi	r23, 0x88	; 136
    2e48:	78 78       	andi	r23, 0x88	; 136
    2e4a:	78 78       	andi	r23, 0x88	; 136
    2e4c:	78 78       	andi	r23, 0x88	; 136
    2e4e:	78 78       	andi	r23, 0x88	; 136
    2e50:	78 78       	andi	r23, 0x88	; 136
    2e52:	78 78       	andi	r23, 0x88	; 136
    2e54:	78 78       	andi	r23, 0x88	; 136
    2e56:	78 78       	andi	r23, 0x88	; 136
    2e58:	78 78       	andi	r23, 0x88	; 136
    2e5a:	78 78       	andi	r23, 0x88	; 136
    2e5c:	78 78       	andi	r23, 0x88	; 136
    2e5e:	78 78       	andi	r23, 0x88	; 136
    2e60:	78 78       	andi	r23, 0x88	; 136
    2e62:	78 78       	andi	r23, 0x88	; 136
    2e64:	78 78       	andi	r23, 0x88	; 136
    2e66:	78 78       	andi	r23, 0x88	; 136
    2e68:	78 78       	andi	r23, 0x88	; 136
    2e6a:	78 78       	andi	r23, 0x88	; 136
    2e6c:	78 78       	andi	r23, 0x88	; 136
    2e6e:	78 78       	andi	r23, 0x88	; 136
    2e70:	78 78       	andi	r23, 0x88	; 136
    2e72:	78 78       	andi	r23, 0x88	; 136
    2e74:	78 78       	andi	r23, 0x88	; 136
    2e76:	78 78       	andi	r23, 0x88	; 136
    2e78:	78 78       	andi	r23, 0x88	; 136
    2e7a:	78 78       	andi	r23, 0x88	; 136
    2e7c:	78 78       	andi	r23, 0x88	; 136
    2e7e:	78 78       	andi	r23, 0x88	; 136
    2e80:	78 78       	andi	r23, 0x88	; 136
    2e82:	78 78       	andi	r23, 0x88	; 136
    2e84:	78 78       	andi	r23, 0x88	; 136
    2e86:	78 78       	andi	r23, 0x88	; 136
    2e88:	78 78       	andi	r23, 0x88	; 136
    2e8a:	78 78       	andi	r23, 0x88	; 136
    2e8c:	78 78       	andi	r23, 0x88	; 136
    2e8e:	78 78       	andi	r23, 0x88	; 136
    2e90:	78 78       	andi	r23, 0x88	; 136
    2e92:	78 78       	andi	r23, 0x88	; 136
    2e94:	78 78       	andi	r23, 0x88	; 136
    2e96:	78 78       	andi	r23, 0x88	; 136
    2e98:	78 78       	andi	r23, 0x88	; 136
    2e9a:	78 78       	andi	r23, 0x88	; 136
    2e9c:	78 78       	andi	r23, 0x88	; 136
    2e9e:	78 78       	andi	r23, 0x88	; 136
    2ea0:	78 78       	andi	r23, 0x88	; 136
    2ea2:	78 78       	andi	r23, 0x88	; 136
    2ea4:	78 78       	andi	r23, 0x88	; 136
    2ea6:	78 78       	andi	r23, 0x88	; 136
    2ea8:	78 78       	andi	r23, 0x88	; 136
    2eaa:	78 78       	andi	r23, 0x88	; 136
    2eac:	78 78       	andi	r23, 0x88	; 136
    2eae:	78 78       	andi	r23, 0x88	; 136
    2eb0:	78 78       	andi	r23, 0x88	; 136
    2eb2:	78 78       	andi	r23, 0x88	; 136
    2eb4:	78 78       	andi	r23, 0x88	; 136
    2eb6:	78 78       	andi	r23, 0x88	; 136
    2eb8:	78 78       	andi	r23, 0x88	; 136
    2eba:	78 78       	andi	r23, 0x88	; 136
    2ebc:	78 78       	andi	r23, 0x88	; 136
    2ebe:	78 78       	andi	r23, 0x88	; 136
    2ec0:	78 78       	andi	r23, 0x88	; 136
    2ec2:	78 78       	andi	r23, 0x88	; 136
    2ec4:	78 78       	andi	r23, 0x88	; 136
    2ec6:	78 78       	andi	r23, 0x88	; 136
    2ec8:	78 78       	andi	r23, 0x88	; 136
    2eca:	78 78       	andi	r23, 0x88	; 136
    2ecc:	78 78       	andi	r23, 0x88	; 136
    2ece:	78 78       	andi	r23, 0x88	; 136
    2ed0:	78 78       	andi	r23, 0x88	; 136
    2ed2:	78 78       	andi	r23, 0x88	; 136
    2ed4:	78 80       	ld	r7, Y
    2ed6:	78 80       	ld	r7, Y
    2ed8:	80 80       	ld	r8, Z
    2eda:	80 80       	ld	r8, Z
    2edc:	80 80       	ld	r8, Z
    2ede:	80 80       	ld	r8, Z
    2ee0:	78 78       	andi	r23, 0x88	; 136
    2ee2:	78 78       	andi	r23, 0x88	; 136
    2ee4:	78 78       	andi	r23, 0x88	; 136
    2ee6:	78 78       	andi	r23, 0x88	; 136
    2ee8:	78 78       	andi	r23, 0x88	; 136
    2eea:	78 78       	andi	r23, 0x88	; 136
    2eec:	78 78       	andi	r23, 0x88	; 136
    2eee:	78 78       	andi	r23, 0x88	; 136
    2ef0:	78 78       	andi	r23, 0x88	; 136
    2ef2:	78 78       	andi	r23, 0x88	; 136
    2ef4:	78 78       	andi	r23, 0x88	; 136
    2ef6:	78 80       	ld	r7, Y
    2ef8:	80 80       	ld	r8, Z
    2efa:	80 80       	ld	r8, Z
    2efc:	80 80       	ld	r8, Z
    2efe:	80 80       	ld	r8, Z
    2f00:	80 80       	ld	r8, Z
    2f02:	80 80       	ld	r8, Z
    2f04:	80 80       	ld	r8, Z
    2f06:	80 80       	ld	r8, Z
    2f08:	80 80       	ld	r8, Z
    2f0a:	80 80       	ld	r8, Z
    2f0c:	80 80       	ld	r8, Z
    2f0e:	80 80       	ld	r8, Z
    2f10:	80 80       	ld	r8, Z
    2f12:	80 80       	ld	r8, Z
    2f14:	80 80       	ld	r8, Z
    2f16:	80 80       	ld	r8, Z
    2f18:	80 80       	ld	r8, Z
    2f1a:	80 80       	ld	r8, Z
    2f1c:	80 80       	ld	r8, Z
    2f1e:	80 80       	ld	r8, Z
    2f20:	80 80       	ld	r8, Z
    2f22:	80 80       	ld	r8, Z
    2f24:	80 80       	ld	r8, Z
    2f26:	80 80       	ld	r8, Z
    2f28:	80 80       	ld	r8, Z
    2f2a:	80 80       	ld	r8, Z
    2f2c:	80 80       	ld	r8, Z
    2f2e:	80 80       	ld	r8, Z
    2f30:	80 80       	ld	r8, Z
    2f32:	80 80       	ld	r8, Z
    2f34:	80 80       	ld	r8, Z
    2f36:	80 80       	ld	r8, Z
    2f38:	80 80       	ld	r8, Z
    2f3a:	80 80       	ld	r8, Z
    2f3c:	80 80       	ld	r8, Z
    2f3e:	80 80       	ld	r8, Z
    2f40:	80 80       	ld	r8, Z
    2f42:	80 80       	ld	r8, Z
    2f44:	80 80       	ld	r8, Z
    2f46:	80 80       	ld	r8, Z
    2f48:	80 80       	ld	r8, Z
    2f4a:	80 80       	ld	r8, Z
    2f4c:	80 80       	ld	r8, Z
    2f4e:	80 80       	ld	r8, Z
    2f50:	80 80       	ld	r8, Z
    2f52:	80 80       	ld	r8, Z
    2f54:	80 80       	ld	r8, Z
    2f56:	80 80       	ld	r8, Z
    2f58:	80 80       	ld	r8, Z
    2f5a:	80 80       	ld	r8, Z
    2f5c:	80 80       	ld	r8, Z
    2f5e:	80 80       	ld	r8, Z
    2f60:	80 80       	ld	r8, Z
    2f62:	80 80       	ld	r8, Z
    2f64:	80 80       	ld	r8, Z
    2f66:	80 80       	ld	r8, Z
    2f68:	80 80       	ld	r8, Z
    2f6a:	80 80       	ld	r8, Z
    2f6c:	80 80       	ld	r8, Z
    2f6e:	80 80       	ld	r8, Z
    2f70:	80 80       	ld	r8, Z
    2f72:	80 80       	ld	r8, Z
    2f74:	80 80       	ld	r8, Z
    2f76:	80 80       	ld	r8, Z
    2f78:	80 80       	ld	r8, Z
    2f7a:	80 80       	ld	r8, Z
    2f7c:	80 80       	ld	r8, Z
    2f7e:	80 80       	ld	r8, Z
    2f80:	80 80       	ld	r8, Z
    2f82:	80 80       	ld	r8, Z
    2f84:	80 80       	ld	r8, Z
    2f86:	80 80       	ld	r8, Z
    2f88:	80 80       	ld	r8, Z
    2f8a:	80 80       	ld	r8, Z
    2f8c:	80 80       	ld	r8, Z
    2f8e:	80 80       	ld	r8, Z
    2f90:	80 80       	ld	r8, Z
    2f92:	80 80       	ld	r8, Z
    2f94:	80 80       	ld	r8, Z
    2f96:	80 80       	ld	r8, Z
    2f98:	80 80       	ld	r8, Z
    2f9a:	80 80       	ld	r8, Z
    2f9c:	80 80       	ld	r8, Z
    2f9e:	80 80       	ld	r8, Z
    2fa0:	80 80       	ld	r8, Z
    2fa2:	80 80       	ld	r8, Z
    2fa4:	80 80       	ld	r8, Z
    2fa6:	80 80       	ld	r8, Z
    2fa8:	80 80       	ld	r8, Z
    2faa:	80 80       	ld	r8, Z
    2fac:	80 80       	ld	r8, Z
    2fae:	80 80       	ld	r8, Z
    2fb0:	80 80       	ld	r8, Z
    2fb2:	80 80       	ld	r8, Z
    2fb4:	80 80       	ld	r8, Z
    2fb6:	80 80       	ld	r8, Z
    2fb8:	80 80       	ld	r8, Z
    2fba:	80 80       	ld	r8, Z
    2fbc:	80 80       	ld	r8, Z
    2fbe:	80 80       	ld	r8, Z
    2fc0:	80 80       	ld	r8, Z
    2fc2:	80 80       	ld	r8, Z
    2fc4:	80 80       	ld	r8, Z
    2fc6:	80 80       	ld	r8, Z
    2fc8:	80 80       	ld	r8, Z
    2fca:	80 80       	ld	r8, Z
    2fcc:	80 80       	ld	r8, Z
    2fce:	80 80       	ld	r8, Z
    2fd0:	80 80       	ld	r8, Z
    2fd2:	80 80       	ld	r8, Z
    2fd4:	80 80       	ld	r8, Z
    2fd6:	80 80       	ld	r8, Z
    2fd8:	80 80       	ld	r8, Z
    2fda:	80 80       	ld	r8, Z
    2fdc:	80 80       	ld	r8, Z
    2fde:	80 80       	ld	r8, Z
    2fe0:	80 80       	ld	r8, Z
    2fe2:	80 80       	ld	r8, Z
    2fe4:	80 80       	ld	r8, Z
    2fe6:	80 80       	ld	r8, Z
    2fe8:	78 78       	andi	r23, 0x88	; 136
    2fea:	78 78       	andi	r23, 0x88	; 136
    2fec:	80 80       	ld	r8, Z
    2fee:	80 80       	ld	r8, Z
    2ff0:	80 80       	ld	r8, Z
    2ff2:	80 80       	ld	r8, Z
    2ff4:	80 80       	ld	r8, Z
    2ff6:	80 80       	ld	r8, Z
    2ff8:	80 80       	ld	r8, Z
    2ffa:	80 80       	ld	r8, Z
    2ffc:	80 80       	ld	r8, Z
    2ffe:	80 80       	ld	r8, Z
    3000:	80 80       	ld	r8, Z
    3002:	80 78       	andi	r24, 0x80	; 128
    3004:	78 78       	andi	r23, 0x88	; 136
    3006:	78 78       	andi	r23, 0x88	; 136
    3008:	78 78       	andi	r23, 0x88	; 136
    300a:	78 78       	andi	r23, 0x88	; 136
    300c:	78 78       	andi	r23, 0x88	; 136
    300e:	78 78       	andi	r23, 0x88	; 136
    3010:	78 78       	andi	r23, 0x88	; 136
    3012:	78 78       	andi	r23, 0x88	; 136
    3014:	78 78       	andi	r23, 0x88	; 136
    3016:	78 78       	andi	r23, 0x88	; 136
    3018:	78 78       	andi	r23, 0x88	; 136
    301a:	80 80       	ld	r8, Z
    301c:	80 80       	ld	r8, Z
    301e:	80 80       	ld	r8, Z
    3020:	80 80       	ld	r8, Z
    3022:	80 80       	ld	r8, Z
    3024:	80 80       	ld	r8, Z
    3026:	80 80       	ld	r8, Z
    3028:	80 78       	andi	r24, 0x80	; 128
    302a:	78 78       	andi	r23, 0x88	; 136
    302c:	78 78       	andi	r23, 0x88	; 136
    302e:	78 78       	andi	r23, 0x88	; 136
    3030:	78 78       	andi	r23, 0x88	; 136
    3032:	78 80       	ld	r7, Y
    3034:	80 80       	ld	r8, Z
    3036:	80 80       	ld	r8, Z
    3038:	80 78       	andi	r24, 0x80	; 128
    303a:	78 80       	ld	r7, Y
    303c:	80 80       	ld	r8, Z
    303e:	80 80       	ld	r8, Z
    3040:	80 80       	ld	r8, Z
    3042:	80 80       	ld	r8, Z
    3044:	80 80       	ld	r8, Z
    3046:	80 80       	ld	r8, Z
    3048:	80 80       	ld	r8, Z
    304a:	80 78       	andi	r24, 0x80	; 128
    304c:	78 78       	andi	r23, 0x88	; 136
    304e:	78 78       	andi	r23, 0x88	; 136
    3050:	78 78       	andi	r23, 0x88	; 136
    3052:	78 78       	andi	r23, 0x88	; 136
    3054:	78 78       	andi	r23, 0x88	; 136
    3056:	78 78       	andi	r23, 0x88	; 136
    3058:	78 78       	andi	r23, 0x88	; 136
    305a:	78 78       	andi	r23, 0x88	; 136
    305c:	78 78       	andi	r23, 0x88	; 136
    305e:	78 78       	andi	r23, 0x88	; 136
    3060:	78 78       	andi	r23, 0x88	; 136
    3062:	78 78       	andi	r23, 0x88	; 136
    3064:	78 78       	andi	r23, 0x88	; 136
    3066:	80 80       	ld	r8, Z
    3068:	80 80       	ld	r8, Z
    306a:	80 80       	ld	r8, Z
    306c:	80 80       	ld	r8, Z
    306e:	80 80       	ld	r8, Z
    3070:	80 80       	ld	r8, Z
    3072:	80 78       	andi	r24, 0x80	; 128
    3074:	78 80       	ld	r7, Y
    3076:	80 80       	ld	r8, Z
    3078:	80 80       	ld	r8, Z
    307a:	80 80       	ld	r8, Z
    307c:	78 78       	andi	r23, 0x88	; 136
    307e:	78 78       	andi	r23, 0x88	; 136
    3080:	78 78       	andi	r23, 0x88	; 136
    3082:	78 78       	andi	r23, 0x88	; 136
    3084:	78 78       	andi	r23, 0x88	; 136
    3086:	78 78       	andi	r23, 0x88	; 136
    3088:	78 78       	andi	r23, 0x88	; 136
    308a:	78 78       	andi	r23, 0x88	; 136
    308c:	78 78       	andi	r23, 0x88	; 136
    308e:	78 78       	andi	r23, 0x88	; 136
    3090:	78 78       	andi	r23, 0x88	; 136
    3092:	78 78       	andi	r23, 0x88	; 136
    3094:	78 78       	andi	r23, 0x88	; 136
    3096:	78 78       	andi	r23, 0x88	; 136
    3098:	78 78       	andi	r23, 0x88	; 136
    309a:	78 78       	andi	r23, 0x88	; 136
    309c:	78 78       	andi	r23, 0x88	; 136
    309e:	78 78       	andi	r23, 0x88	; 136
    30a0:	78 78       	andi	r23, 0x88	; 136
    30a2:	78 78       	andi	r23, 0x88	; 136
    30a4:	78 78       	andi	r23, 0x88	; 136
    30a6:	78 78       	andi	r23, 0x88	; 136
    30a8:	78 78       	andi	r23, 0x88	; 136
    30aa:	78 78       	andi	r23, 0x88	; 136
    30ac:	78 78       	andi	r23, 0x88	; 136
    30ae:	78 78       	andi	r23, 0x88	; 136
    30b0:	78 78       	andi	r23, 0x88	; 136
    30b2:	78 78       	andi	r23, 0x88	; 136
    30b4:	78 78       	andi	r23, 0x88	; 136
    30b6:	78 78       	andi	r23, 0x88	; 136
    30b8:	78 78       	andi	r23, 0x88	; 136
    30ba:	78 78       	andi	r23, 0x88	; 136
    30bc:	78 78       	andi	r23, 0x88	; 136
    30be:	78 78       	andi	r23, 0x88	; 136
    30c0:	78 78       	andi	r23, 0x88	; 136
    30c2:	78 78       	andi	r23, 0x88	; 136
    30c4:	78 78       	andi	r23, 0x88	; 136
    30c6:	78 78       	andi	r23, 0x88	; 136
    30c8:	78 78       	andi	r23, 0x88	; 136
    30ca:	78 78       	andi	r23, 0x88	; 136
    30cc:	78 78       	andi	r23, 0x88	; 136
    30ce:	78 78       	andi	r23, 0x88	; 136
    30d0:	78 78       	andi	r23, 0x88	; 136
    30d2:	78 78       	andi	r23, 0x88	; 136
    30d4:	78 78       	andi	r23, 0x88	; 136
    30d6:	78 78       	andi	r23, 0x88	; 136
    30d8:	78 78       	andi	r23, 0x88	; 136
    30da:	78 78       	andi	r23, 0x88	; 136
    30dc:	78 78       	andi	r23, 0x88	; 136
    30de:	78 78       	andi	r23, 0x88	; 136
    30e0:	78 78       	andi	r23, 0x88	; 136
    30e2:	78 78       	andi	r23, 0x88	; 136
    30e4:	78 78       	andi	r23, 0x88	; 136
    30e6:	78 78       	andi	r23, 0x88	; 136
    30e8:	78 78       	andi	r23, 0x88	; 136
    30ea:	78 78       	andi	r23, 0x88	; 136
    30ec:	78 78       	andi	r23, 0x88	; 136
    30ee:	78 78       	andi	r23, 0x88	; 136
    30f0:	78 78       	andi	r23, 0x88	; 136
    30f2:	78 78       	andi	r23, 0x88	; 136
    30f4:	78 78       	andi	r23, 0x88	; 136
    30f6:	78 78       	andi	r23, 0x88	; 136
    30f8:	78 78       	andi	r23, 0x88	; 136
    30fa:	78 78       	andi	r23, 0x88	; 136
    30fc:	78 78       	andi	r23, 0x88	; 136
    30fe:	78 78       	andi	r23, 0x88	; 136
    3100:	78 78       	andi	r23, 0x88	; 136
    3102:	78 78       	andi	r23, 0x88	; 136
    3104:	78 78       	andi	r23, 0x88	; 136
    3106:	80 80       	ld	r8, Z
    3108:	80 80       	ld	r8, Z
    310a:	80 80       	ld	r8, Z
    310c:	80 80       	ld	r8, Z
    310e:	80 80       	ld	r8, Z
    3110:	80 80       	ld	r8, Z
    3112:	80 80       	ld	r8, Z
    3114:	80 80       	ld	r8, Z
    3116:	80 80       	ld	r8, Z
    3118:	80 80       	ld	r8, Z
    311a:	80 80       	ld	r8, Z
    311c:	80 80       	ld	r8, Z
    311e:	80 80       	ld	r8, Z
    3120:	80 78       	andi	r24, 0x80	; 128
    3122:	78 78       	andi	r23, 0x88	; 136
    3124:	78 78       	andi	r23, 0x88	; 136
    3126:	78 80       	ld	r7, Y
    3128:	78 80       	ld	r7, Y
    312a:	80 80       	ld	r8, Z
    312c:	80 80       	ld	r8, Z
    312e:	80 78       	andi	r24, 0x80	; 128
    3130:	78 78       	andi	r23, 0x88	; 136
    3132:	78 80       	ld	r7, Y
    3134:	80 78       	andi	r24, 0x80	; 128
    3136:	80 80       	ld	r8, Z
    3138:	80 80       	ld	r8, Z
    313a:	80 80       	ld	r8, Z
    313c:	80 80       	ld	r8, Z
    313e:	80 80       	ld	r8, Z
    3140:	80 80       	ld	r8, Z
    3142:	80 78       	andi	r24, 0x80	; 128
    3144:	78 80       	ld	r7, Y
    3146:	78 78       	andi	r23, 0x88	; 136
    3148:	78 80       	ld	r7, Y
    314a:	80 80       	ld	r8, Z
    314c:	80 80       	ld	r8, Z
    314e:	80 80       	ld	r8, Z
    3150:	80 80       	ld	r8, Z
    3152:	80 80       	ld	r8, Z
    3154:	80 80       	ld	r8, Z
    3156:	80 80       	ld	r8, Z
    3158:	80 80       	ld	r8, Z
    315a:	80 80       	ld	r8, Z
    315c:	80 80       	ld	r8, Z
    315e:	80 80       	ld	r8, Z
    3160:	80 80       	ld	r8, Z
    3162:	80 80       	ld	r8, Z
    3164:	80 80       	ld	r8, Z
    3166:	80 80       	ld	r8, Z
    3168:	80 80       	ld	r8, Z
    316a:	80 80       	ld	r8, Z
    316c:	80 80       	ld	r8, Z
    316e:	80 80       	ld	r8, Z
    3170:	80 80       	ld	r8, Z
    3172:	80 80       	ld	r8, Z
    3174:	80 80       	ld	r8, Z
    3176:	80 80       	ld	r8, Z
    3178:	80 80       	ld	r8, Z
    317a:	80 80       	ld	r8, Z
    317c:	80 80       	ld	r8, Z
    317e:	80 80       	ld	r8, Z
    3180:	80 80       	ld	r8, Z
    3182:	80 80       	ld	r8, Z
    3184:	80 80       	ld	r8, Z
    3186:	80 80       	ld	r8, Z
    3188:	80 80       	ld	r8, Z
    318a:	80 80       	ld	r8, Z
    318c:	80 80       	ld	r8, Z
    318e:	80 80       	ld	r8, Z
    3190:	80 80       	ld	r8, Z
    3192:	80 80       	ld	r8, Z
    3194:	80 80       	ld	r8, Z
    3196:	80 80       	ld	r8, Z
    3198:	80 80       	ld	r8, Z
    319a:	80 80       	ld	r8, Z
    319c:	80 80       	ld	r8, Z
    319e:	80 80       	ld	r8, Z
    31a0:	80 80       	ld	r8, Z
    31a2:	80 80       	ld	r8, Z
    31a4:	80 80       	ld	r8, Z
    31a6:	80 80       	ld	r8, Z
    31a8:	80 80       	ld	r8, Z
    31aa:	80 80       	ld	r8, Z
    31ac:	80 80       	ld	r8, Z
    31ae:	80 80       	ld	r8, Z
    31b0:	80 80       	ld	r8, Z
    31b2:	80 80       	ld	r8, Z
    31b4:	80 80       	ld	r8, Z
    31b6:	80 80       	ld	r8, Z
    31b8:	80 80       	ld	r8, Z
    31ba:	80 80       	ld	r8, Z
    31bc:	80 80       	ld	r8, Z
    31be:	80 80       	ld	r8, Z
    31c0:	80 80       	ld	r8, Z
    31c2:	80 80       	ld	r8, Z
    31c4:	80 80       	ld	r8, Z
    31c6:	80 80       	ld	r8, Z
    31c8:	80 80       	ld	r8, Z
    31ca:	80 80       	ld	r8, Z
    31cc:	80 80       	ld	r8, Z
    31ce:	80 80       	ld	r8, Z
    31d0:	80 80       	ld	r8, Z
    31d2:	80 80       	ld	r8, Z
    31d4:	80 80       	ld	r8, Z
    31d6:	80 80       	ld	r8, Z
    31d8:	80 80       	ld	r8, Z
    31da:	80 80       	ld	r8, Z
    31dc:	80 80       	ld	r8, Z
    31de:	80 80       	ld	r8, Z
    31e0:	80 80       	ld	r8, Z
    31e2:	80 80       	ld	r8, Z
    31e4:	80 80       	ld	r8, Z
    31e6:	80 80       	ld	r8, Z
    31e8:	80 80       	ld	r8, Z
    31ea:	80 80       	ld	r8, Z
    31ec:	80 80       	ld	r8, Z
    31ee:	80 80       	ld	r8, Z
    31f0:	80 80       	ld	r8, Z
    31f2:	80 80       	ld	r8, Z
    31f4:	80 80       	ld	r8, Z
    31f6:	80 80       	ld	r8, Z
    31f8:	80 80       	ld	r8, Z
    31fa:	80 80       	ld	r8, Z
    31fc:	80 80       	ld	r8, Z
    31fe:	80 80       	ld	r8, Z
    3200:	80 80       	ld	r8, Z
    3202:	80 80       	ld	r8, Z
    3204:	80 80       	ld	r8, Z
    3206:	80 80       	ld	r8, Z
    3208:	80 80       	ld	r8, Z
    320a:	80 80       	ld	r8, Z
    320c:	80 80       	ld	r8, Z
    320e:	80 80       	ld	r8, Z
    3210:	80 80       	ld	r8, Z
    3212:	80 80       	ld	r8, Z
    3214:	80 80       	ld	r8, Z
    3216:	80 80       	ld	r8, Z
    3218:	80 80       	ld	r8, Z
    321a:	80 80       	ld	r8, Z
    321c:	80 78       	andi	r24, 0x80	; 128
    321e:	78 78       	andi	r23, 0x88	; 136
    3220:	78 78       	andi	r23, 0x88	; 136
    3222:	78 78       	andi	r23, 0x88	; 136
    3224:	78 78       	andi	r23, 0x88	; 136
    3226:	78 78       	andi	r23, 0x88	; 136
    3228:	78 78       	andi	r23, 0x88	; 136
    322a:	78 78       	andi	r23, 0x88	; 136
    322c:	78 78       	andi	r23, 0x88	; 136
    322e:	78 78       	andi	r23, 0x88	; 136
    3230:	78 78       	andi	r23, 0x88	; 136
    3232:	78 78       	andi	r23, 0x88	; 136
    3234:	78 78       	andi	r23, 0x88	; 136
    3236:	78 78       	andi	r23, 0x88	; 136
    3238:	78 78       	andi	r23, 0x88	; 136
    323a:	78 78       	andi	r23, 0x88	; 136
    323c:	78 78       	andi	r23, 0x88	; 136
    323e:	78 78       	andi	r23, 0x88	; 136
    3240:	78 78       	andi	r23, 0x88	; 136
    3242:	78 78       	andi	r23, 0x88	; 136
    3244:	78 78       	andi	r23, 0x88	; 136
    3246:	78 78       	andi	r23, 0x88	; 136
    3248:	78 78       	andi	r23, 0x88	; 136
    324a:	78 78       	andi	r23, 0x88	; 136
    324c:	78 78       	andi	r23, 0x88	; 136
    324e:	78 78       	andi	r23, 0x88	; 136
    3250:	78 78       	andi	r23, 0x88	; 136
    3252:	78 78       	andi	r23, 0x88	; 136
    3254:	78 78       	andi	r23, 0x88	; 136
    3256:	78 78       	andi	r23, 0x88	; 136
    3258:	78 78       	andi	r23, 0x88	; 136
    325a:	78 78       	andi	r23, 0x88	; 136
    325c:	78 78       	andi	r23, 0x88	; 136
    325e:	78 78       	andi	r23, 0x88	; 136
    3260:	78 78       	andi	r23, 0x88	; 136
    3262:	78 78       	andi	r23, 0x88	; 136
    3264:	78 78       	andi	r23, 0x88	; 136
    3266:	78 78       	andi	r23, 0x88	; 136
    3268:	78 78       	andi	r23, 0x88	; 136
    326a:	78 78       	andi	r23, 0x88	; 136
    326c:	78 78       	andi	r23, 0x88	; 136
    326e:	78 78       	andi	r23, 0x88	; 136
    3270:	78 78       	andi	r23, 0x88	; 136
    3272:	78 78       	andi	r23, 0x88	; 136
    3274:	78 78       	andi	r23, 0x88	; 136
    3276:	78 78       	andi	r23, 0x88	; 136
    3278:	78 78       	andi	r23, 0x88	; 136
    327a:	78 78       	andi	r23, 0x88	; 136
    327c:	78 78       	andi	r23, 0x88	; 136
    327e:	78 78       	andi	r23, 0x88	; 136
    3280:	78 78       	andi	r23, 0x88	; 136
    3282:	78 78       	andi	r23, 0x88	; 136
    3284:	78 78       	andi	r23, 0x88	; 136
    3286:	78 78       	andi	r23, 0x88	; 136
    3288:	78 78       	andi	r23, 0x88	; 136
    328a:	78 78       	andi	r23, 0x88	; 136
    328c:	78 78       	andi	r23, 0x88	; 136
    328e:	78 78       	andi	r23, 0x88	; 136
    3290:	78 78       	andi	r23, 0x88	; 136
    3292:	78 78       	andi	r23, 0x88	; 136
    3294:	78 78       	andi	r23, 0x88	; 136
    3296:	78 78       	andi	r23, 0x88	; 136
    3298:	78 78       	andi	r23, 0x88	; 136
    329a:	78 78       	andi	r23, 0x88	; 136
    329c:	78 78       	andi	r23, 0x88	; 136
    329e:	78 78       	andi	r23, 0x88	; 136
    32a0:	78 78       	andi	r23, 0x88	; 136
    32a2:	78 78       	andi	r23, 0x88	; 136
    32a4:	78 78       	andi	r23, 0x88	; 136
    32a6:	78 78       	andi	r23, 0x88	; 136
    32a8:	78 78       	andi	r23, 0x88	; 136
    32aa:	78 78       	andi	r23, 0x88	; 136
    32ac:	78 78       	andi	r23, 0x88	; 136
    32ae:	78 78       	andi	r23, 0x88	; 136
    32b0:	78 78       	andi	r23, 0x88	; 136
    32b2:	78 78       	andi	r23, 0x88	; 136
    32b4:	78 78       	andi	r23, 0x88	; 136
    32b6:	78 78       	andi	r23, 0x88	; 136
    32b8:	78 78       	andi	r23, 0x88	; 136
    32ba:	78 78       	andi	r23, 0x88	; 136
    32bc:	78 78       	andi	r23, 0x88	; 136
    32be:	78 78       	andi	r23, 0x88	; 136
    32c0:	78 78       	andi	r23, 0x88	; 136
    32c2:	78 78       	andi	r23, 0x88	; 136
    32c4:	78 78       	andi	r23, 0x88	; 136
    32c6:	78 78       	andi	r23, 0x88	; 136
    32c8:	78 78       	andi	r23, 0x88	; 136
    32ca:	78 78       	andi	r23, 0x88	; 136
    32cc:	78 78       	andi	r23, 0x88	; 136
    32ce:	78 78       	andi	r23, 0x88	; 136
    32d0:	78 78       	andi	r23, 0x88	; 136
    32d2:	78 78       	andi	r23, 0x88	; 136
    32d4:	78 78       	andi	r23, 0x88	; 136
    32d6:	78 78       	andi	r23, 0x88	; 136
    32d8:	78 78       	andi	r23, 0x88	; 136
    32da:	78 78       	andi	r23, 0x88	; 136
    32dc:	78 78       	andi	r23, 0x88	; 136
    32de:	78 78       	andi	r23, 0x88	; 136
    32e0:	78 78       	andi	r23, 0x88	; 136
    32e2:	78 78       	andi	r23, 0x88	; 136
    32e4:	78 78       	andi	r23, 0x88	; 136
    32e6:	78 78       	andi	r23, 0x88	; 136
    32e8:	78 78       	andi	r23, 0x88	; 136
    32ea:	78 78       	andi	r23, 0x88	; 136
    32ec:	78 78       	andi	r23, 0x88	; 136
    32ee:	78 78       	andi	r23, 0x88	; 136
    32f0:	78 78       	andi	r23, 0x88	; 136
    32f2:	78 78       	andi	r23, 0x88	; 136
    32f4:	80 78       	andi	r24, 0x80	; 128
    32f6:	78 78       	andi	r23, 0x88	; 136
    32f8:	78 78       	andi	r23, 0x88	; 136
    32fa:	78 78       	andi	r23, 0x88	; 136
    32fc:	78 78       	andi	r23, 0x88	; 136
    32fe:	78 78       	andi	r23, 0x88	; 136
    3300:	78 78       	andi	r23, 0x88	; 136
    3302:	78 80       	ld	r7, Y
    3304:	80 80       	ld	r8, Z
    3306:	78 78       	andi	r23, 0x88	; 136
    3308:	78 80       	ld	r7, Y
    330a:	78 78       	andi	r23, 0x88	; 136
    330c:	80 80       	ld	r8, Z
    330e:	80 80       	ld	r8, Z
    3310:	80 80       	ld	r8, Z
    3312:	80 80       	ld	r8, Z
    3314:	80 80       	ld	r8, Z
    3316:	80 80       	ld	r8, Z
    3318:	80 80       	ld	r8, Z
    331a:	80 80       	ld	r8, Z
    331c:	80 80       	ld	r8, Z
    331e:	80 80       	ld	r8, Z
    3320:	80 80       	ld	r8, Z
    3322:	80 78       	andi	r24, 0x80	; 128
    3324:	80 78       	andi	r24, 0x80	; 128
    3326:	78 80       	ld	r7, Y
    3328:	80 78       	andi	r24, 0x80	; 128
    332a:	78 78       	andi	r23, 0x88	; 136
    332c:	80 80       	ld	r8, Z
    332e:	78 80       	ld	r7, Y
    3330:	80 80       	ld	r8, Z
    3332:	80 80       	ld	r8, Z
    3334:	80 80       	ld	r8, Z
    3336:	80 78       	andi	r24, 0x80	; 128
    3338:	80 80       	ld	r8, Z
    333a:	80 80       	ld	r8, Z
    333c:	80 80       	ld	r8, Z
    333e:	80 80       	ld	r8, Z
    3340:	80 80       	ld	r8, Z
    3342:	80 80       	ld	r8, Z
    3344:	80 80       	ld	r8, Z
    3346:	80 80       	ld	r8, Z
    3348:	80 80       	ld	r8, Z
    334a:	80 80       	ld	r8, Z
    334c:	80 80       	ld	r8, Z
    334e:	80 80       	ld	r8, Z
    3350:	80 80       	ld	r8, Z
    3352:	80 80       	ld	r8, Z
    3354:	80 80       	ld	r8, Z
    3356:	80 80       	ld	r8, Z
    3358:	80 80       	ld	r8, Z
    335a:	80 80       	ld	r8, Z
    335c:	80 80       	ld	r8, Z
    335e:	80 80       	ld	r8, Z
    3360:	80 80       	ld	r8, Z
    3362:	80 80       	ld	r8, Z
    3364:	80 80       	ld	r8, Z
    3366:	80 80       	ld	r8, Z
    3368:	80 80       	ld	r8, Z
    336a:	80 80       	ld	r8, Z
    336c:	80 80       	ld	r8, Z
    336e:	80 80       	ld	r8, Z
    3370:	80 80       	ld	r8, Z
    3372:	80 80       	ld	r8, Z
    3374:	80 80       	ld	r8, Z
    3376:	80 80       	ld	r8, Z
    3378:	80 80       	ld	r8, Z
    337a:	80 80       	ld	r8, Z
    337c:	80 80       	ld	r8, Z
    337e:	80 80       	ld	r8, Z
    3380:	80 80       	ld	r8, Z
    3382:	80 80       	ld	r8, Z
    3384:	80 80       	ld	r8, Z
    3386:	80 80       	ld	r8, Z
    3388:	80 80       	ld	r8, Z
    338a:	80 80       	ld	r8, Z
    338c:	80 80       	ld	r8, Z
    338e:	80 80       	ld	r8, Z
    3390:	80 80       	ld	r8, Z
    3392:	80 80       	ld	r8, Z
    3394:	80 80       	ld	r8, Z
    3396:	80 80       	ld	r8, Z
    3398:	80 80       	ld	r8, Z
    339a:	80 80       	ld	r8, Z
    339c:	80 80       	ld	r8, Z
    339e:	80 80       	ld	r8, Z
    33a0:	80 80       	ld	r8, Z
    33a2:	80 80       	ld	r8, Z
    33a4:	80 80       	ld	r8, Z
    33a6:	80 80       	ld	r8, Z
    33a8:	80 80       	ld	r8, Z
    33aa:	80 80       	ld	r8, Z
    33ac:	80 80       	ld	r8, Z
    33ae:	80 80       	ld	r8, Z
    33b0:	80 80       	ld	r8, Z
    33b2:	80 80       	ld	r8, Z
    33b4:	80 80       	ld	r8, Z
    33b6:	80 80       	ld	r8, Z
    33b8:	80 80       	ld	r8, Z
    33ba:	80 80       	ld	r8, Z
    33bc:	80 80       	ld	r8, Z
    33be:	80 80       	ld	r8, Z
    33c0:	80 80       	ld	r8, Z
    33c2:	80 80       	ld	r8, Z
    33c4:	80 80       	ld	r8, Z
    33c6:	80 80       	ld	r8, Z
    33c8:	80 80       	ld	r8, Z
    33ca:	80 80       	ld	r8, Z
    33cc:	80 80       	ld	r8, Z
    33ce:	80 80       	ld	r8, Z
    33d0:	80 80       	ld	r8, Z
    33d2:	80 80       	ld	r8, Z
    33d4:	80 80       	ld	r8, Z
    33d6:	80 80       	ld	r8, Z
    33d8:	80 80       	ld	r8, Z
    33da:	80 80       	ld	r8, Z
    33dc:	80 80       	ld	r8, Z
    33de:	80 80       	ld	r8, Z
    33e0:	80 80       	ld	r8, Z
    33e2:	80 80       	ld	r8, Z
    33e4:	80 80       	ld	r8, Z
    33e6:	80 80       	ld	r8, Z
    33e8:	80 80       	ld	r8, Z
    33ea:	80 80       	ld	r8, Z
    33ec:	80 80       	ld	r8, Z
    33ee:	80 80       	ld	r8, Z
    33f0:	80 80       	ld	r8, Z
    33f2:	80 80       	ld	r8, Z
    33f4:	80 80       	ld	r8, Z
    33f6:	80 80       	ld	r8, Z
    33f8:	80 80       	ld	r8, Z
    33fa:	80 80       	ld	r8, Z
    33fc:	80 80       	ld	r8, Z
    33fe:	80 80       	ld	r8, Z
    3400:	80 80       	ld	r8, Z
    3402:	80 80       	ld	r8, Z
    3404:	80 80       	ld	r8, Z
    3406:	80 80       	ld	r8, Z
    3408:	80 80       	ld	r8, Z
    340a:	80 80       	ld	r8, Z
    340c:	80 80       	ld	r8, Z
    340e:	80 80       	ld	r8, Z
    3410:	80 80       	ld	r8, Z
    3412:	80 80       	ld	r8, Z
    3414:	80 80       	ld	r8, Z
    3416:	80 80       	ld	r8, Z
    3418:	80 80       	ld	r8, Z
    341a:	80 80       	ld	r8, Z
    341c:	80 80       	ld	r8, Z
    341e:	80 80       	ld	r8, Z
    3420:	80 80       	ld	r8, Z
    3422:	80 80       	ld	r8, Z
    3424:	80 80       	ld	r8, Z
    3426:	80 80       	ld	r8, Z
    3428:	80 80       	ld	r8, Z
    342a:	80 80       	ld	r8, Z
    342c:	80 80       	ld	r8, Z
    342e:	80 80       	ld	r8, Z
    3430:	80 80       	ld	r8, Z
    3432:	80 80       	ld	r8, Z
    3434:	80 80       	ld	r8, Z
    3436:	80 80       	ld	r8, Z
    3438:	80 80       	ld	r8, Z
    343a:	80 80       	ld	r8, Z
    343c:	80 80       	ld	r8, Z
    343e:	80 80       	ld	r8, Z
    3440:	80 80       	ld	r8, Z
    3442:	80 80       	ld	r8, Z
    3444:	80 80       	ld	r8, Z
    3446:	80 80       	ld	r8, Z
    3448:	80 80       	ld	r8, Z
    344a:	80 80       	ld	r8, Z
    344c:	80 80       	ld	r8, Z
    344e:	80 80       	ld	r8, Z
    3450:	80 80       	ld	r8, Z
    3452:	80 80       	ld	r8, Z
    3454:	80 80       	ld	r8, Z
    3456:	80 80       	ld	r8, Z
    3458:	80 80       	ld	r8, Z
    345a:	80 80       	ld	r8, Z
    345c:	80 80       	ld	r8, Z
    345e:	80 80       	ld	r8, Z
    3460:	80 80       	ld	r8, Z
    3462:	80 80       	ld	r8, Z
    3464:	80 80       	ld	r8, Z
    3466:	80 80       	ld	r8, Z
    3468:	80 80       	ld	r8, Z
    346a:	80 80       	ld	r8, Z
    346c:	80 80       	ld	r8, Z
    346e:	80 80       	ld	r8, Z
    3470:	80 80       	ld	r8, Z
    3472:	80 80       	ld	r8, Z
    3474:	80 80       	ld	r8, Z
    3476:	80 80       	ld	r8, Z
    3478:	80 80       	ld	r8, Z
    347a:	80 80       	ld	r8, Z
    347c:	80 80       	ld	r8, Z
    347e:	80 80       	ld	r8, Z
    3480:	80 80       	ld	r8, Z
    3482:	80 80       	ld	r8, Z
    3484:	80 80       	ld	r8, Z
    3486:	80 80       	ld	r8, Z
    3488:	80 80       	ld	r8, Z
    348a:	80 80       	ld	r8, Z
    348c:	80 80       	ld	r8, Z
    348e:	80 80       	ld	r8, Z
    3490:	80 80       	ld	r8, Z
    3492:	80 78       	andi	r24, 0x80	; 128
    3494:	78 80       	ld	r7, Y
    3496:	78 78       	andi	r23, 0x88	; 136
    3498:	78 78       	andi	r23, 0x88	; 136
    349a:	78 78       	andi	r23, 0x88	; 136
    349c:	78 78       	andi	r23, 0x88	; 136
    349e:	78 78       	andi	r23, 0x88	; 136
    34a0:	78 78       	andi	r23, 0x88	; 136
    34a2:	78 78       	andi	r23, 0x88	; 136
    34a4:	78 78       	andi	r23, 0x88	; 136
    34a6:	78 78       	andi	r23, 0x88	; 136
    34a8:	78 78       	andi	r23, 0x88	; 136
    34aa:	78 78       	andi	r23, 0x88	; 136
    34ac:	78 78       	andi	r23, 0x88	; 136
    34ae:	78 78       	andi	r23, 0x88	; 136
    34b0:	80 78       	andi	r24, 0x80	; 128
    34b2:	78 80       	ld	r7, Y
    34b4:	78 78       	andi	r23, 0x88	; 136
    34b6:	80 78       	andi	r24, 0x80	; 128
    34b8:	78 78       	andi	r23, 0x88	; 136
    34ba:	78 78       	andi	r23, 0x88	; 136
    34bc:	78 78       	andi	r23, 0x88	; 136
    34be:	78 78       	andi	r23, 0x88	; 136
    34c0:	78 78       	andi	r23, 0x88	; 136
    34c2:	78 80       	ld	r7, Y
    34c4:	78 78       	andi	r23, 0x88	; 136
    34c6:	78 78       	andi	r23, 0x88	; 136
    34c8:	78 78       	andi	r23, 0x88	; 136
    34ca:	78 78       	andi	r23, 0x88	; 136
    34cc:	78 78       	andi	r23, 0x88	; 136
    34ce:	78 78       	andi	r23, 0x88	; 136
    34d0:	78 78       	andi	r23, 0x88	; 136
    34d2:	78 78       	andi	r23, 0x88	; 136
    34d4:	78 78       	andi	r23, 0x88	; 136
    34d6:	78 78       	andi	r23, 0x88	; 136
    34d8:	78 78       	andi	r23, 0x88	; 136
    34da:	78 78       	andi	r23, 0x88	; 136
    34dc:	78 78       	andi	r23, 0x88	; 136
    34de:	78 80       	ld	r7, Y
    34e0:	80 78       	andi	r24, 0x80	; 128
    34e2:	80 80       	ld	r8, Z
    34e4:	80 80       	ld	r8, Z
    34e6:	80 80       	ld	r8, Z
    34e8:	80 80       	ld	r8, Z
    34ea:	80 80       	ld	r8, Z
    34ec:	80 80       	ld	r8, Z
    34ee:	80 80       	ld	r8, Z
    34f0:	80 80       	ld	r8, Z
    34f2:	80 80       	ld	r8, Z
    34f4:	80 80       	ld	r8, Z
    34f6:	80 80       	ld	r8, Z
    34f8:	80 80       	ld	r8, Z
    34fa:	80 80       	ld	r8, Z
    34fc:	80 80       	ld	r8, Z
    34fe:	80 80       	ld	r8, Z
    3500:	80 80       	ld	r8, Z
    3502:	80 80       	ld	r8, Z
    3504:	80 80       	ld	r8, Z
    3506:	80 80       	ld	r8, Z
    3508:	80 80       	ld	r8, Z
    350a:	80 80       	ld	r8, Z
    350c:	80 80       	ld	r8, Z
    350e:	80 80       	ld	r8, Z
    3510:	80 80       	ld	r8, Z
    3512:	80 80       	ld	r8, Z
    3514:	80 80       	ld	r8, Z
    3516:	80 80       	ld	r8, Z
    3518:	80 80       	ld	r8, Z
    351a:	80 80       	ld	r8, Z
    351c:	80 80       	ld	r8, Z
    351e:	80 80       	ld	r8, Z
    3520:	80 80       	ld	r8, Z
    3522:	80 80       	ld	r8, Z
    3524:	80 80       	ld	r8, Z
    3526:	80 80       	ld	r8, Z
    3528:	80 80       	ld	r8, Z
    352a:	80 80       	ld	r8, Z
    352c:	80 80       	ld	r8, Z
    352e:	80 80       	ld	r8, Z
    3530:	80 80       	ld	r8, Z
    3532:	80 80       	ld	r8, Z
    3534:	80 80       	ld	r8, Z
    3536:	80 80       	ld	r8, Z
    3538:	80 80       	ld	r8, Z
    353a:	80 80       	ld	r8, Z
    353c:	80 80       	ld	r8, Z
    353e:	80 80       	ld	r8, Z
    3540:	80 80       	ld	r8, Z
    3542:	80 80       	ld	r8, Z
    3544:	80 80       	ld	r8, Z
    3546:	80 80       	ld	r8, Z
    3548:	80 80       	ld	r8, Z
    354a:	80 80       	ld	r8, Z
    354c:	80 80       	ld	r8, Z
    354e:	80 80       	ld	r8, Z
    3550:	80 80       	ld	r8, Z
    3552:	80 80       	ld	r8, Z
    3554:	80 80       	ld	r8, Z
    3556:	80 80       	ld	r8, Z
    3558:	80 80       	ld	r8, Z
    355a:	80 80       	ld	r8, Z
    355c:	80 80       	ld	r8, Z
    355e:	80 80       	ld	r8, Z
    3560:	80 80       	ld	r8, Z
    3562:	80 80       	ld	r8, Z
    3564:	80 80       	ld	r8, Z
    3566:	80 80       	ld	r8, Z
    3568:	80 80       	ld	r8, Z
    356a:	80 80       	ld	r8, Z
    356c:	80 80       	ld	r8, Z
    356e:	80 80       	ld	r8, Z
    3570:	80 80       	ld	r8, Z
    3572:	80 80       	ld	r8, Z
    3574:	80 80       	ld	r8, Z
    3576:	80 80       	ld	r8, Z
    3578:	80 80       	ld	r8, Z
    357a:	80 80       	ld	r8, Z
    357c:	80 80       	ld	r8, Z
    357e:	80 80       	ld	r8, Z
    3580:	80 80       	ld	r8, Z
    3582:	80 80       	ld	r8, Z
    3584:	80 80       	ld	r8, Z
    3586:	80 80       	ld	r8, Z
    3588:	80 80       	ld	r8, Z
    358a:	80 80       	ld	r8, Z
    358c:	80 80       	ld	r8, Z
    358e:	80 80       	ld	r8, Z
    3590:	80 80       	ld	r8, Z
    3592:	80 80       	ld	r8, Z
    3594:	80 80       	ld	r8, Z
    3596:	80 80       	ld	r8, Z
    3598:	80 80       	ld	r8, Z
    359a:	80 80       	ld	r8, Z
    359c:	80 80       	ld	r8, Z
    359e:	80 80       	ld	r8, Z
    35a0:	80 80       	ld	r8, Z
    35a2:	80 80       	ld	r8, Z
    35a4:	80 80       	ld	r8, Z
    35a6:	80 80       	ld	r8, Z
    35a8:	80 80       	ld	r8, Z
    35aa:	80 80       	ld	r8, Z
    35ac:	80 80       	ld	r8, Z
    35ae:	80 80       	ld	r8, Z
    35b0:	80 80       	ld	r8, Z
    35b2:	80 80       	ld	r8, Z
    35b4:	80 80       	ld	r8, Z
    35b6:	80 80       	ld	r8, Z
    35b8:	80 80       	ld	r8, Z
    35ba:	80 80       	ld	r8, Z
    35bc:	80 80       	ld	r8, Z
    35be:	80 80       	ld	r8, Z
    35c0:	80 80       	ld	r8, Z
    35c2:	80 80       	ld	r8, Z
    35c4:	80 80       	ld	r8, Z
    35c6:	80 80       	ld	r8, Z
    35c8:	80 80       	ld	r8, Z
    35ca:	80 80       	ld	r8, Z
    35cc:	80 80       	ld	r8, Z
    35ce:	80 80       	ld	r8, Z
    35d0:	80 80       	ld	r8, Z
    35d2:	80 80       	ld	r8, Z
    35d4:	80 80       	ld	r8, Z
    35d6:	80 80       	ld	r8, Z
    35d8:	80 80       	ld	r8, Z
    35da:	80 80       	ld	r8, Z
    35dc:	80 80       	ld	r8, Z
    35de:	80 80       	ld	r8, Z
    35e0:	80 80       	ld	r8, Z
    35e2:	80 80       	ld	r8, Z
    35e4:	80 80       	ld	r8, Z
    35e6:	80 80       	ld	r8, Z
    35e8:	80 80       	ld	r8, Z
    35ea:	80 80       	ld	r8, Z
    35ec:	80 80       	ld	r8, Z
    35ee:	80 80       	ld	r8, Z
    35f0:	80 80       	ld	r8, Z
    35f2:	80 80       	ld	r8, Z
    35f4:	80 80       	ld	r8, Z
    35f6:	80 80       	ld	r8, Z
    35f8:	80 80       	ld	r8, Z
    35fa:	80 80       	ld	r8, Z
    35fc:	80 80       	ld	r8, Z
    35fe:	80 80       	ld	r8, Z
    3600:	80 80       	ld	r8, Z
    3602:	80 80       	ld	r8, Z
    3604:	80 80       	ld	r8, Z
    3606:	80 80       	ld	r8, Z
    3608:	80 80       	ld	r8, Z
    360a:	80 80       	ld	r8, Z
    360c:	80 80       	ld	r8, Z
    360e:	80 80       	ld	r8, Z
    3610:	80 80       	ld	r8, Z
    3612:	80 80       	ld	r8, Z
    3614:	80 80       	ld	r8, Z
    3616:	80 80       	ld	r8, Z
    3618:	80 80       	ld	r8, Z
    361a:	80 80       	ld	r8, Z
    361c:	80 80       	ld	r8, Z
    361e:	80 80       	ld	r8, Z
    3620:	80 80       	ld	r8, Z
    3622:	80 80       	ld	r8, Z
    3624:	80 80       	ld	r8, Z
    3626:	80 80       	ld	r8, Z
    3628:	80 80       	ld	r8, Z
    362a:	80 80       	ld	r8, Z
    362c:	80 80       	ld	r8, Z
    362e:	80 80       	ld	r8, Z
    3630:	80 80       	ld	r8, Z
    3632:	80 80       	ld	r8, Z
    3634:	80 80       	ld	r8, Z
    3636:	80 80       	ld	r8, Z
    3638:	80 80       	ld	r8, Z
    363a:	80 80       	ld	r8, Z
    363c:	80 80       	ld	r8, Z
    363e:	80 80       	ld	r8, Z
    3640:	80 80       	ld	r8, Z
    3642:	80 80       	ld	r8, Z
    3644:	80 80       	ld	r8, Z
    3646:	80 80       	ld	r8, Z
    3648:	80 80       	ld	r8, Z
    364a:	80 80       	ld	r8, Z
    364c:	80 80       	ld	r8, Z
    364e:	80 80       	ld	r8, Z
    3650:	80 80       	ld	r8, Z
    3652:	80 80       	ld	r8, Z
    3654:	80 80       	ld	r8, Z
    3656:	80 80       	ld	r8, Z
    3658:	80 80       	ld	r8, Z
    365a:	80 80       	ld	r8, Z
    365c:	80 80       	ld	r8, Z
    365e:	80 80       	ld	r8, Z
    3660:	80 80       	ld	r8, Z
    3662:	80 80       	ld	r8, Z
    3664:	80 80       	ld	r8, Z
    3666:	80 80       	ld	r8, Z
    3668:	80 80       	ld	r8, Z
    366a:	80 80       	ld	r8, Z
    366c:	80 80       	ld	r8, Z
    366e:	80 80       	ld	r8, Z
    3670:	80 80       	ld	r8, Z
    3672:	80 80       	ld	r8, Z
    3674:	80 80       	ld	r8, Z
    3676:	80 80       	ld	r8, Z
    3678:	80 80       	ld	r8, Z
    367a:	80 80       	ld	r8, Z
    367c:	80 80       	ld	r8, Z
    367e:	80 80       	ld	r8, Z
    3680:	80 80       	ld	r8, Z
    3682:	80 80       	ld	r8, Z
    3684:	80 80       	ld	r8, Z
    3686:	80 80       	ld	r8, Z
    3688:	80 80       	ld	r8, Z
    368a:	80 80       	ld	r8, Z
    368c:	80 80       	ld	r8, Z
    368e:	80 80       	ld	r8, Z
    3690:	80 80       	ld	r8, Z
    3692:	80 80       	ld	r8, Z
    3694:	80 80       	ld	r8, Z
    3696:	80 80       	ld	r8, Z
    3698:	80 80       	ld	r8, Z
    369a:	80 80       	ld	r8, Z
    369c:	80 80       	ld	r8, Z
    369e:	80 80       	ld	r8, Z
    36a0:	80 80       	ld	r8, Z
    36a2:	80 80       	ld	r8, Z
    36a4:	80 80       	ld	r8, Z
    36a6:	80 80       	ld	r8, Z
    36a8:	80 80       	ld	r8, Z
    36aa:	80 80       	ld	r8, Z
    36ac:	80 80       	ld	r8, Z
    36ae:	80 80       	ld	r8, Z
    36b0:	80 80       	ld	r8, Z
    36b2:	80 80       	ld	r8, Z
    36b4:	80 80       	ld	r8, Z
    36b6:	80 80       	ld	r8, Z
    36b8:	80 80       	ld	r8, Z
    36ba:	80 80       	ld	r8, Z
    36bc:	80 80       	ld	r8, Z
    36be:	80 80       	ld	r8, Z
    36c0:	80 80       	ld	r8, Z
    36c2:	80 80       	ld	r8, Z
    36c4:	80 80       	ld	r8, Z
    36c6:	80 80       	ld	r8, Z
    36c8:	80 80       	ld	r8, Z
    36ca:	80 80       	ld	r8, Z
    36cc:	80 80       	ld	r8, Z
    36ce:	80 80       	ld	r8, Z
    36d0:	80 80       	ld	r8, Z
    36d2:	80 80       	ld	r8, Z
    36d4:	80 80       	ld	r8, Z
    36d6:	80 80       	ld	r8, Z
    36d8:	80 80       	ld	r8, Z
    36da:	80 80       	ld	r8, Z
    36dc:	80 80       	ld	r8, Z
    36de:	80 80       	ld	r8, Z
    36e0:	80 80       	ld	r8, Z
    36e2:	80 80       	ld	r8, Z
    36e4:	80 80       	ld	r8, Z
    36e6:	80 80       	ld	r8, Z
    36e8:	80 80       	ld	r8, Z
    36ea:	80 80       	ld	r8, Z
    36ec:	80 80       	ld	r8, Z
    36ee:	80 80       	ld	r8, Z
    36f0:	80 80       	ld	r8, Z
    36f2:	80 80       	ld	r8, Z
    36f4:	80 80       	ld	r8, Z
    36f6:	80 80       	ld	r8, Z
    36f8:	80 80       	ld	r8, Z
    36fa:	80 80       	ld	r8, Z
    36fc:	80 80       	ld	r8, Z
    36fe:	80 80       	ld	r8, Z
    3700:	80 80       	ld	r8, Z
    3702:	80 80       	ld	r8, Z
    3704:	80 80       	ld	r8, Z
    3706:	80 80       	ld	r8, Z
    3708:	80 80       	ld	r8, Z
    370a:	80 80       	ld	r8, Z
    370c:	80 80       	ld	r8, Z
    370e:	80 80       	ld	r8, Z
    3710:	80 80       	ld	r8, Z
    3712:	80 80       	ld	r8, Z
    3714:	80 80       	ld	r8, Z
    3716:	80 80       	ld	r8, Z
    3718:	80 80       	ld	r8, Z
    371a:	80 80       	ld	r8, Z
    371c:	80 80       	ld	r8, Z
    371e:	80 80       	ld	r8, Z
    3720:	80 80       	ld	r8, Z
    3722:	80 80       	ld	r8, Z
    3724:	80 80       	ld	r8, Z
    3726:	80 80       	ld	r8, Z
    3728:	80 80       	ld	r8, Z
    372a:	80 80       	ld	r8, Z
    372c:	80 80       	ld	r8, Z
    372e:	80 80       	ld	r8, Z
    3730:	80 80       	ld	r8, Z
    3732:	80 80       	ld	r8, Z
    3734:	80 80       	ld	r8, Z
    3736:	80 80       	ld	r8, Z
    3738:	80 80       	ld	r8, Z
    373a:	80 80       	ld	r8, Z
    373c:	80 80       	ld	r8, Z
    373e:	80 80       	ld	r8, Z
    3740:	80 80       	ld	r8, Z
    3742:	80 80       	ld	r8, Z
    3744:	80 80       	ld	r8, Z
    3746:	80 80       	ld	r8, Z
    3748:	80 80       	ld	r8, Z
    374a:	80 80       	ld	r8, Z
    374c:	80 80       	ld	r8, Z
    374e:	80 80       	ld	r8, Z
    3750:	80 80       	ld	r8, Z
    3752:	80 80       	ld	r8, Z
    3754:	80 80       	ld	r8, Z
    3756:	80 80       	ld	r8, Z
    3758:	80 80       	ld	r8, Z
    375a:	80 80       	ld	r8, Z
    375c:	80 80       	ld	r8, Z
    375e:	80 80       	ld	r8, Z
    3760:	80 80       	ld	r8, Z
    3762:	80 80       	ld	r8, Z
    3764:	80 80       	ld	r8, Z
    3766:	80 80       	ld	r8, Z
    3768:	80 80       	ld	r8, Z
    376a:	80 80       	ld	r8, Z
    376c:	80 80       	ld	r8, Z
    376e:	80 80       	ld	r8, Z
    3770:	80 80       	ld	r8, Z
    3772:	80 80       	ld	r8, Z
    3774:	80 80       	ld	r8, Z
    3776:	80 80       	ld	r8, Z
    3778:	80 80       	ld	r8, Z
    377a:	80 80       	ld	r8, Z
    377c:	80 80       	ld	r8, Z
    377e:	80 80       	ld	r8, Z
    3780:	80 80       	ld	r8, Z
    3782:	80 80       	ld	r8, Z
    3784:	80 80       	ld	r8, Z
    3786:	80 80       	ld	r8, Z
    3788:	80 80       	ld	r8, Z
    378a:	80 80       	ld	r8, Z
    378c:	80 80       	ld	r8, Z
    378e:	80 80       	ld	r8, Z
    3790:	80 80       	ld	r8, Z
    3792:	80 80       	ld	r8, Z
    3794:	80 80       	ld	r8, Z
    3796:	80 80       	ld	r8, Z
    3798:	80 80       	ld	r8, Z
    379a:	80 80       	ld	r8, Z
    379c:	80 80       	ld	r8, Z
    379e:	80 80       	ld	r8, Z
    37a0:	80 80       	ld	r8, Z
    37a2:	80 80       	ld	r8, Z
    37a4:	80 80       	ld	r8, Z
    37a6:	80 80       	ld	r8, Z
    37a8:	80 80       	ld	r8, Z
    37aa:	80 80       	ld	r8, Z
    37ac:	80 80       	ld	r8, Z
    37ae:	80 80       	ld	r8, Z
    37b0:	80 80       	ld	r8, Z
    37b2:	80 80       	ld	r8, Z
    37b4:	80 80       	ld	r8, Z
    37b6:	80 80       	ld	r8, Z
    37b8:	80 80       	ld	r8, Z
    37ba:	80 80       	ld	r8, Z
    37bc:	80 80       	ld	r8, Z
    37be:	80 80       	ld	r8, Z
    37c0:	80 80       	ld	r8, Z
    37c2:	80 80       	ld	r8, Z
    37c4:	80 80       	ld	r8, Z
    37c6:	80 80       	ld	r8, Z
    37c8:	80 80       	ld	r8, Z
    37ca:	80 80       	ld	r8, Z
    37cc:	80 80       	ld	r8, Z
    37ce:	80 80       	ld	r8, Z
    37d0:	80 80       	ld	r8, Z
    37d2:	80 80       	ld	r8, Z
    37d4:	80 80       	ld	r8, Z
    37d6:	80 80       	ld	r8, Z
    37d8:	80 80       	ld	r8, Z
    37da:	80 80       	ld	r8, Z
    37dc:	80 80       	ld	r8, Z
    37de:	80 80       	ld	r8, Z
    37e0:	80 80       	ld	r8, Z
    37e2:	80 80       	ld	r8, Z
    37e4:	80 80       	ld	r8, Z
    37e6:	80 80       	ld	r8, Z
    37e8:	80 80       	ld	r8, Z
    37ea:	80 80       	ld	r8, Z
    37ec:	80 80       	ld	r8, Z
    37ee:	80 80       	ld	r8, Z
    37f0:	80 80       	ld	r8, Z
    37f2:	80 80       	ld	r8, Z
    37f4:	80 80       	ld	r8, Z
    37f6:	80 80       	ld	r8, Z
    37f8:	80 80       	ld	r8, Z
    37fa:	80 80       	ld	r8, Z
    37fc:	80 80       	ld	r8, Z
    37fe:	80 80       	ld	r8, Z
    3800:	80 80       	ld	r8, Z
    3802:	80 80       	ld	r8, Z
    3804:	80 80       	ld	r8, Z
    3806:	80 80       	ld	r8, Z
    3808:	80 80       	ld	r8, Z
    380a:	80 80       	ld	r8, Z
    380c:	80 80       	ld	r8, Z
    380e:	80 80       	ld	r8, Z
    3810:	80 80       	ld	r8, Z
    3812:	80 80       	ld	r8, Z
    3814:	80 80       	ld	r8, Z
    3816:	80 80       	ld	r8, Z
    3818:	80 80       	ld	r8, Z
    381a:	80 80       	ld	r8, Z
    381c:	80 80       	ld	r8, Z
    381e:	80 80       	ld	r8, Z
    3820:	80 80       	ld	r8, Z
    3822:	80 80       	ld	r8, Z
    3824:	80 80       	ld	r8, Z
    3826:	80 80       	ld	r8, Z
    3828:	80 80       	ld	r8, Z
    382a:	80 80       	ld	r8, Z
    382c:	80 80       	ld	r8, Z
    382e:	80 80       	ld	r8, Z
    3830:	80 80       	ld	r8, Z
    3832:	80 80       	ld	r8, Z
    3834:	80 80       	ld	r8, Z
    3836:	80 80       	ld	r8, Z
    3838:	80 80       	ld	r8, Z
    383a:	80 80       	ld	r8, Z
    383c:	80 80       	ld	r8, Z
    383e:	80 80       	ld	r8, Z
    3840:	80 80       	ld	r8, Z
    3842:	80 80       	ld	r8, Z
    3844:	80 80       	ld	r8, Z
    3846:	80 80       	ld	r8, Z
    3848:	80 80       	ld	r8, Z
    384a:	80 80       	ld	r8, Z
    384c:	80 80       	ld	r8, Z
    384e:	80 80       	ld	r8, Z
    3850:	80 80       	ld	r8, Z
    3852:	80 80       	ld	r8, Z
    3854:	80 80       	ld	r8, Z
    3856:	80 80       	ld	r8, Z
    3858:	80 80       	ld	r8, Z
    385a:	80 80       	ld	r8, Z
    385c:	80 80       	ld	r8, Z
    385e:	80 80       	ld	r8, Z
    3860:	80 80       	ld	r8, Z
    3862:	80 80       	ld	r8, Z
    3864:	80 80       	ld	r8, Z
    3866:	80 80       	ld	r8, Z
    3868:	80 80       	ld	r8, Z
    386a:	80 80       	ld	r8, Z
    386c:	80 80       	ld	r8, Z
    386e:	80 80       	ld	r8, Z
    3870:	80 80       	ld	r8, Z
    3872:	80 80       	ld	r8, Z
    3874:	80 80       	ld	r8, Z
    3876:	80 80       	ld	r8, Z
    3878:	80 80       	ld	r8, Z
    387a:	80 80       	ld	r8, Z
    387c:	80 80       	ld	r8, Z
    387e:	80 80       	ld	r8, Z
    3880:	80 80       	ld	r8, Z
    3882:	80 80       	ld	r8, Z
    3884:	80 80       	ld	r8, Z
    3886:	80 80       	ld	r8, Z
    3888:	80 80       	ld	r8, Z
    388a:	80 80       	ld	r8, Z
    388c:	80 80       	ld	r8, Z
    388e:	80 80       	ld	r8, Z
    3890:	80 80       	ld	r8, Z
    3892:	80 80       	ld	r8, Z
    3894:	80 80       	ld	r8, Z
    3896:	80 80       	ld	r8, Z
    3898:	80 80       	ld	r8, Z
    389a:	80 80       	ld	r8, Z
    389c:	80 80       	ld	r8, Z
    389e:	80 80       	ld	r8, Z
    38a0:	80 80       	ld	r8, Z
    38a2:	80 80       	ld	r8, Z
    38a4:	80 80       	ld	r8, Z
    38a6:	80 80       	ld	r8, Z
    38a8:	80 80       	ld	r8, Z
    38aa:	80 80       	ld	r8, Z
    38ac:	80 80       	ld	r8, Z
    38ae:	80 80       	ld	r8, Z
    38b0:	80 80       	ld	r8, Z
    38b2:	80 80       	ld	r8, Z
    38b4:	80 80       	ld	r8, Z
    38b6:	80 80       	ld	r8, Z
    38b8:	80 80       	ld	r8, Z
    38ba:	80 80       	ld	r8, Z
    38bc:	80 80       	ld	r8, Z
    38be:	80 80       	ld	r8, Z
    38c0:	80 80       	ld	r8, Z
    38c2:	80 80       	ld	r8, Z
    38c4:	80 80       	ld	r8, Z
    38c6:	80 80       	ld	r8, Z
    38c8:	80 80       	ld	r8, Z
    38ca:	80 80       	ld	r8, Z
    38cc:	80 80       	ld	r8, Z
    38ce:	80 80       	ld	r8, Z
    38d0:	80 80       	ld	r8, Z
    38d2:	80 80       	ld	r8, Z
    38d4:	80 80       	ld	r8, Z
    38d6:	80 80       	ld	r8, Z
    38d8:	80 80       	ld	r8, Z
    38da:	80 80       	ld	r8, Z
    38dc:	80 80       	ld	r8, Z
    38de:	80 80       	ld	r8, Z
    38e0:	80 80       	ld	r8, Z
    38e2:	80 80       	ld	r8, Z
    38e4:	80 80       	ld	r8, Z
    38e6:	80 80       	ld	r8, Z
    38e8:	80 80       	ld	r8, Z
    38ea:	80 80       	ld	r8, Z
    38ec:	80 80       	ld	r8, Z
    38ee:	80 80       	ld	r8, Z
    38f0:	80 80       	ld	r8, Z
    38f2:	80 80       	ld	r8, Z
    38f4:	80 80       	ld	r8, Z
    38f6:	80 80       	ld	r8, Z
    38f8:	80 80       	ld	r8, Z
    38fa:	80 80       	ld	r8, Z
    38fc:	80 80       	ld	r8, Z
    38fe:	80 80       	ld	r8, Z
    3900:	80 80       	ld	r8, Z
    3902:	80 80       	ld	r8, Z
    3904:	80 80       	ld	r8, Z
    3906:	80 80       	ld	r8, Z
    3908:	80 80       	ld	r8, Z
    390a:	80 80       	ld	r8, Z
    390c:	80 80       	ld	r8, Z
    390e:	80 80       	ld	r8, Z
    3910:	80 80       	ld	r8, Z
    3912:	80 80       	ld	r8, Z
    3914:	80 80       	ld	r8, Z
    3916:	80 80       	ld	r8, Z
    3918:	80 80       	ld	r8, Z
    391a:	80 80       	ld	r8, Z
    391c:	80 80       	ld	r8, Z
    391e:	80 80       	ld	r8, Z
    3920:	80 80       	ld	r8, Z
    3922:	80 80       	ld	r8, Z
    3924:	80 80       	ld	r8, Z
    3926:	80 80       	ld	r8, Z
    3928:	80 80       	ld	r8, Z
    392a:	80 80       	ld	r8, Z
    392c:	80 80       	ld	r8, Z
    392e:	80 80       	ld	r8, Z
    3930:	80 80       	ld	r8, Z
    3932:	80 80       	ld	r8, Z
    3934:	80 80       	ld	r8, Z
    3936:	80 80       	ld	r8, Z
    3938:	80 80       	ld	r8, Z
    393a:	80 80       	ld	r8, Z
    393c:	80 80       	ld	r8, Z
    393e:	80 80       	ld	r8, Z
    3940:	80 80       	ld	r8, Z
    3942:	80 80       	ld	r8, Z
    3944:	80 80       	ld	r8, Z
    3946:	80 80       	ld	r8, Z
    3948:	80 80       	ld	r8, Z
    394a:	80 80       	ld	r8, Z
    394c:	80 80       	ld	r8, Z
    394e:	80 80       	ld	r8, Z
    3950:	80 80       	ld	r8, Z
    3952:	80 80       	ld	r8, Z
    3954:	80 80       	ld	r8, Z
    3956:	80 80       	ld	r8, Z
    3958:	80 80       	ld	r8, Z
    395a:	80 80       	ld	r8, Z
    395c:	80 80       	ld	r8, Z
    395e:	80 80       	ld	r8, Z
    3960:	80 80       	ld	r8, Z
    3962:	80 80       	ld	r8, Z
    3964:	80 80       	ld	r8, Z
    3966:	80 80       	ld	r8, Z
    3968:	80 80       	ld	r8, Z
    396a:	80 80       	ld	r8, Z
    396c:	80 80       	ld	r8, Z
    396e:	80 80       	ld	r8, Z
    3970:	80 80       	ld	r8, Z
    3972:	80 80       	ld	r8, Z
    3974:	80 80       	ld	r8, Z
    3976:	80 80       	ld	r8, Z
    3978:	80 80       	ld	r8, Z
    397a:	80 80       	ld	r8, Z
    397c:	80 80       	ld	r8, Z
    397e:	80 80       	ld	r8, Z
    3980:	80 80       	ld	r8, Z
    3982:	80 80       	ld	r8, Z
    3984:	80 80       	ld	r8, Z
    3986:	80 80       	ld	r8, Z
    3988:	80 80       	ld	r8, Z
    398a:	80 80       	ld	r8, Z
    398c:	80 80       	ld	r8, Z
    398e:	80 80       	ld	r8, Z
    3990:	80 80       	ld	r8, Z
    3992:	80 80       	ld	r8, Z
    3994:	80 80       	ld	r8, Z
    3996:	80 80       	ld	r8, Z
    3998:	80 80       	ld	r8, Z
    399a:	80 80       	ld	r8, Z
    399c:	80 80       	ld	r8, Z
    399e:	80 80       	ld	r8, Z
    39a0:	80 80       	ld	r8, Z
    39a2:	80 80       	ld	r8, Z
    39a4:	80 80       	ld	r8, Z
    39a6:	80 80       	ld	r8, Z
    39a8:	80 80       	ld	r8, Z
    39aa:	80 80       	ld	r8, Z
    39ac:	80 80       	ld	r8, Z
    39ae:	80 80       	ld	r8, Z
    39b0:	80 80       	ld	r8, Z
    39b2:	80 80       	ld	r8, Z
    39b4:	80 80       	ld	r8, Z
    39b6:	80 80       	ld	r8, Z
    39b8:	80 80       	ld	r8, Z
    39ba:	80 00       	.word	0x0080	; ????

000039bc <__ctors_end>:
    39bc:	11 24       	eor	r1, r1
    39be:	1f be       	out	0x3f, r1	; 63
    39c0:	cf ef       	ldi	r28, 0xFF	; 255
    39c2:	d8 e0       	ldi	r29, 0x08	; 8
    39c4:	de bf       	out	0x3e, r29	; 62
    39c6:	cd bf       	out	0x3d, r28	; 61
    39c8:	0e 94 09 1d 	call	0x3a12	; 0x3a12 <main>
    39cc:	0c 94 35 1d 	jmp	0x3a6a	; 0x3a6a <_exit>

000039d0 <__bad_interrupt>:
    39d0:	0c 94 00 00 	jmp	0	; 0x0 <__vectors>

000039d4 <spi_init>:

static const uint8_t samples[] PROGMEM = {128, 128, 128, 128, 128, 128, 128, 128, 128, 128, 128, 128, 128, 128, 128, 128, 128, 128, 128, 128, 128, 128, 128, 128, 128, 128, 128, 128, 128, 128, 128, 128, 128, 128, 128, 128, 128, 128, 128, 128, 128, 128, 128, 128, 128, 128, 128, 128, 128, 128, 128, 128, 128, 128, 128, 128, 128, 128, 128, 128, 128, 128, 128, 128, 128, 128, 128, 128, 128, 128, 128, 128, 128, 128, 128, 128, 128, 128, 128, 128, 128, 128, 128, 128, 128, 128, 128, 128, 128, 128, 128, 128, 128, 128, 128, 128, 128, 128, 128, 128, 128, 128, 128, 128, 128, 128, 128, 128, 128, 128, 128, 128, 128, 128, 128, 128, 128, 128, 128, 128, 128, 128, 128, 128, 128, 128, 128, 128, 128, 128, 128, 128, 128, 128, 128, 128, 128, 128, 128, 128, 128, 128, 128, 128, 128, 128, 128, 128, 128, 128, 128, 128, 128, 128, 128, 128, 128, 128, 128, 128, 128, 128, 128, 128, 128, 128, 128, 128, 128, 128, 128, 128, 128, 128, 128, 128, 128, 128, 128, 128, 128, 128, 128, 128, 128, 128, 128, 128, 128, 128, 128, 128, 128, 128, 128, 128, 128, 128, 128, 128, 128, 128, 128, 128, 128, 128, 128, 128, 128, 128, 128, 128, 128, 128, 128, 128, 128, 128, 128, 128, 128, 128, 128, 128, 128, 128, 128, 128, 128, 128, 128, 128, 128, 128, 128, 128, 128, 128, 128, 128, 128, 128, 128, 128, 128, 128, 128, 128, 128, 128, 128, 128, 128, 128, 128, 128, 128, 128, 128, 128, 128, 128, 128, 128, 128, 128, 128, 128, 128, 128, 128, 128, 128, 128, 128, 128, 128, 128, 128, 128, 128, 128, 128, 128, 128, 128, 128, 128, 128, 128, 128, 128, 128, 128, 128, 128, 128, 128, 128, 128, 128, 128, 128, 128, 128, 128, 128, 128, 128, 128, 128, 128, 128, 128, 128, 128, 128, 128, 128, 128, 128, 128, 128, 128, 128, 128, 128, 128, 128, 128, 128, 128, 128, 128, 128, 128, 128, 128, 128, 128, 128, 128, 128, 128, 128, 128, 128, 128, 128, 128, 128, 128, 128, 128, 128, 120, 128, 120, 128, 128, 128, 128, 128, 128, 128, 128, 128, 128, 128, 128, 128, 120, 128, 120, 120, 120, 120, 120, 120, 120, 120, 120, 120, 120, 128, 135, 135, 135, 128, 128, 128, 135, 142, 135, 120, 106, 85, 78, 78, 78, 92, 85, 85, 78, 64, 64, 71, 92, 120, 142, 156, 163, 156, 149, 142, 142, 149, 156, 163, 156, 156, 149, 149, 149, 149, 142, 142, 128, 113, 92, 78, 71, 71, 78, 92, 92, 92, 85, 71, 64, 71, 85, 113, 135, 156, 163, 156, 149, 142, 142, 149, 156, 163, 163, 156, 156, 149, 149, 142, 142, 135, 128, 113, 106, 92, 85, 85, 78, 85, 85, 85, 85, 71, 64, 64, 71, 99, 120, 142, 156, 163, 156, 149, 142, 142, 149, 149, 156, 156, 149, 149, 142, 142, 142, 142, 135, 128, 120, 113, 99, 92, 85, 78, 78, 78, 78, 78, 78, 71, 71, 78, 99, 120, 149, 163, 170, 163, 156, 142, 142, 142, 149, 149, 156, 156, 156, 149, 149, 142, 135, 135, 128, 128, 128, 120, 106, 99, 78, 71, 71, 71, 78, 78, 78, 71, 78, 92, 113, 135, 156, 170, 163, 156, 142, 135, 135, 135, 142, 149, 156, 156, 149, 142, 142, 142, 142, 142, 149, 149, 135, 120, 99, 85, 71, 64, 64, 71, 71, 71, 64, 71, 85, 106, 142, 156, 177, 177, 163, 149, 135, 128, 128, 135, 149, 156, 156, 156, 149, 142, 142, 142, 149, 156, 156, 149, 135, 106, 92, 71, 71, 71, 78, 78, 85, 78, 71, 78, 92, 120, 149, 170, 177, 163, 156, 135, 128, 128, 135, 142, 149, 149, 149, 142, 142, 142, 149, 156, 163, 170, 163, 149, 128, 106, 92, 78, 71, 71, 71, 71, 71, 64, 71, 85, 113, 142, 163, 177, 177, 163, 142, 128, 120, 120, 128, 128, 135, 135, 135, 135, 135, 149, 163, 170, 177, 177, 163, 149, 128, 106, 92, 78, 71, 64, 64, 57, 57, 64, 71, 99, 120, 149, 170, 177, 170, 149, 135, 120, 120, 113, 120, 120, 120, 120, 120, 128, 135, 156, 177, 191, 191, 184, 170, 149, 128, 113, 99, 85, 78, 57, 50, 42, 50, 64, 78, 106, 135, 156, 170, 170, 163, 149, 135, 120, 113, 113, 113, 106, 106, 106, 113, 128, 142, 163, 184, 198, 198, 191, 170, 156, 142, 128, 113, 99, 78, 64, 50, 42, 50, 64, 78, 99, 128, 149, 163, 163, 156, 149, 135, 120, 113, 113, 106, 99, 99, 99, 106, 120, 142, 170, 191, 212, 212, 198, 184, 163, 149, 128, 120, 106, 85, 71, 50, 42, 42, 57, 64, 99, 120, 142, 163, 156, 156, 149, 135, 128, 120, 106, 99, 92, 85, 85, 92, 106, 142, 170, 198, 220, 220, 212, 198, 177, 163, 149, 128, 113, 92, 71, 50, 35, 35, 50, 57, 78, 106, 120, 149, 163, 156, 149, 135, 128, 120, 113, 106, 92, 78, 71, 78, 99, 128, 177, 198, 227, 227, 212, 205, 191, 184, 163, 149, 120, 92, 64, 50, 42, 35, 42, 42, 50, 85, 113, 142, 163, 163, 149, 135, 128, 120, 120, 106, 92, 71, 57, 64, 85, 128, 170, 212, 227, 227, 220, 205, 205, 198, 184, 156, 120, 92, 71, 57, 57, 50, 42, 35, 35, 57, 99, 135, 163, 163, 142, 120, 113, 120, 128, 128, 99, 71, 42, 42, 85, 135, 184, 220, 220, 212, 212, 212, 227, 227, 198, 163, 113, 85, 78, 78, 78, 71, 42, 21, 21, 42, 99, 142, 163, 156, 128, 113, 120, 135, 149, 142, 92, 57, 28, 42, 92, 149, 184, 198, 198, 198, 212, 241, 248, 234, 191, 142, 113, 92, 99, 106, 85, 64, 28, 14, 21, 64, 106, 135, 149, 135, 128, 128, 142, 156, 156, 128, 85, 42, 35, 50, 92, 135, 156, 170, 184, 198, 234, 255, 255, 234, 184, 149, 128, 128, 128, 120, 85, 57, 35, 28, 28, 50, 92, 113, 128, 135, 128, 135, 149, 149, 142, 120, 78, 50, 50, 57, 99, 128, 135, 156, 177, 212, 241, 255, 248, 212, 184, 156, 149, 135, 128, 99, 78, 57, 50, 57, 50, 42, 57, 92, 113, 149, 142, 128, 128, 135, 128, 113, 99, 57, 50, 64, 85, 113, 135, 149, 170, 205, 234, 255, 248, 227, 205, 191, 163, 149, 135, 113, 99, 78, 57, 50, 42, 21, 42, 85, 99, 113, 128, 113, 120, 142, 135, 113, 92, 64, 50, 71, 85, 92, 113, 128, 156, 198, 220, 227, 234, 234, 220, 205, 184, 156, 149, 128, 113, 92, 71, 57, 42, 28, 28, 71, 92, 99, 113, 113, 113, 135, 135, 113, 92, 78, 71, 78, 85, 92, 99, 113, 142, 177, 198, 212, 220, 227, 227, 220, 191, 170, 156, 142, 128, 106, 85, 71, 57, 35, 28, 50, 78, 85, 85, 92, 106, 120, 128, 113, 99, 92, 99, 106, 92, 85, 92, 113, 142, 163, 163, 177, 205, 220, 212, 205, 191, 177, 177, 163, 142, 120, 113, 99, 78, 57, 50, 50, 57, 64, 64, 64, 85, 99, 92, 92, 99, 106, 113, 106, 99, 106, 113, 128, 135, 135, 149, 163, 177, 177, 177, 177, 184, 177, 170, 170, 163, 156, 149, 135, 113, 106, 99, 78, 57, 64, 64, 64, 57, 64, 71, 78, 85, 92, 106, 113, 106, 106, 113, 128, 128, 128, 135, 149, 156, 163, 163, 170, 177, 184, 184, 184, 177, 177, 177, 170, 156, 149, 135, 120, 113, 99, 92, 85, 85, 78, 78, 71, 78, 78, 78, 85, 92, 92, 92, 106, 113, 113, 120, 128, 135, 149, 149, 156, 163, 177, 184, 191, 191, 191, 191, 191, 191, 177, 170, 156, 149, 142, 128, 113, 106, 106, 106, 99, 85, 85, 85, 85, 85, 85, 85, 85, 92, 92, 99, 99, 113, 120, 128, 135, 142, 156, 163, 170, 177, 184, 191, 198, 198, 191, 191, 184, 177, 170, 156, 149, 142, 128, 120, 106, 106, 99, 92, 92, 92, 85, 92, 85, 85, 85, 85, 92, 92, 92, 99, 106, 113, 120, 128, 135, 149, 156, 163, 170, 170, 177, 177, 177, 177, 170, 170, 163, 156, 149, 142, 142, 142, 120, 135, 120, 113, 113, 99, 106, 99, 92, 99, 92, 92, 92, 99, 106, 106, 113, 120, 128, 128, 135, 149, 149, 156, 163, 156, 163, 163, 163, 163, 156, 163, 156, 149, 149, 142, 142, 135, 128, 120, 120, 106, 106, 113, 92, 106, 99, 92, 106, 99, 106, 106, 113, 120, 120, 128, 142, 142, 149, 156, 163, 163, 170, 170, 170, 170, 170, 163, 170, 163, 156, 149, 142, 142, 128, 120, 113, 106, 99, 92, 85, 85, 85, 78, 78, 85, 85, 92, 92, 99, 106, 113, 120, 120, 128, 142, 149, 149, 156, 163, 170, 177, 177, 177, 177, 170, 170, 163, 149, 142, 128, 113, 106, 85, 78, 71, 71, 64, 64, 64, 64, 71, 71, 78, 99, 99, 106, 113, 120, 128, 135, 135, 149, 156, 156, 163, 170, 170, 177, 177, 170, 170, 163, 156, 149, 135, 128, 106, 85, 78, 78, 64, 50, 64, 57, 57, 64, 64, 78, 92, 92, 106, 113, 120, 135, 142, 142, 163, 156, 156, 170, 170, 170, 170, 163, 163, 163, 149, 142, 135, 128, 106, 99, 78, 85, 78, 57, 71, 71, 50, 64, 71, 71, 78, 92, 99, 106, 113, 135, 135, 142, 163, 163, 156, 170, 177, 170, 170, 170, 163, 149, 156, 135, 128, 128, 113, 92, 85, 92, 85, 64, 78, 71, 57, 71, 78, 71, 71, 92, 106, 92, 106, 135, 128, 135, 170, 163, 163, 177, 184, 177, 177, 184, 177, 163, 170, 156, 142, 135, 128, 106, 92, 99, 85, 57, 78, 71, 50, 57, 71, 64, 71, 85, 99, 92, 106, 135, 128, 135, 170, 163, 163, 184, 191, 191, 198, 198, 191, 177, 184, 170, 149, 149, 135, 99, 92, 85, 78, 64, 57, 71, 50, 57, 85, 64, 71, 99, 92, 106, 120, 128, 142, 142, 149, 170, 163, 177, 191, 184, 191, 198, 184, 184, 184, 170, 156, 149, 128, 113, 99, 78, 78, 78, 50, 71, 64, 50, 85, 85, 78, 99, 99, 99, 135, 120, 135, 142, 142, 149, 163, 163, 177, 177, 184, 184, 184, 184, 177, 170, 156, 149, 142, 113, 106, 85, 78, 78, 57, 64, 71, 64, 85, 92, 85, 106, 106, 106, 120, 120, 120, 128, 135, 135, 142, 156, 156, 163, 177, 177, 170, 184, 170, 170, 163, 149, 142, 120, 106, 99, 71, 78, 64, 50, 64, 71, 71, 85, 99, 106, 106, 120, 128, 120, 142, 135, 135, 142, 142, 149, 156, 149, 163, 170, 170, 177, 170, 170, 170, 149, 135, 135, 106, 92, 85, 71, 71, 57, 50, 64, 71, 78, 99, 106, 113, 135, 135, 128, 142, 142, 135, 142, 149, 142, 149, 156, 156, 163, 170, 177, 170, 170, 170, 163, 142, 142, 128, 99, 92, 78, 64, 71, 57, 64, 78, 64, 92, 113, 106, 135, 142, 135, 149, 149, 149, 142, 142, 149, 142, 142, 163, 156, 163, 170, 177, 177, 170, 170, 170, 142, 142, 128, 85, 85, 64, 50, 57, 42, 64, 71, 71, 106, 113, 113, 156, 149, 142, 156, 142, 149, 142, 128, 142, 128, 128, 156, 149, 156, 177, 177, 170, 177, 177, 156, 142, 128, 106, 78, 71, 42, 50, 50, 42, 71, 78, 85, 120, 128, 135, 156, 156, 149, 156, 135, 135, 128, 120, 128, 128, 135, 149, 156, 163, 184, 184, 177, 177, 170, 142, 135, 106, 92, 71, 50, 35, 50, 35, 50, 71, 78, 99, 128, 135, 149, 163, 156, 156, 149, 142, 135, 128, 120, 128, 142, 142, 149, 177, 177, 191, 191, 177, 170, 163, 135, 120, 92, 71, 50, 28, 35, 35, 42, 57, 85, 99, 120, 142, 156, 163, 163, 163, 149, 135, 135, 128, 120, 120, 128, 149, 149, 163, 191, 198, 198, 198, 177, 170, 149, 113, 99, 71, 35, 21, 14, 21, 35, 42, 71, 106, 120, 142, 170, 170, 170, 170, 156, 142, 128, 113, 113, 113, 120, 128, 149, 170, 184, 205, 212, 205, 198, 177, 163, 128, 99, 71, 42, 14, 7, 0, 28, 42, 57, 92, 128, 135, 170, 177, 177, 177, 163, 149, 135, 120, 113, 106, 106, 120, 128, 149, 177, 184, 198, 205, 191, 177, 170, 149, 113, 92, 64, 42, 14, 14, 7, 35, 50, 71, 106, 135, 142, 177, 177, 170, 170, 156, 135, 120, 99, 99, 99, 92, 120, 128, 149, 177, 184, 191, 198, 184, 163, 156, 135, 99, 78, 50, 28, 14, 14, 14, 50, 71, 85, 128, 149, 156, 170, 170, 163, 149, 135, 120, 106, 92, 92, 99, 106, 128, 149, 163, 191, 205, 198, 198, 184, 163, 142, 120, 85, 64, 42, 21, 14, 14, 28, 50, 85, 92, 128, 149, 149, 156, 163, 142, 135, 120, 106, 99, 92, 92, 106, 106, 128, 163, 170, 184, 205, 198, 184, 177, 156, 135, 113, 85, 64, 50, 35, 21, 28, 35, 57, 92, 106, 120, 149, 149, 149, 149, 135, 120, 113, 99, 92, 92, 92, 99, 113, 120, 156, 177, 177, 184, 191, 177, 163, 149, 128, 113, 92, 71, 64, 50, 35, 50, 57, 64, 113, 120, 120, 156, 156, 142, 142, 135, 113, 113, 99, 92, 99, 99, 106, 120, 128, 149, 170, 177, 170, 177, 170, 156, 142, 128, 113, 92, 71, 64, 57, 42, 57, 64, 71, 113, 128, 128, 149, 163, 149, 149, 142, 120, 113, 113, 106, 106, 120, 128, 128, 142, 149, 163, 170, 163, 163, 163, 142, 120, 120, 113, 78, 71, 64, 57, 50, 57, 64, 85, 120, 120, 135, 156, 156, 142, 149, 149, 128, 120, 128, 120, 128, 135, 149, 149, 149, 163, 170, 163, 170, 163, 149, 142, 120, 106, 99, 78, 64, 57, 50, 50, 57, 64, 92, 120, 120, 135, 156, 156, 149, 149, 149, 135, 120, 128, 128, 135, 142, 149, 149, 163, 163, 163, 170, 163, 156, 156, 135, 120, 113, 92, 71, 64, 50, 50, 57, 50, 64, 99, 113, 120, 149, 163, 156, 156, 156, 149, 142, 135, 128, 135, 142, 149, 156, 156, 163, 163, 163, 156, 163, 163, 135, 120, 120, 99, 85, 78, 57, 57, 71, 57, 64, 92, 106, 128, 128, 149, 163, 156, 142, 149, 149, 142, 142, 135, 142, 156, 163, 156, 170, 177, 163, 149, 149, 156, 149, 128, 113, 113, 106, 92, 78, 78, 85, 71, 71, 85, 99, 120, 128, 135, 149, 156, 149, 142, 149, 149, 142, 142, 149, 149, 156, 163, 163, 163, 170, 163, 149, 149, 156, 142, 113, 106, 106, 99, 85, 71, 85, 85, 71, 71, 85, 106, 128, 128, 135, 156, 156, 142, 149, 149, 156, 149, 142, 149, 156, 163, 163, 170, 177, 163, 149, 149, 149, 135, 128, 113, 99, 99, 92, 78, 92, 92, 71, 71, 92, 85, 106, 128, 128, 142, 156, 149, 149, 156, 156, 156, 156, 156, 149, 156, 163, 163, 163, 170, 163, 149, 142, 135, 128, 128, 99, 92, 106, 99, 85, 92, 92, 78, 85, 85, 92, 113, 128, 128, 142, 156, 156, 156, 163, 163, 163, 163, 163, 156, 163, 170, 170, 163, 163, 156, 149, 135, 128, 120, 113, 92, 92, 106, 99, 92, 92, 85, 78, 78, 78, 99, 113, 120, 128, 142, 156, 163, 163, 163, 170, 170, 170, 163, 163, 170, 170, 163, 163, 156, 156, 142, 128, 120, 106, 92, 99, 99, 92, 92, 99, 92, 85, 85, 78, 85, 113, 113, 120, 135, 149, 149, 163, 163, 163, 170, 170, 163, 163, 170, 163, 163, 156, 156, 156, 135, 128, 120, 113, 92, 85, 99, 99, 99, 92, 99, 99, 92, 78, 78, 99, 113, 106, 120, 142, 149, 149, 163, 170, 163, 170, 163, 163, 170, 170, 156, 156, 163, 156, 135, 135, 128, 113, 99, 78, 85, 99, 99, 85, 99, 106, 92, 78, 78, 85, 99, 106, 106, 128, 149, 142, 149, 170, 177, 170, 163, 170, 170, 170, 163, 149, 156, 170, 142, 120, 135, 120, 99, 78, 71, 85, 99, 78, 78, 106, 99, 78, 78, 85, 92, 106, 99, 106, 149, 156, 142, 156, 177, 177, 163, 170, 170, 177, 170, 149, 149, 170, 156, 135, 135, 135, 113, 92, 71, 71, 92, 92, 71, 85, 99, 85, 71, 71, 78, 85, 106, 106, 113, 142, 149, 142, 156, 170, 170, 163, 170, 170, 170, 163, 149, 163, 163, 149, 135, 135, 128, 106, 92, 78, 78, 92, 85, 71, 85, 85, 71, 71, 71, 78, 99, 106, 106, 128, 149, 149, 156, 170, 170, 170, 170, 163, 163, 170, 156, 156, 156, 156, 156, 142, 128, 128, 113, 85, 78, 85, 85, 78, 78, 78, 78, 71, 71, 71, 85, 99, 106, 113, 135, 149, 149, 156, 177, 170, 170, 170, 163, 163, 163, 156, 156, 156, 156, 142, 135, 128, 120, 106, 92, 85, 92, 78, 71, 85, 85, 64, 71, 78, 71, 92, 106, 106, 128, 142, 142, 156, 170, 163, 163, 170, 170, 156, 156, 163, 156, 156, 149, 149, 142, 135, 128, 113, 106, 99, 85, 85, 78, 78, 78, 71, 64, 71, 64, 71, 99, 106, 106, 128, 142, 149, 163, 163, 163, 163, 163, 156, 149, 156, 156, 156, 142, 149, 149, 142, 135, 128, 113, 113, 99, 85, 92, 78, 64, 78, 71, 57, 71, 71, 64, 99, 106, 106, 128, 149, 149, 156, 163, 163, 163, 156, 156, 149, 149, 149, 142, 149, 149, 142, 135, 135, 128, 120, 120, 99, 99, 99, 71, 71, 78, 57, 57, 64, 64, 71, 99, 106, 120, 135, 142, 149, 156, 163, 163, 163, 149, 156, 156, 149, 142, 149, 142, 142, 142, 135, 142, 142, 128, 128, 113, 113, 99, 78, 71, 78, 64, 57, 64, 71, 78, 99, 106, 120, 135, 149, 149, 156, 163, 163, 156, 149, 156, 149, 142, 142, 142, 149, 149, 135, 142, 156, 149, 142, 135, 128, 128, 106, 85, 92, 78, 64, 64, 64, 71, 85, 92, 99, 120, 135, 135, 149, 163, 156, 163, 156, 149, 156, 149, 135, 149, 142, 135, 142, 128, 135, 156, 142, 128, 135, 128, 120, 106, 92, 92, 85, 71, 64, 78, 71, 85, 92, 99, 128, 128, 128, 149, 156, 156, 156, 156, 156, 163, 149, 142, 156, 142, 135, 142, 128, 135, 142, 128, 128, 128, 113, 113, 106, 92, 92, 92, 85, 92, 92, 92, 106, 106, 106, 120, 120, 120, 128, 128, 128, 135, 135, 142, 142, 142, 142, 149, 149, 149, 142, 142, 142, 135, 135, 135, 128, 128, 120, 113, 113, 120, 113, 120, 120, 120, 128, 120, 128, 128, 128, 128, 128, 120, 120, 128, 120, 128, 128, 120, 135, 135, 128, 135, 135, 135, 135, 135, 128, 135, 128, 128, 142, 135, 128, 135, 135, 135, 135, 135, 128, 128, 128, 120, 120, 113, 113, 113, 106, 106, 106, 106, 106, 113, 106, 113, 113, 120, 120, 120, 128, 128, 128, 128, 135, 128, 135, 135, 135, 135, 135, 142, 142, 142, 142, 142, 142, 135, 135, 135, 128, 120, 113, 106, 106, 99, 99, 99, 99, 99, 99, 106, 106, 113, 113, 120, 120, 128, 128, 128, 128, 128, 135, 135, 135, 135, 135, 135, 135, 142, 142, 142, 135, 135, 135, 128, 128, 128, 120, 113, 106, 106, 99, 99, 99, 99, 99, 99, 99, 106, 106, 113, 113, 113, 120, 120, 120, 128, 128, 135, 135, 135, 135, 135, 142, 142, 142, 142, 135, 135, 135, 135, 128, 128, 120, 120, 113, 113, 113, 106, 106, 106, 106, 106, 106, 106, 106, 106, 106, 106, 113, 113, 113, 120, 120, 128, 128, 135, 135, 135, 142, 142, 142, 142, 142, 135, 135, 135, 135, 128, 128, 128, 120, 120, 120, 120, 113, 113, 113, 113, 113, 113, 106, 106, 106, 106, 106, 106, 106, 113, 113, 113, 120, 120, 128, 128, 135, 135, 135, 135, 135, 135, 135, 135, 135, 128, 128, 128, 120, 120, 120, 120, 120, 120, 120, 120, 113, 113, 113, 113, 113, 113, 113, 113, 113, 113, 113, 113, 113, 120, 120, 120, 128, 128, 128, 128, 135, 135, 135, 135, 135, 135, 128, 128, 128, 120, 120, 120, 120, 120, 120, 120, 120, 120, 120, 120, 120, 120, 120, 120, 120, 120, 120, 120, 120, 120, 120, 120, 120, 120, 120, 120, 128, 128, 128, 128, 128, 128, 128, 128, 128, 128, 128, 128, 128, 128, 128, 128, 120, 120, 120, 120, 120, 120, 128, 128, 128, 128, 128, 128, 128, 128, 128, 128, 120, 120, 120, 120, 120, 120, 120, 120, 120, 120, 128, 128, 128, 128, 135, 135, 128, 128, 128, 128, 128, 128, 128, 128, 128, 128, 128, 128, 128, 128, 128, 128, 128, 128, 128, 128, 128, 128, 128, 128, 128, 128, 128, 128, 120, 120, 120, 120, 120, 128, 128, 128, 128, 128, 128, 128, 128, 128, 135, 135, 135, 135, 135, 135, 135, 135, 135, 128, 128, 128, 128, 128, 128, 128, 128, 128, 128, 128, 128, 128, 128, 128, 128, 128, 128, 128, 128, 128, 120, 120, 120, 120, 128, 128, 128, 128, 135, 135, 135, 135, 135, 135, 135, 135, 135, 135, 135, 135, 135, 128, 128, 128, 128, 128, 128, 128, 128, 120, 120, 128, 128, 128, 128, 128, 128, 120, 120, 120, 120, 120, 128, 128, 128, 128, 128, 135, 135, 135, 135, 135, 135, 135, 142, 142, 142, 142, 142, 142, 135, 135, 128, 128, 128, 128, 128, 128, 128, 128, 149, 120, 120, 120, 113, 128, 113, 128, 113, 120, 128, 120, 128, 128, 128, 128, 128, 135, 128, 135, 135, 135, 135, 135, 142, 142, 135, 135, 135, 128, 135, 135, 128, 128, 120, 128, 128, 120, 128, 120, 120, 120, 120, 113, 120, 120, 120, 120, 120, 120, 135, 120, 128, 128, 128, 135, 128, 135, 135, 128, 142, 142, 128, 128, 135, 128, 128, 135, 128, 120, 128, 120, 120, 120, 120, 120, 113, 120, 106, 120, 120, 120, 113, 120, 128, 113, 128, 120, 120, 128, 120, 135, 120, 135, 128, 128, 128, 128, 120, 128, 128, 120, 128, 128, 120, 120, 120, 113, 128, 113, 128, 120, 113, 128, 120, 128, 120, 120, 128, 113, 135, 120, 128, 120, 135, 120, 128, 135, 120, 128, 135, 120, 120, 120, 128, 128, 113, 142, 120, 120, 128, 120, 120, 113, 128, 120, 128, 113, 128, 128, 113, 135, 113, 135, 135, 106, 149, 106, 120, 142, 113, 128, 120, 120, 128, 113, 120, 128, 106, 128, 113, 120, 120, 120, 120, 128, 113, 120, 120, 106, 142, 106, 128, 128, 120, 106, 142, 99, 135, 113, 120, 128, 128, 113, 135, 128, 120, 135, 106, 135, 113, 120, 120, 113, 128, 113, 113, 135, 106, 120, 128, 106, 128, 113, 113, 142, 99, 120, 135, 113, 106, 142, 92, 149, 113, 106, 156, 99, 106, 142, 113, 128, 113, 128, 135, 85, 142, 99, 128, 106, 128, 113, 128, 113, 120, 135, 99, 135, 113, 113, 128, 128, 113, 128, 106, 149, 85, 135, 106, 120, 99, 128, 120, 106, 113, 142, 92, 128, 113, 106, 128, 106, 120, 120, 106, 113, 135, 106, 113, 135, 99, 149, 78, 156, 128, 99, 149, 99, 135, 106, 128, 113, 128, 106, 120, 106, 142, 85, 142, 99, 128, 92, 163, 71, 149, 92, 128, 106, 128, 99, 149, 71, 149, 92, 106, 128, 99, 128, 120, 106, 142, 128, 106, 142, 113, 120, 106, 142, 92, 135, 92, 142, 99, 99, 135, 113, 113, 120, 120, 99, 135, 99, 128, 128, 106, 128, 120, 113, 120, 128, 106, 128, 106, 135, 113, 120, 135, 120, 128, 135, 92, 149, 106, 128, 106, 128, 99, 142, 78, 149, 99, 128, 106, 128, 106, 142, 99, 142, 120, 106, 128, 106, 120, 106, 113, 113, 128, 92, 149, 99, 135, 113, 135, 128, 128, 113, 149, 106, 120, 135, 106, 113, 113, 113, 135, 106, 106, 149, 106, 106, 128, 113, 120, 106, 120, 120, 99, 106, 128, 113, 113, 113, 128, 128, 99, 120, 135, 99, 128, 120, 120, 120, 113, 113, 135, 99, 106, 128, 113, 106, 128, 120, 128, 113, 128, 128, 120, 113, 135, 128, 106, 135, 128, 113, 113, 113, 113, 113, 92, 113, 113, 92, 106, 120, 99, 106, 106, 113, 120, 106, 120, 120, 113, 120, 135, 128, 128, 128, 135, 135, 128, 149, 135, 142, 149, 135, 142, 128, 113, 120, 106, 92, 106, 85, 85, 85, 71, 85, 99, 92, 106, 120, 120, 135, 128, 135, 135, 135, 128, 128, 120, 113, 128, 120, 128, 135, 135, 149, 149, 149, 163, 149, 149, 149, 135, 120, 113, 99, 99, 92, 92, 92, 85, 85, 85, 106, 120, 113, 128, 135, 135, 135, 128, 135, 128, 113, 120, 120, 106, 113, 113, 128, 135, 142, 149, 163, 156, 163, 163, 163, 163, 149, 149, 149, 120, 113, 106, 106, 113, 106, 106, 120, 106, 92, 113, 128, 120, 120, 135, 142, 128, 128, 128, 128, 113, 106, 99, 106, 92, 106, 128, 128, 149, 163, 163, 177, 184, 170, 177, 170, 163, 156, 149, 142, 135, 113, 113, 120, 120, 113, 106, 113, 113, 99, 106, 135, 135, 128, 142, 142, 135, 120, 113, 113, 99, 85, 92, 99, 106, 120, 135, 156, 177, 170, 184, 191, 184, 170, 177, 170, 149, 149, 149, 142, 128, 120, 120, 113, 120, 120, 106, 113, 106, 92, 106, 128, 113, 113, 135, 135, 113, 113, 113, 99, 92, 85, 92, 106, 128, 135, 163, 177, 170, 184, 177, 170, 163, 156, 149, 149, 149, 149, 149, 142, 135, 128, 120, 113, 113, 120, 113, 99, 99, 85, 99, 128, 120, 106, 128, 128, 113, 113, 99, 99, 99, 85, 99, 128, 135, 149, 177, 170, 170, 170, 156, 163, 156, 149, 156, 163, 170, 170, 163, 163, 149, 128, 120, 106, 99, 113, 120, 99, 92, 92, 99, 128, 113, 113, 128, 120, 106, 99, 92, 85, 85, 85, 113, 128, 135, 149, 163, 163, 163, 156, 156, 163, 163, 163, 170, 163, 170, 177, 170, 156, 135, 128, 120, 113, 99, 113, 135, 113, 99, 99, 99, 120, 120, 106, 120, 113, 99, 85, 71, 71, 78, 99, 120, 120, 135, 156, 156, 149, 149, 142, 142, 149, 156, 163, 177, 170, 170, 177, 170, 156, 135, 128, 128, 120, 113, 113, 120, 128, 99, 78, 78, 85, 113, 113, 106, 106, 106, 99, 78, 71, 78, 99, 120, 120, 135, 142, 149, 142, 135, 128, 135, 142, 142, 163, 184, 184, 170, 170, 177, 156, 149, 135, 128, 135, 128, 106, 106, 106, 106, 78, 64, 78, 106, 128, 113, 106, 99, 92, 78, 57, 57, 92, 128, 128, 135, 135, 142, 135, 128, 120, 135, 142, 156, 170, 191, 198, 191, 184, 163, 149, 149, 142, 128, 135, 142, 128, 113, 99, 85, 85, 85, 71, 85, 113, 128, 113, 85, 78, 71, 64, 57, 85, 113, 135, 135, 128, 135, 135, 128, 120, 120, 142, 163, 184, 184, 191, 177, 163, 156, 142, 142, 142, 142, 149, 156, 149, 135, 106, 85, 71, 71, 78, 78, 99, 120, 113, 85, 71, 57, 57, 64, 85, 106, 128, 142, 142, 135, 128, 120, 113, 120, 135, 156, 170, 184, 184, 177, 163, 156, 149, 149, 142, 149, 156, 163, 156, 135, 113, 85, 78, 57, 57, 78, 85, 113, 120, 99, 78, 64, 57, 64, 92, 106, 120, 135, 128, 128, 128, 120, 113, 128, 135, 149, 163, 170, 184, 191, 184, 170, 156, 149, 156, 156, 156, 156, 149, 142, 128, 113, 78, 57, 50, 64, 85, 99, 113, 113, 99, 85, 64, 71, 85, 113, 113, 106, 113, 120, 128, 128, 120, 120, 135, 149, 156, 170, 177, 184, 184, 177, 163, 163, 163, 163, 163, 156, 149, 156, 149, 128, 106, 78, 57, 57, 57, 71, 92, 106, 99, 85, 78, 64, 78, 92, 99, 106, 99, 106, 128, 135, 135, 128, 135, 142, 156, 163, 170, 177, 184, 184, 170, 177, 177, 170, 170, 163, 149, 149, 149, 142, 120, 92, 71, 64, 57, 50, 64, 85, 99, 99, 85, 57, 57, 78, 92, 92, 92, 92, 106, 128, 128, 135, 135, 135, 149, 156, 163, 163, 177, 184, 184, 184, 177, 170, 170, 163, 149, 149, 142, 142, 135, 120, 99, 85, 78, 64, 57, 50, 71, 85, 92, 85, 71, 78, 85, 92, 92, 85, 92, 106, 135, 142, 149, 149, 149, 156, 163, 163, 170, 177, 184, 184, 184, 184, 177, 177, 163, 156, 149, 142, 149, 142, 128, 113, 92, 85, 71, 57, 50, 57, 71, 78, 78, 78, 78, 92, 92, 92, 92, 99, 106, 128, 142, 149, 156, 156, 156, 156, 163, 170, 177, 184, 184, 184, 184, 177, 177, 170, 156, 149, 142, 142, 142, 128, 120, 106, 85, 78, 64, 57, 50, 57, 64, 78, 92, 92, 92, 92, 92, 99, 99, 106, 120, 128, 135, 149, 156, 156, 156, 156, 156, 163, 170, 177, 170, 170, 170, 170, 170, 163, 156, 142, 135, 135, 128, 128, 120, 106, 99, 85, 78, 71, 64, 57, 64, 71, 85, 92, 92, 92, 92, 99, 106, 106, 113, 120, 135, 142, 149, 156, 156, 149, 156, 156, 163, 163, 163, 163, 163, 163, 163, 163, 156, 149, 142, 135, 135, 135, 128, 120, 106, 99, 85, 78, 64, 57, 57, 64, 71, 78, 85, 85, 85, 85, 92, 99, 106, 113, 128, 135, 142, 149, 149, 156, 156, 156, 163, 163, 170, 170, 170, 170, 170, 170, 163, 156, 149, 142, 135, 135, 128, 113, 99, 85, 71, 57, 50, 42, 42, 50, 57, 71, 71, 71, 71, 78, 85, 92, 106, 120, 128, 142, 149, 156, 163, 170, 170, 177, 177, 177, 177, 177, 177, 177, 170, 163, 156, 149, 142, 135, 128, 120, 106, 92, 71, 64, 50, 42, 42, 42, 50, 50, 57, 64, 71, 71, 85, 85, 99, 113, 120, 135, 142, 156, 163, 170, 177, 177, 184, 184, 184, 184, 184, 177, 177, 170, 163, 156, 156, 149, 135, 128, 120, 99, 85, 71, 57, 42, 35, 42, 42, 50, 57, 57, 57, 64, 71, 85, 92, 106, 113, 128, 135, 149, 163, 170, 177, 184, 184, 191, 191, 198, 191, 191, 184, 177, 170, 163, 163, 156, 149, 142, 128, 113, 99, 85, 71, 57, 50, 42, 50, 50, 57, 57, 57, 57, 71, 78, 92, 99, 113, 120, 128, 135, 149, 163, 170, 177, 177, 184, 191, 191, 191, 191, 191, 177, 177, 170, 170, 163, 156, 149, 142, 128, 113, 99, 85, 71, 64, 50, 50, 50, 50, 50, 50, 50, 57, 64, 71, 85, 92, 106, 113, 120, 135, 149, 156, 170, 177, 184, 191, 191, 191, 191, 191, 184, 177, 177, 170, 170, 163, 156, 149, 135, 128, 113, 99, 85, 71, 57, 50, 50, 50, 50, 50, 50, 50, 50, 64, 78, 85, 99, 106, 113, 128, 135, 149, 163, 170, 177, 184, 184, 191, 191, 191, 191, 191, 184, 177, 170, 170, 163, 156, 142, 135, 120, 106, 92, 78, 71, 57, 50, 50, 50, 50, 50, 50, 50, 57, 71, 78, 92, 99, 106, 113, 128, 142, 149, 163, 177, 177, 184, 191, 191, 198, 198, 191, 191, 184, 184, 177, 170, 163, 156, 142, 135, 120, 106, 99, 85, 71, 64, 57, 57, 57, 50, 57, 57, 57, 64, 71, 78, 92, 99, 113, 120, 135, 149, 156, 170, 177, 177, 184, 184, 191, 191, 191, 191, 191, 184, 184, 170, 163, 156, 149, 142, 135, 120, 106, 99, 85, 78, 71, 57, 57, 57, 57, 64, 64, 64, 71, 78, 85, 92, 106, 113, 128, 135, 142, 156, 163, 170, 177, 177, 177, 184, 184, 184, 184, 184, 184, 177, 170, 163, 156, 149, 142, 135, 120, 106, 99, 85, 78, 71, 64, 64, 64, 64, 64, 71, 71, 71, 78, 85, 92, 106, 113, 128, 135, 142, 149, 156, 163, 170, 177, 177, 177, 184, 184, 184, 184, 184, 177, 170, 163, 156, 156, 149, 142, 128, 120, 106, 99, 85, 78, 71, 71, 64, 71, 71, 71, 78, 78, 78, 85, 92, 99, 113, 120, 135, 135, 142, 156, 163, 170, 177, 177, 184, 184, 184, 184, 184, 184, 177, 177, 170, 163, 156, 149, 142, 135, 128, 113, 99, 92, 85, 78, 71, 71, 71, 71, 71, 78, 78, 85, 85, 92, 99, 113, 120, 128, 135, 142, 149, 156, 163, 170, 170, 177, 177, 177, 177, 177, 177, 177, 170, 170, 163, 156, 149, 142, 128, 120, 113, 106, 92, 85, 85, 78, 71, 71, 78, 78, 78, 85, 85, 85, 92, 99, 106, 113, 120, 128, 135, 142, 149, 156, 163, 170, 170, 170, 177, 177, 170, 170, 170, 163, 163, 156, 149, 142, 142, 128, 120, 113, 106, 99, 92, 85, 78, 78, 71, 78, 78, 78, 85, 85, 85, 92, 92, 99, 106, 113, 120, 128, 135, 142, 149, 156, 163, 163, 163, 170, 170, 163, 163, 163, 163, 163, 156, 149, 149, 142, 135, 128, 120, 113, 106, 106, 99, 92, 85, 85, 78, 85, 85, 85, 85, 85, 92, 92, 99, 106, 113, 120, 120, 128, 135, 142, 142, 149, 156, 156, 163, 163, 163, 163, 163, 163, 163, 156, 156, 149, 142, 142, 135, 128, 120, 113, 106, 106, 99, 92, 92, 85, 85, 85, 92, 92, 92, 99, 99, 99, 99, 106, 106, 113, 120, 120, 128, 135, 142, 142, 149, 149, 156, 156, 156, 156, 156, 156, 156, 156, 149, 149, 142, 135, 135, 128, 120, 120, 120, 113, 106, 106, 99, 92, 92, 92, 92, 92, 92, 92, 99, 99, 99, 106, 106, 113, 120, 120, 128, 135, 135, 142, 142, 149, 149, 149, 149, 156, 156, 156, 156, 156, 156, 149, 142, 142, 135, 128, 128, 128, 120, 120, 113, 113, 106, 106, 99, 99, 99, 99, 99, 99, 99, 99, 99, 106, 106, 113, 113, 113, 120, 128, 135, 135, 135, 142, 142, 142, 149, 149, 149, 156, 156, 156, 149, 149, 149, 142, 142, 135, 135, 128, 128, 128, 128, 120, 120, 113, 113, 106, 106, 106, 99, 99, 99, 106, 106, 106, 106, 113, 113, 113, 120, 120, 128, 128, 128, 135, 135, 135, 135, 142, 142, 142, 149, 149, 149, 142, 142, 142, 135, 135, 135, 128, 128, 128, 128, 128, 128, 120, 120, 120, 113, 113, 113, 113, 113, 113, 113, 113, 113, 113, 113, 113, 113, 113, 113, 113, 120, 120, 128, 128, 128, 135, 135, 135, 135, 135, 135, 135, 135, 135, 135, 135, 128, 135, 128, 128, 128, 128, 128, 128, 120, 120, 120, 120, 120, 113, 113, 113, 113, 113, 113, 113, 113, 113, 113, 113, 113, 113, 113, 113, 120, 120, 120, 120, 120, 120, 128, 128, 128, 128, 135, 142, 149, 149, 142, 142, 135, 135, 135, 135, 142, 142, 142, 135, 135, 135, 135, 135, 128, 128, 128, 120, 113, 113, 106, 106, 106, 106, 106, 106, 113, 113, 120, 120, 120, 120, 120, 120, 128, 128, 135, 135, 135, 135, 135, 135, 135, 135, 135, 128, 128, 128, 120, 120, 120, 113, 113, 113, 113, 113, 113, 106, 106, 106, 106, 106, 106, 106, 106, 113, 113, 113, 113, 113, 120, 120, 120, 120, 113, 113, 113, 113, 120, 113, 113, 113, 113, 113, 113, 113, 113, 113, 113, 113, 113, 113, 120, 120, 120, 120, 120, 120, 120, 120, 120, 120, 120, 120, 120, 120, 120, 120, 120, 120, 120, 120, 113, 113, 113, 113, 113, 113, 113, 120, 120, 128, 149, 163, 163, 156, 135, 113, 106, 120, 128, 128, 120, 113, 106, 113, 128, 135, 135, 135, 142, 149, 156, 156, 135, 128, 113, 113, 120, 128, 135, 142, 142, 135, 128, 128, 128, 128, 128, 120, 113, 106, 113, 120, 128, 128, 120, 128, 128, 142, 142, 142, 135, 120, 120, 120, 128, 128, 128, 120, 120, 128, 135, 135, 128, 106, 99, 99, 106, 113, 113, 106, 106, 99, 106, 113, 120, 128, 128, 135, 135, 135, 128, 128, 128, 120, 120, 113, 113, 120, 128, 128, 135, 128, 120, 120, 120, 120, 113, 113, 106, 106, 106, 113, 113, 113, 106, 106, 106, 113, 113, 113, 113, 113, 113, 113, 120, 120, 128, 120, 120, 120, 120, 128, 128, 128, 120, 113, 113, 120, 120, 128, 120, 120, 113, 113, 120, 120, 120, 113, 113, 113, 113, 113, 113, 113, 106, 106, 113, 113, 120, 120, 120, 113, 113, 113, 120, 120, 120, 120, 120, 120, 128, 128, 128, 120, 120, 128, 128, 128, 128, 128, 128, 120, 120, 120, 120, 120, 113, 113, 113, 113, 113, 120, 113, 113, 106, 106, 113, 113, 113, 113, 113, 120, 120, 120, 128, 128, 128, 128, 128, 128, 128, 128, 128, 120, 120, 120, 128, 128, 128, 120, 120, 120, 128, 128, 128, 120, 120, 113, 113, 120, 120, 120, 120, 113, 106, 113, 113, 120, 120, 120, 113, 113, 120, 120, 128, 128, 128, 128, 128, 135, 135, 135, 135, 128, 120, 128, 128, 128, 128, 128, 120, 128, 128, 135, 142, 142, 135, 128, 113, 113, 120, 128, 128, 120, 120, 113, 113, 113, 120, 120, 120, 113, 113, 120, 128, 142, 142, 142, 135, 135, 135, 142, 142, 135, 128, 120, 120, 128, 135, 135, 135, 135, 128, 135, 135, 135, 135, 128, 120, 120, 120, 120, 120, 120, 120, 113, 113, 113, 106, 106, 106, 106, 113, 128, 135, 142, 149, 149, 142, 135, 135, 128, 128, 128, 120, 120, 113, 113, 120, 120, 128, 128, 128, 128, 120, 128, 128, 135, 135, 135, 128, 128, 120, 120, 120, 128, 120, 120, 113, 113, 113, 113, 113, 113, 120, 128, 128, 135, 142, 142, 142, 135, 135, 128, 128, 120, 120, 113, 113, 113, 113, 113, 113, 106, 113, 113, 120, 128, 128, 135, 135, 135, 135, 135, 135, 135, 128, 128, 120, 120, 120, 120, 120, 120, 113, 113, 113, 113, 120, 128, 135, 135, 135, 135, 135, 135, 135, 128, 128, 120, 113, 113, 113, 113, 113, 106, 106, 106, 113, 120, 128, 135, 142, 142, 142, 142, 142, 142, 142, 135, 128, 120, 120, 120, 128, 128, 120, 113, 113, 113, 120, 120, 128, 135, 135, 135, 142, 142, 142, 142, 142, 128, 128, 120, 120, 120, 120, 120, 113, 106, 106, 113, 113, 120, 128, 135, 142, 142, 149, 149, 149, 149, 142, 135, 135, 128, 128, 128, 128, 128, 128, 120, 120, 120, 120, 128, 128, 128, 135, 135, 142, 142, 142, 142, 142, 135, 135, 128, 128, 120, 120, 120, 113, 113, 113, 113, 113, 120, 128, 135, 142, 149, 149, 156, 156, 149, 149, 142, 135, 135, 128, 128, 120, 128, 128, 128, 128, 128, 120, 128, 128, 128, 128, 135, 135, 135, 142, 142, 142, 135, 135, 128, 120, 120, 120, 120, 120, 113, 113, 113, 113, 113, 120, 128, 135, 135, 142, 142, 142, 142, 142, 142, 135, 128, 120, 120, 120, 120, 128, 128, 128, 128, 120, 120, 128, 128, 128, 128, 128, 135, 135, 142, 142, 135, 135, 128, 128, 120, 120, 120, 120, 113, 113, 113, 113, 113, 120, 120, 128, 128, 135, 142, 142, 149, 142, 135, 135, 128, 128, 120, 128, 128, 128, 128, 128, 128, 135, 128, 128, 128, 120, 120, 128, 128, 135, 135, 135, 135, 128, 128, 128, 128, 120, 120, 120, 113, 113, 106, 106, 106, 106, 113, 113, 128, 135, 135, 142, 142, 142, 142, 135, 135, 128, 128, 120, 120, 120, 120, 120, 128, 128, 128, 128, 128, 128, 120, 120, 120, 120, 128, 128, 128, 128, 128, 128, 128, 120, 120, 120, 120, 113, 113, 113, 113, 106, 113, 113, 113, 120, 128, 128, 135, 135, 135, 135, 135, 128, 128, 120, 120, 113, 113, 120, 120, 128, 128, 128, 120, 120, 120, 120, 120, 120, 120, 120, 120, 128, 128, 128, 128, 128, 120, 120, 120, 120, 120, 113, 113, 106, 106, 106, 106, 113, 113, 120, 120, 128, 128, 135, 135, 128, 128, 128, 128, 120, 120, 120, 120, 120, 120, 128, 128, 128, 128, 128, 120, 120, 120, 120, 120, 128, 128, 128, 128, 128, 128, 120, 120, 120, 113, 113, 113, 113, 113, 106, 106, 106, 113, 113, 113, 120, 128, 135, 135, 135, 135, 135, 135, 128, 128, 128, 120, 120, 120, 120, 120, 128, 128, 120, 120, 120, 113, 120, 120, 120, 120, 128, 128, 128, 128, 128, 120, 120, 120, 113, 113, 113, 113, 113, 106, 106, 106, 106, 113, 113, 120, 128, 128, 135, 135, 135, 135, 135, 128, 128, 120, 120, 120, 120, 120, 120, 120, 120, 120, 120, 113, 120, 120, 120, 120, 120, 120, 128, 128, 128, 128, 128, 120, 120, 113, 113, 113, 113, 113, 106, 106, 106, 106, 113, 120, 120, 128, 128, 128, 135, 135, 135, 135, 128, 128, 120, 113, 113, 113, 120, 120, 120, 120, 120, 120, 120, 120, 120, 120, 120, 120, 128, 128, 128, 128, 128, 120, 120, 113, 113, 113, 113, 113, 113, 113, 113, 113, 113, 113, 120, 120, 128, 128, 135, 135, 135, 135, 135, 128, 128, 120, 120, 120, 120, 128, 128, 128, 128, 120, 120, 120, 120, 120, 120, 120, 120, 120, 128, 128, 128, 128, 128, 120, 120, 120, 120, 113, 113, 113, 113, 113, 113, 113, 120, 120, 128, 128, 128, 128, 128, 135, 135, 135, 128, 120, 120, 113, 113, 120, 120, 120, 120, 120, 120, 120, 120, 120, 120, 120, 120, 120, 120, 128, 128, 128, 128, 128, 120, 120, 120, 120, 120, 113, 120, 120, 120, 120, 120, 120, 120, 128, 128, 128, 128, 128, 128, 128, 120, 120, 120, 120, 120, 120, 120, 120, 120, 120, 120, 113, 113, 113, 113, 120, 120, 128, 128, 128, 128, 128, 128, 128, 128, 120, 120, 120, 120, 120, 120, 113, 120, 120, 120, 120, 120, 128, 128, 128, 128, 128, 120, 120, 120, 120, 120, 120, 120, 120, 120, 120, 120, 120, 120, 120, 120, 120, 128, 128, 135, 135, 135, 135, 128, 128, 128, 128, 128, 128, 120, 120, 120, 120, 120, 120, 120, 120, 120, 120, 128, 128, 128, 128, 128, 120, 120, 120, 128, 128, 120, 120, 120, 120, 113, 120, 120, 120, 120, 128, 128, 128, 128, 128, 135, 135, 135, 128, 128, 128, 120, 120, 120, 120, 120, 120, 120, 120, 120, 120, 120, 128, 128, 128, 128, 120, 120, 120, 120, 120, 120, 120, 120, 120, 120, 120, 120, 120, 120, 120, 120, 120, 120, 128, 128, 128, 128, 128, 128, 128, 128, 128, 128, 120, 120, 120, 120, 120, 120, 120, 120, 120, 120, 120, 120, 120, 120, 120, 113, 113, 120, 120, 120, 128, 120, 120, 120, 120, 120, 120, 120, 120, 120, 120, 120, 120, 120, 128, 128, 128, 128, 128, 128, 120, 120, 120, 120, 120, 120, 120, 120, 120, 120, 120, 120, 120, 128, 128, 120, 120, 120, 120, 120, 120, 128, 128, 128, 128, 128, 120, 120, 120, 120, 120, 120, 120, 120, 120, 120, 120, 128, 128, 128, 128, 128, 128, 120, 120, 120, 120, 120, 120, 120, 120, 120, 120, 120, 120, 128, 128, 120, 120, 120, 113, 120, 120, 120, 128, 120, 120, 120, 120, 120, 120, 120, 120, 120, 120, 120, 120, 120, 120, 120, 128, 128, 120, 120, 120, 120, 120, 120, 120, 120, 120, 120, 120, 120, 120, 120, 128, 128, 120, 120, 120, 113, 113, 120, 120, 120, 128, 128, 120, 120, 120, 120, 120, 120, 120, 120, 120, 120, 113, 120, 120, 120, 120, 120, 128, 128, 120, 120, 120, 120, 120, 120, 120, 120, 120, 120, 120, 120, 128, 128, 128, 128, 120, 120, 120, 120, 120, 128, 128, 128, 128, 128, 128, 128, 128, 128, 128, 128, 120, 120, 120, 120, 120, 128, 128, 128, 128, 128, 128, 128, 128, 128, 128, 128, 128, 128, 128, 128, 128, 128, 128, 128, 128, 128, 128, 128, 128, 128, 128, 128, 128, 128, 128, 128, 128, 128, 128, 128, 128, 128, 128, 128, 128, 128, 128, 128, 128, 128, 128, 128, 128, 128, 128, 128, 128, 128, 128, 128, 128, 128, 128, 128, 128, 128, 128, 128, 128, 128, 128, 128, 128, 128, 128, 128, 135, 135, 135, 135, 135, 135, 128, 128, 128, 128, 128, 128, 128, 135, 128, 128, 128, 128, 128, 128, 128, 128, 128, 128, 128, 128, 128, 128, 128, 128, 135, 135, 135, 135, 135, 135, 128, 128, 128, 128, 128, 135, 135, 135, 135, 135, 135, 135, 128, 128, 128, 128, 128, 128, 128, 128, 128, 128, 128, 128, 128, 128, 128, 128, 128, 128, 128, 128, 128, 128, 128, 128, 128, 128, 128, 128, 128, 128, 128, 128, 128, 128, 128, 128, 128, 128, 128, 128, 128, 128, 128, 128, 128, 128, 128, 128, 128, 128, 128, 128, 128, 128, 128, 128, 128, 128, 128, 128, 128, 128, 128, 128, 128, 128, 128, 128, 128, 128, 128, 128, 128, 128, 128, 128, 128, 128, 128, 128, 128, 128, 128, 128, 128, 128, 128, 128, 128, 128, 128, 128, 128, 128, 128, 128, 128, 128, 128, 128, 128, 128, 128, 128, 128, 128, 128, 128, 128, 128, 128, 128, 128, 128, 128, 128, 128, 128, 128, 128, 128, 128, 128, 128, 135, 135, 135, 135, 135, 135, 135, 135, 135, 135, 128, 128, 128, 128, 128, 128, 128, 128, 128, 128, 128, 128, 128, 128, 128, 128, 128, 128, 128, 128, 128, 128, 128, 128, 128, 135, 135, 135, 135, 135, 135, 135, 128, 128, 128, 128, 128, 128, 128, 128, 128, 128, 128, 128, 128, 128, 128, 128, 128, 128, 128, 128, 128, 128, 128, 128, 128, 128, 128, 128, 128, 128, 128, 128, 128, 128, 128, 128, 128, 128, 128, 128, 128, 128, 128, 128, 128, 128, 128, 128, 128, 128, 128, 128, 128, 128, 128, 128, 128, 128, 120, 120, 120, 120, 120, 120, 120, 120, 120, 120, 120, 120, 120, 120, 120, 120, 120, 120, 120, 120, 120, 120, 120, 120, 120, 120, 120, 120, 120, 120, 128, 128, 128, 128, 128, 128, 128, 120, 120, 120, 120, 120, 120, 120, 120, 120, 120, 120, 120, 120, 120, 120, 120, 120, 120, 120, 120, 120, 120, 120, 120, 120, 120, 120, 120, 120, 120, 128, 128, 128, 128, 120, 120, 120, 120, 120, 120, 120, 120, 120, 120, 120, 120, 120, 120, 120, 120, 120, 120, 120, 120, 120, 120, 120, 120, 120, 120, 120, 120, 120, 120, 120, 120, 120, 120, 120, 120, 120, 120, 120, 120, 120, 120, 120, 120, 120, 120, 120, 120, 120, 120, 120, 120, 120, 120, 120, 120, 120, 120, 120, 120, 113, 113, 113, 113, 113, 113, 113, 113, 113, 113, 113, 113, 113, 113, 120, 120, 120, 120, 120, 120, 120, 120, 120, 120, 120, 120, 120, 120, 120, 120, 120, 120, 120, 120, 120, 120, 120, 113, 113, 113, 113, 113, 113, 113, 113, 113, 113, 113, 113, 113, 113, 113, 113, 113, 113, 113, 120, 120, 120, 120, 120, 120, 120, 120, 120, 120, 120, 120, 120, 120, 120, 120, 120, 113, 113, 113, 113, 113, 113, 113, 113, 113, 113, 120, 120, 120, 120, 120, 120, 120, 120, 120, 120, 120, 120, 120, 120, 120, 120, 120, 120, 120, 120, 120, 120, 120, 120, 120, 120, 120, 120, 120, 120, 120, 120, 120, 120, 120, 120, 120, 120, 120, 120, 120, 120, 120, 120, 120, 120, 120, 120, 120, 120, 120, 120, 120, 120, 120, 120, 120, 120, 120, 120, 128, 128, 120, 120, 120, 120, 128, 128, 120, 120, 120, 120, 120, 120, 120, 120, 120, 120, 120, 120, 120, 120, 120, 120, 120, 120, 120, 120, 120, 120, 120, 120, 120, 120, 120, 120, 120, 120, 120, 120, 120, 120, 120, 120, 120, 120, 120, 120, 120, 120, 120, 120, 120, 120, 120, 120, 120, 120, 120, 120, 120, 120, 120, 120, 120, 120, 120, 120, 120, 120, 120, 120, 120, 120, 120, 120, 120, 120, 120, 128, 128, 128, 120, 120, 120, 128, 128, 128, 128, 120, 120, 120, 120, 120, 120, 120, 120, 120, 120, 120, 120, 120, 120, 120, 120, 120, 120, 120, 120, 120, 120, 120, 120, 120, 120, 120, 128, 128, 128, 128, 128, 128, 128, 128, 128, 128, 128, 128, 128, 128, 128, 128, 128, 128, 128, 128, 128, 128, 128, 128, 128, 120, 120, 120, 120, 120, 120, 120, 120, 120, 120, 120, 120, 128, 128, 128, 128, 128, 128, 128, 128, 128, 128, 128, 128, 128, 128, 128, 128, 128, 128, 128, 128, 128, 128, 128, 128, 128, 128, 128, 128, 128, 128, 120, 120, 120, 120, 120, 120, 120, 120, 120, 128, 128, 128, 128, 128, 128, 128, 128, 128, 128, 128, 128, 128, 128, 128, 128, 128, 128, 128, 128, 128, 128, 128, 128, 128, 128, 128, 128, 128, 128, 128, 128, 128, 128, 128, 128, 128, 128, 120, 120, 120, 120, 120, 128, 128, 128, 128, 128, 128, 128, 128, 128, 128, 128, 128, 128, 128, 128, 128, 128, 128, 128, 128, 128, 128, 128, 128, 128, 128, 128, 128, 128, 128, 128, 128, 128, 128, 128, 128, 128, 128, 128, 128, 128, 128, 128, 128, 128, 128, 128, 128, 128, 128, 128, 128, 128, 128, 128, 128, 128, 128, 128, 135, 135, 135, 135, 135, 128, 128, 128, 128, 128, 128, 128, 128, 128, 128, 128, 128, 128, 128, 128, 128, 128, 128, 128, 128, 128, 128, 128, 128, 128, 128, 128, 128, 128, 128, 128, 128, 128, 128, 128, 128, 128, 128, 128, 128, 128, 128, 128, 128, 128, 128, 128, 128, 128, 128, 128, 128, 128, 128, 120, 120, 120, 120, 120, 120, 120, 120, 120, 120, 120, 120, 128, 128, 128, 128, 128, 128, 128, 128, 128, 128, 128, 128, 128, 128, 128, 128, 128, 128, 128, 128, 128, 128, 128, 120, 120, 120, 120, 120, 120, 120, 120, 120, 120, 120, 120, 120, 120, 120, 120, 120, 120, 120, 120, 120, 120, 120, 120, 120, 120, 120, 120, 120, 120, 128, 128, 128, 128, 128, 128, 128, 128, 128, 128, 128, 128, 128, 128, 120, 120, 120, 120, 120, 120, 120, 120, 120, 120, 120, 120, 120, 120, 120, 120, 120, 120, 128, 128, 128, 128, 128, 128, 128, 128, 128, 128, 128, 128, 128, 128, 128, 128, 128, 128, 128, 128, 128, 128, 128, 128, 128, 128, 128, 128, 120, 120, 120, 120, 120, 120, 120, 120, 120, 120, 128, 128, 128, 128, 128, 128, 128, 128, 128, 128, 128, 128, 128, 128, 128, 128, 128, 128, 128, 128, 128, 128, 128, 128, 128, 128, 128, 128, 128, 128, 128, 128, 128, 128, 128, 128, 128, 128, 128, 128, 128, 128, 128, 128, 128, 128, 128, 128, 128, 128, 128, 128, 128, 128, 128, 128, 128, 128, 128, 128, 128, 128, 128, 128, 128, 128, 128, 128, 128, 128, 128, 128, 128, 128, 128, 128, 128, 128, 128, 128, 128, 128, 128, 128, 128, 128, 128, 128, 128, 128, 128, 128, 128, 128, 128, 128, 128, 128, 128, 128, 128, 128, 128, 128, 128, 128, 128, 128, 128, 128, 128, 128, 128, 128, 128, 128, 128, 128, 128, 120, 120, 120, 128, 128, 128, 128, 128, 128, 128, 128, 128, 128, 128, 128, 128, 128, 128, 128, 128, 128, 128, 128, 128, 128, 128, 128, 128, 128, 128, 128, 128, 128, 128, 128, 128, 128, 128, 128, 128, 128, 120, 120, 120, 128, 128, 128, 128, 128, 120, 120, 120, 120, 120, 120, 120, 120, 120, 120, 120, 120, 120, 120, 120, 120, 120, 128, 128, 128, 128, 128, 128, 128, 128, 128, 128, 128, 128, 128, 128, 128, 128, 128, 128, 128, 128, 128, 128, 128, 128, 128, 128, 128, 128, 128, 128, 120, 120, 120, 120, 120, 120, 120, 120, 120, 120, 120, 120, 120, 120, 120, 120, 120, 120, 120, 128, 128, 128, 128, 128, 128, 128, 120, 120, 120, 128, 128, 128, 128, 128, 128, 128, 128, 128, 128, 128, 128, 128, 128, 128, 128, 128, 128, 120, 120, 128, 128, 120, 120, 120, 120, 120, 128, 128, 128, 128, 128, 128, 128, 128, 128, 128, 128, 128, 128, 128, 128, 128, 128, 128, 128, 128, 128, 128, 128, 128, 128, 128, 128, 128, 128, 128, 128, 128, 128, 128, 128, 128, 128, 128, 128, 128, 128, 128, 128, 128, 128, 128, 128, 128, 128, 128, 128, 128, 128, 128, 128, 128, 128, 128, 128, 128, 128, 128, 128, 128, 128, 128, 128, 128, 128, 128, 128, 128, 128, 128, 128, 128, 128, 128, 128, 128, 128, 128, 128, 128, 128, 128, 128, 128, 128, 128, 128, 128, 128, 128, 128, 128, 128, 128, 128, 128, 128, 128, 120, 120, 120, 120, 120, 120, 120, 120, 120, 120, 120, 120, 120, 120, 120, 120, 120, 120, 120, 120, 120, 120, 120, 120, 120, 128, 128, 128, 120, 120, 120, 120, 120, 120, 120, 120, 120, 120, 120, 120, 120, 120, 120, 120, 120, 120, 120, 120, 120, 120, 120, 120, 120, 120, 120, 120, 120, 120, 120, 120, 120, 120, 120, 120, 120, 120, 120, 120, 120, 120, 120, 120, 120, 120, 120, 120, 120, 120, 120, 120, 120, 120, 120, 120, 120, 120, 120, 120, 120, 120, 120, 120, 120, 120, 120, 120, 120, 120, 120, 120, 120, 120, 120, 120, 120, 120, 120, 120, 120, 120, 120, 120, 120, 120, 120, 120, 120, 120, 120, 120, 120, 120, 120, 120, 120, 120, 120, 120, 120, 120, 120, 120, 120, 120, 120, 120, 120, 120, 120, 120, 120, 120, 120, 120, 120, 120, 120, 120, 120, 120, 120, 120, 120, 120, 120, 120, 120, 120, 120, 120, 120, 120, 120, 120, 120, 120, 120, 120, 120, 120, 120, 120, 120, 120, 120, 120, 120, 120, 120, 120, 120, 120, 120, 120, 120, 120, 120, 120, 120, 120, 120, 120, 120, 120, 120, 120, 120, 120, 120, 120, 120, 120, 120, 120, 120, 120, 120, 120, 120, 120, 120, 120, 120, 120, 120, 120, 120, 120, 120, 120, 120, 120, 120, 120, 120, 120, 120, 120, 120, 120, 120, 120, 120, 120, 120, 120, 120, 120, 120, 120, 120, 120, 120, 120, 120, 120, 120, 120, 120, 120, 120, 120, 120, 120, 120, 120, 120, 120, 120, 120, 120, 120, 120, 120, 128, 128, 128, 128, 128, 128, 128, 120, 120, 120, 120, 120, 120, 120, 120, 120, 120, 120, 120, 120, 120, 120, 128, 128, 120, 120, 120, 120, 120, 120, 120, 128, 128, 128, 128, 128, 128, 128, 128, 128, 128, 128, 128, 128, 128, 128, 128, 120, 120, 120, 120, 120, 128, 128, 128, 128, 128, 128, 128, 128, 128, 120, 120, 120, 120, 120, 120, 120, 128, 128, 128, 128, 128, 128, 128, 128, 128, 128, 128, 128, 128, 128, 120, 120, 120, 128, 128, 128, 128, 128, 128, 128, 128, 128, 128, 128, 128, 128, 120, 120, 120, 120, 120, 120, 120, 128, 128, 128, 128, 128, 128, 128, 128, 120, 120, 120, 120, 120, 128, 128, 128, 128, 128, 128, 128, 128, 128, 128, 128, 128, 128, 128, 128, 128, 128, 128, 128, 128, 128, 128, 128, 128, 128, 128, 128, 128, 128, 128, 128, 128, 128, 128, 128, 128, 128, 128, 128, 128, 128, 128, 128, 128, 128, 128, 128, 128, 128, 128, 128, 128, 128, 128, 128, 128, 128, 128, 128, 128, 128, 128, 128, 128, 128, 128, 128, 128, 128, 128, 128, 128, 128, 128, 128, 128, 128, 128, 128, 128, 128, 128, 128, 128, 128, 128, 128, 128, 128, 128, 128, 128, 128, 128, 128, 128, 128, 128, 128, 128, 128, 128, 128, 128, 128, 128, 128, 128, 128, 128, 128, 128, 128, 128, 128, 128, 128, 128, 128, 128, 128, 128, 128, 128, 128, 128, 128, 128, 128, 128, 128, 128, 128, 128, 128, 128, 128, 128, 128, 128, 128, 128, 128, 128, 128, 128, 128, 128, 128, 128, 128, 128, 128, 128, 128, 128, 128, 128, 128, 128, 128, 128, 128, 128, 128, 128, 128, 128, 128, 128, 128, 128, 128, 128, 128, 128, 128, 128, 128, 128, 128, 128, 128, 128, 128, 128, 128, 128, 128, 128, 128, 128, 128, 128, 128, 128, 128, 128, 128, 128, 128, 128, 128, 128, 128, 128, 128, 128, 128, 128, 128, 128, 128, 128, 128, 128, 128, 128, 128, 128, 128, 128, 128, 128, 128, 128, 128, 128, 128, 128, 128, 128, 128, 128, 128, 128, 120, 120, 120, 120, 120, 120, 120, 120, 120, 120, 120, 120, 120, 120, 120, 120, 120, 120, 120, 120, 120, 120, 120, 120, 120, 120, 120, 120, 120, 120, 120, 120, 120, 120, 120, 120, 120, 120, 120, 120, 120, 120, 120, 120, 120, 120, 120, 120, 120, 120, 120, 120, 120, 120, 120, 120, 120, 120, 120, 120, 120, 120, 120, 120, 120, 120, 120, 120, 120, 120, 120, 120, 120, 120, 120, 120, 120, 120, 120, 120, 120, 120, 120, 120, 120, 120, 120, 120, 120, 120, 120, 120, 120, 120, 120, 120, 120, 120, 120, 120, 120, 120, 120, 120, 120, 120, 120, 120, 120, 120, 120, 120, 120, 120, 120, 120, 120, 120, 120, 120, 120, 120, 120, 128, 128, 128, 128, 128, 128, 128, 128, 128, 128, 128, 128, 128, 128, 128, 128, 128, 128, 120, 120, 120, 120, 120, 120, 120, 120, 120, 128, 128, 128, 128, 128, 128, 128, 128, 128, 128, 128, 128, 128, 128, 128, 128, 128, 128, 128, 128, 128, 128, 128, 128, 128, 128, 128, 128, 128, 128, 128, 128, 128, 128, 128, 128, 128, 128, 128, 120, 120, 120, 120, 120, 120, 120, 120, 120, 120, 120, 120, 120, 120, 120, 120, 120, 120, 128, 128, 128, 128, 128, 128, 128, 128, 128, 128, 120, 120, 120, 120, 120, 120, 120, 120, 120, 120, 120, 120, 120, 120, 120, 120, 120, 120, 120, 120, 120, 120, 120, 120, 120, 120, 120, 120, 120, 120, 120, 120, 120, 120, 120, 120, 120, 120, 120, 120, 120, 120, 120, 120, 120, 120, 120, 120, 120, 120, 120, 120, 120, 128, 120, 120, 120, 120, 120, 120, 120, 120, 120, 120, 120, 120, 120, 120, 120, 120, 120, 120, 120, 120, 120, 120, 120, 120, 120, 120, 120, 120, 120, 120, 120, 120, 128, 128, 128, 128, 120, 120, 120, 120, 128, 128, 128, 128, 128, 128, 120, 120, 120, 120, 120, 120, 120, 120, 120, 120, 120, 120, 120, 120, 120, 120, 120, 120, 120, 120, 120, 120, 120, 120, 120, 120, 120, 120, 120, 120, 120, 120, 120, 120, 120, 120, 120, 120, 120, 120, 120, 120, 120, 120, 120, 120, 120, 120, 120, 120, 120, 120, 120, 120, 120, 120, 120, 120, 120, 120, 120, 120, 120, 120, 120, 120, 120, 120, 120, 120, 120, 120, 120, 120, 120, 120, 120, 120, 120, 120, 120, 120, 120, 120, 120, 120, 120, 120, 120, 120, 128, 128, 120, 120, 120, 120, 120, 120, 120, 120, 120, 120, 120, 120, 120, 120, 120, 120, 120, 120, 120, 120, 120, 120, 120, 120, 120, 120, 120, 120, 120, 120, 120, 120, 120, 120, 120, 120, 120, 120, 120, 120, 120, 120, 120, 120, 120, 120, 120, 120, 120, 120, 120, 120, 120, 120, 128, 128, 128, 128, 128, 128, 128, 128, 128, 128, 128, 128, 128, 128, 128, 128, 128, 128, 128, 128, 128, 128, 128, 128, 128, 128, 128, 128, 128, 128, 128, 128, 128, 128, 128, 128, 128, 128, 128, 128, 128, 120, 120, 120, 120, 120, 120, 120, 120, 120, 128, 120, 120, 120, 120, 120, 120, 120, 120, 120, 120, 120, 120, 120, 120, 120, 120, 120, 120, 120, 120, 120, 120, 120, 120, 120, 120, 120, 120, 120, 120, 120, 120, 120, 120, 120, 120, 120, 120, 120, 120, 120, 120, 120, 120, 120, 120, 120, 120, 120, 120, 120, 120, 120, 120, 120, 120, 120, 120, 120, 120, 120, 120, 120, 120, 120, 120, 120, 120, 120, 120, 120, 120, 120, 120, 120, 120, 120, 120, 120, 120, 120, 120, 120, 120, 120, 120, 120, 120, 120, 120, 120, 120, 120, 120, 120, 120, 120, 120, 120, 120, 120, 120, 120, 120, 120, 120, 120, 120, 120, 120, 120, 120, 120, 120, 120, 120, 120, 120, 120, 120, 120, 120, 120, 120, 120, 120, 120, 120, 120, 120, 120, 120, 120, 120, 120, 120, 120, 120, 120, 120, 120, 120, 128, 128, 128, 128, 120, 120, 120, 120, 120, 120, 120, 120, 128, 128, 128, 128, 128, 128, 128, 128, 128, 128, 128, 128, 128, 120, 120, 120, 120, 120, 128, 128, 128, 128, 128, 128, 128, 128, 128, 128, 128, 128, 128, 128, 128, 128, 128, 128, 128, 128, 128, 128, 128, 128, 128, 128, 128, 128, 128, 128, 128, 128, 128, 128, 128, 128, 128, 128, 128, 128, 128, 128, 128, 128, 128, 128, 128, 120, 120, 120, 120, 120, 120, 120, 120, 120, 120, 120, 120, 120, 120, 120, 128, 128, 128, 128, 128, 128, 128, 128, 128, 128, 128, 128, 128, 128, 128, 128, 128, 128, 128, 128, 128, 128, 128, 128, 128, 128, 128, 128, 128, 128, 128, 128, 128, 128, 128, 128, 128, 128, 128, 128, 128, 128, 128, 128, 128, 128, 128, 128, 128, 128, 128, 128, 128, 128, 128, 128, 128, 128, 128, 128, 128, 128, 128, 128, 128, 128, 128, 128, 128, 128, 128, 128, 128, 128, 128, 128, 128, 128, 128, 128, 128, 128, 128, 128, 128, 128, 128, 128, 128, 128, 128, 128, 128, 128, 128, 128, 128, 128, 128, 128, 128, 128, 128, 128, 128, 128, 128, 128, 128, 128, 128, 128, 128, 128, 128, 128, 128, 128, 128, 128, 128, 128, 128, 128, 128, 128, 128, 128, 128, 128, 128, 128, 128, 128, 128, 128, 128, 128, 128, 128, 128, 128, 128, 128, 128, 128, 128, 128, 128, 128, 128, 128, 128, 128, 128, 128, 128, 128, 128, 128, 128, 128, 128, 128, 128, 128, 128, 128, 128, 128, 128, 128, 128, 128, 128, 128, 128, 128, 128, 128, 128, 128, 128, 128, 128, 128, 128, 128, 128, 128, 128, 128, 128, 128, 128, 128, 128, 128, 128, 128, 128, 128, 128, 128, 128, 128, 128, 128, 128, 128, 128, 128, 128, 128, 128, 128, 128, 128, 128, 128, 128, 128, 128, 128, 128, 128, 128, 128, 128, 128, 128, 128, 128, 128, 128, 128, 128, 128, 128, 128, 128, 128, 128, 128, 128, 128, 128, 128, 128, 128, 128, 128, 128, 128, 128, 128, 128, 128, 128, 128, 128, 128, 128, 128, 128, 128, 128, 128, 128, 128, 128, 128, 128, 128, 128, 128, 128, 128, 128, 128, 128, 128, 128, 128, 128, 128, 128, 128, 128, 128, 128, 128, 128, 128, 128, 128, 128, 128, 128, 128, 128, 128, 128, 128, 128, 128, 128, 128, 128, 128, 128, 120, 120, 120, 120, 120, 120, 120, 120, 120, 120, 120, 120, 120, 120, 120, 120, 120, 120, 120, 120, 120, 120, 120, 120, 120, 120, 120, 120, 120, 120, 120, 120, 120, 120, 120, 120, 120, 120, 120, 120, 120, 120, 120, 120, 120, 120, 120, 120, 120, 120, 120, 120, 120, 120, 120, 120, 120, 120, 120, 120, 120, 120, 120, 120, 120, 120, 120, 120, 120, 120, 120, 120, 120, 120, 120, 120, 120, 120, 120, 120, 120, 120, 120, 120, 120, 120, 120, 120, 120, 120, 120, 120, 120, 120, 120, 120, 120, 120, 120, 120, 120, 120, 120, 120, 120, 120, 120, 120, 120, 120, 120, 120, 120, 120, 120, 120, 120, 120, 120, 120, 120, 120, 120, 120, 120, 120, 120, 120, 120, 120, 120, 120, 120, 120, 120, 120, 120, 120, 120, 120, 120, 120, 120, 120, 120, 120, 120, 120, 120, 120, 120, 120, 120, 120, 120, 120, 120, 120, 120, 120, 120, 120, 120, 120, 120, 120, 120, 120, 120, 120, 120, 120, 120, 120, 120, 120, 120, 120, 120, 120, 120, 120, 120, 120, 120, 120, 120, 120, 120, 120, 120, 120, 120, 120, 120, 120, 120, 120, 120, 120, 120, 120, 120, 120, 120, 120, 120, 120, 120, 120, 120, 120, 120, 120, 120, 120, 120, 120, 120, 120, 120, 120, 120, 120, 120, 120, 120, 120, 120, 120, 120, 120, 120, 120, 120, 120, 120, 120, 120, 120, 120, 120, 120, 120, 120, 120, 120, 120, 120, 120, 120, 120, 120, 120, 120, 120, 120, 120, 120, 120, 120, 120, 120, 120, 120, 120, 120, 120, 120, 120, 120, 120, 120, 120, 120, 120, 120, 120, 120, 120, 120, 120, 120, 120, 120, 120, 120, 120, 120, 120, 120, 120, 120, 120, 120, 120, 120, 120, 120, 120, 120, 120, 120, 120, 120, 120, 120, 120, 120, 120, 120, 120, 120, 120, 120, 120, 120, 120, 120, 120, 120, 120, 120, 120, 120, 120, 120, 120, 120, 120, 120, 120, 120, 120, 120, 120, 120, 120, 120, 120, 120, 120, 120, 120, 120, 120, 120, 120, 120, 120, 120, 120, 120, 120, 120, 120, 120, 120, 120, 120, 120, 120, 120, 120, 120, 120, 120, 120, 120, 120, 120, 120, 120, 120, 120, 120, 120, 120, 120, 120, 120, 120, 120, 120, 128, 128, 128, 128, 128, 128, 128, 128, 128, 128, 128, 128, 128, 128, 128, 128, 128, 128, 128, 128, 128, 128, 128, 128, 128, 128, 128, 128, 128, 128, 128, 128, 128, 128, 128, 128, 128, 128, 128, 128, 128, 128, 128, 128, 128, 128, 128, 128, 128, 128, 128, 128, 128, 128, 128, 128, 128, 128, 128, 128, 128, 128, 128, 128, 128, 128, 128, 128, 128, 128, 128, 128, 128, 128, 128, 128, 128, 128, 128, 128, 128, 128, 128, 128, 128, 128, 128, 128, 128, 128, 128, 128, 128, 128, 128, 128, 128, 128, 128, 128, 128, 128, 128, 128, 128, 128, 128, 128, 128, 128, 128, 128, 128, 128, 128, 128, 128, 128, 128, 128, 128, 128, 128, 128, 128, 128, 128, 128, 128, 128, 128, 128, 128, 128, 128, 128, 128, 128, 128, 128, 128, 128, 128, 128, 128, 128, 128, 128, 128, 128, 128, 128, 128, 128, 128, 128, 128, 128, 128, 120, 120, 120, 120, 120, 120, 120, 128, 120, 120, 120, 120, 120, 120, 128, 128, 128, 128, 128, 128, 128, 128, 128, 128, 128, 128, 128, 128, 128, 128, 128, 128, 128, 128, 120, 120, 120, 120, 120, 120, 128, 128, 128, 128, 128, 128, 128, 128, 128, 128, 128, 128, 128, 128, 128, 128, 128, 128, 128, 128, 128, 128, 128, 128, 128, 128, 128, 128, 128, 128, 128, 128, 128, 128, 128, 128, 128, 128, 128, 128, 128, 128, 128, 128, 128, 128, 128, 128, 128, 128, 128, 128, 128, 120, 128, 128, 128, 128, 128, 128, 128, 128, 128, 128, 128, 128, 128, 128, 128, 128, 128, 128, 128, 128, 128, 128, 128, 128, 120, 120, 120, 120, 120, 120, 120, 120, 128, 128, 128, 128, 128, 128, 128, 128, 128, 128, 128, 128, 128, 128, 128, 128, 128, 128, 128, 128, 128, 128, 128, 128, 128, 128, 128, 128, 128, 128, 128, 128, 128, 128, 128, 128, 128, 128, 128, 128, 128, 128, 128, 128, 128, 128, 128, 128, 128, 128, 128, 128, 128, 128, 128, 128, 128, 128, 128, 128, 128, 128, 128, 128, 128, 128, 128, 128, 128, 128, 128, 128, 128, 128, 128, 128, 128, 128, 128, 128, 128, 128, 128, 128, 128, 128, 128, 128, 128, 128, 128, 128, 128, 128, 128, 128, 128, 128, 128, 128, 128, 128, 128, 128, 128, 128, 128, 128, 128, 128, 128, 128, 128, 128, 128, 128, 128, 128, 128, 120, 120, 120, 120, 120, 120, 120, 120, 120, 128, 128, 128, 128, 120, 128, 120, 120, 120, 120, 120, 120, 120, 120, 120, 120, 120, 120, 120, 120, 120, 120, 120, 120, 120, 120, 120, 120, 120, 120, 120, 120, 120, 120, 120, 120, 120, 120, 120, 120, 120, 120, 120, 120, 120, 120, 120, 120, 120, 120, 120, 120, 120, 120, 120, 120, 120, 120, 120, 120, 120, 120, 120, 120, 120, 120, 120, 120, 120, 120, 120, 120, 120, 120, 120, 120, 120, 120, 120, 120, 120, 120, 120, 120, 120, 120, 120, 120, 120, 120, 120, 120, 120, 120, 120, 128, 128, 128, 128, 128, 128, 128, 128, 128, 128, 128, 128, 128, 128, 128, 128, 128, 120, 120, 120, 120, 120, 120, 120, 120, 120, 128, 128, 128, 128, 128, 128, 128, 128, 128, 128, 128, 128, 128, 128, 128, 128, 128, 128, 128, 128, 128, 128, 128, 128, 128, 128, 128, 128, 128, 128, 128, 128, 128, 128, 128, 128, 128, 128, 128, 128, 128, 128, 128, 128, 128, 128, 128, 128, 128, 128, 128, 128, 128, 128, 128, 128, 128, 128, 128, 128, 128, 128, 128, 128, 128, 128, 128, 128, 128, 128, 128, 128, 128, 128, 128, 128, 128, 128, 128, 128, 128, 128, 128, 128, 128, 128, 128, 128, 128, 128, 128, 128, 128, 128, 128, 128, 128, 128, 128, 128, 128, 128, 128, 128, 128, 128, 128, 128, 128, 128, 128, 128, 128, 128, 128, 128, 128, 128, 128, 128, 128, 128, 128, 128, 128, 128, 128, 128, 128, 128, 128, 128, 128, 128, 128, 128, 128, 128, 128, 128, 128, 128, 128, 128, 128, 128, 128, 128, 128, 128, 128, 128, 128, 128, 128, 128, 128, 128, 128, 128, 128, 128, 128, 128, 128, 128, 128, 128, 128, 128, 128, 128, 128, 128, 128, 128, 128, 128, 128, 128, 128, 128, 128, 128, 128, 128, 128, 128, 128, 128, 128, 128, 128, 128, 128, 128, 128, 128, 128, 128, 128, 128, 128, 120, 120, 120, 120, 120, 120, 120, 120, 120, 120, 120, 120, 120, 120, 120, 120, 120, 120, 120, 120, 120, 120, 120, 120, 120, 128, 120, 120, 120, 120, 120, 120, 120, 120, 120, 128, 128, 128, 128, 128, 128, 128, 120, 120, 120, 120, 120, 120, 120, 120, 120, 120, 120, 120, 120, 120, 120, 120, 120, 120, 120, 120, 120, 120, 120, 120, 120, 120, 120, 120, 120, 120, 120, 120, 120, 120, 120, 120, 120, 120, 120, 120, 120, 120, 120, 120, 120, 120, 120, 120, 120, 120, 120, 120, 120, 120, 120, 120, 120, 120, 120, 120, 120, 120, 120, 120, 120, 120, 120, 120, 120, 120, 120, 120, 120, 120, 120, 120, 120, 120, 120, 120, 120, 120, 120, 120, 120, 120, 120, 120, 120, 120, 120, 120, 120, 120, 120, 120, 120, 120, 120, 120, 120, 120, 120, 120, 120, 120, 120, 120, 120, 120, 120, 120, 120, 120, 120, 120, 120, 120, 120, 120, 120, 120, 120, 120, 120, 120, 120, 120, 120, 120, 120, 120, 120, 120, 120, 120, 120, 120, 120, 120, 120, 120, 120, 120, 120, 120, 120, 120, 120, 120, 120, 120, 120, 120, 120, 120, 120, 120, 120, 120, 120, 120, 120, 120, 120, 120, 120, 120, 120, 120, 120, 120, 120, 120, 120, 120, 120, 120, 120, 120, 120, 120, 120, 120, 120, 120, 120, 120, 120, 120, 120, 120, 120, 120, 120, 120, 120, 120, 120, 120, 120, 120, 120, 120, 120, 120, 120, 120, 120, 120, 120, 120, 120, 120, 120, 120, 120, 120, 120, 120, 120, 120, 120, 120, 120, 120, 120, 120, 120, 120, 120, 120, 120, 120, 120, 120, 120, 120, 120, 120, 120, 120, 120, 120, 120, 120, 120, 120, 120, 120, 120, 120, 120, 120, 120, 120, 120, 120, 128, 120, 128, 128, 128, 128, 128, 128, 128, 128, 128, 120, 120, 120, 120, 120, 120, 120, 120, 120, 120, 120, 120, 120, 120, 120, 120, 120, 120, 120, 120, 120, 120, 120, 128, 128, 128, 128, 128, 128, 128, 128, 128, 128, 128, 128, 128, 128, 128, 128, 128, 128, 128, 128, 128, 128, 128, 128, 128, 128, 128, 128, 128, 128, 128, 128, 128, 128, 128, 128, 128, 128, 128, 128, 128, 128, 128, 128, 128, 128, 128, 128, 128, 128, 128, 128, 128, 128, 128, 128, 128, 128, 128, 128, 128, 128, 128, 128, 128, 128, 128, 128, 128, 128, 128, 128, 128, 128, 128, 128, 128, 128, 128, 128, 128, 128, 128, 128, 128, 128, 128, 128, 128, 128, 128, 128, 128, 128, 128, 128, 128, 128, 128, 128, 128, 128, 128, 128, 128, 128, 128, 128, 128, 128, 128, 128, 128, 128, 128, 128, 128, 128, 128, 128, 128, 128, 128, 128, 128, 128, 128, 128, 128, 128, 128, 128, 128, 128, 128, 128, 128, 128, 128, 128, 128, 128, 128, 128, 128, 128, 128, 128, 128, 128, 128, 128, 128, 128, 128, 128, 128, 128, 128, 128, 128, 128, 128, 128, 128, 128, 128, 128, 128, 128, 128, 128, 128, 128, 128, 128, 128, 128, 128, 128, 128, 128, 128, 128, 128, 128, 128, 128, 128, 128, 128, 128, 128, 128, 128, 128, 128, 128, 128, 128, 128, 128, 128, 128, 128, 128, 128, 128, 128, 128, 128, 128, 128, 128, 128, 128, 128, 128, 128, 128, 128, 128, 128, 128, 128, 128, 128, 128, 128, 128, 128, 128, 128, 128, 128, 128, 128, 128, 128, 128, 128, 120, 120, 120, 120, 128, 128, 128, 128, 128, 128, 128, 128, 128, 128, 128, 128, 128, 128, 128, 128, 128, 128, 128, 128, 128, 128, 128, 120, 120, 120, 120, 120, 120, 120, 120, 120, 120, 120, 120, 120, 120, 120, 120, 120, 120, 120, 120, 120, 120, 120, 128, 128, 128, 128, 128, 128, 128, 128, 128, 128, 128, 128, 128, 128, 128, 120, 120, 120, 120, 120, 120, 120, 120, 120, 120, 128, 128, 128, 128, 128, 128, 120, 120, 128, 128, 128, 128, 128, 128, 128, 128, 128, 128, 128, 128, 128, 128, 128, 128, 120, 120, 120, 120, 120, 120, 120, 120, 120, 120, 120, 120, 120, 120, 120, 120, 120, 120, 120, 120, 120, 120, 120, 120, 120, 120, 120, 128, 128, 128, 128, 128, 128, 128, 128, 128, 128, 128, 128, 128, 120, 120, 128, 128, 128, 128, 128, 128, 128, 120, 120, 120, 120, 120, 120, 120, 120, 120, 120, 120, 120, 120, 120, 120, 120, 120, 120, 120, 120, 120, 120, 120, 120, 120, 120, 120, 120, 120, 120, 120, 120, 120, 120, 120, 120, 120, 120, 120, 120, 120, 120, 120, 120, 120, 120, 120, 120, 120, 120, 120, 120, 120, 120, 120, 120, 120, 120, 120, 120, 120, 120, 120, 120, 120, 120, 120, 120, 120, 120, 120, 120, 120, 120, 120, 120, 120, 120, 120, 120, 120, 120, 120, 120, 120, 120, 120, 120, 120, 120, 120, 120, 120, 120, 120, 120, 120, 120, 120, 120, 120, 120, 120, 120, 120, 120, 120, 120, 120, 120, 120, 120, 120, 120, 120, 120, 120, 120, 120, 120, 120, 120, 120, 120, 120, 120, 120, 120, 120, 120, 120, 120, 120, 120, 120, 120, 120, 120, 128, 128, 128, 128, 128, 128, 128, 128, 128, 128, 128, 128, 128, 128, 128, 128, 128, 128, 128, 128, 128, 128, 128, 128, 128, 128, 128, 120, 120, 120, 120, 120, 120, 128, 120, 128, 128, 128, 128, 128, 128, 120, 120, 120, 120, 128, 128, 120, 128, 128, 128, 128, 128, 128, 128, 128, 128, 128, 128, 128, 128, 120, 120, 128, 120, 120, 120, 128, 128, 128, 128, 128, 128, 128, 128, 128, 128, 128, 128, 128, 128, 128, 128, 128, 128, 128, 128, 128, 128, 128, 128, 128, 128, 128, 128, 128, 128, 128, 128, 128, 128, 128, 128, 128, 128, 128, 128, 128, 128, 128, 128, 128, 128, 128, 128, 128, 128, 128, 128, 128, 128, 128, 128, 128, 128, 128, 128, 128, 128, 128, 128, 128, 128, 128, 128, 128, 128, 128, 128, 128, 128, 128, 128, 128, 128, 128, 128, 128, 128, 128, 128, 128, 128, 128, 128, 128, 128, 128, 128, 128, 128, 128, 128, 128, 128, 128, 128, 128, 128, 128, 128, 128, 128, 128, 128, 128, 128, 128, 128, 128, 128, 128, 128, 128, 128, 128, 128, 128, 128, 128, 128, 128, 128, 128, 128, 128, 128, 128, 128, 128, 128, 128, 128, 128, 128, 128, 128, 128, 128, 128, 128, 128, 128, 128, 128, 128, 128, 128, 128, 128, 128, 128, 128, 128, 128, 128, 128, 128, 128, 128, 128, 128, 128, 128, 128, 128, 128, 128, 128, 128, 128, 128, 128, 128, 128, 128, 128, 128, 128, 128, 128, 128, 128, 128, 128, 128, 128, 128, 128, 128, 128, 128, 128, 128, 128, 128, 128, 128, 128, 128, 128, 128, 128, 128, 128, 128, 128, 128, 128, 120, 120, 120, 120, 120, 120, 120, 120, 120, 120, 120, 120, 120, 120, 120, 120, 120, 120, 120, 120, 120, 120, 120, 120, 120, 120, 120, 120, 120, 120, 120, 120, 120, 120, 120, 120, 120, 120, 120, 120, 120, 120, 120, 120, 120, 120, 120, 120, 120, 120, 120, 120, 120, 120, 120, 120, 120, 120, 120, 120, 120, 120, 120, 120, 120, 120, 120, 120, 120, 120, 120, 120, 120, 120, 120, 120, 120, 120, 120, 120, 120, 120, 120, 120, 120, 120, 120, 120, 120, 120, 120, 120, 120, 120, 120, 120, 120, 120, 120, 120, 120, 120, 120, 120, 120, 120, 120, 120, 120, 120, 120, 120, 120, 120, 120, 120, 120, 120, 120, 120, 120, 120, 120, 120, 120, 120, 120, 120, 120, 120, 120, 120, 120, 120, 120, 120, 120, 120, 120, 120, 120, 120, 120, 120, 120, 120, 120, 120, 120, 120, 120, 120, 120, 120, 120, 120, 120, 120, 120, 120, 120, 120, 120, 120, 120, 120, 120, 120, 120, 120, 120, 120, 120, 120, 120, 120, 120, 120, 120, 120, 120, 120, 120, 120, 120, 120, 120, 120, 120, 120, 120, 120, 120, 120, 120, 120, 120, 120, 120, 120, 120, 120, 120, 120, 120, 120, 120, 120, 120, 120, 120, 120, 120, 120, 120, 128, 120, 120, 120, 120, 120, 120, 120, 120, 120, 120, 120, 120, 120, 120, 128, 128, 128, 120, 120, 120, 128, 120, 120, 128, 128, 128, 128, 128, 128, 128, 128, 128, 128, 128, 128, 128, 128, 128, 128, 128, 128, 128, 128, 128, 128, 128, 120, 128, 120, 120, 128, 128, 120, 120, 120, 128, 128, 120, 128, 128, 128, 128, 128, 128, 128, 128, 120, 128, 128, 128, 128, 128, 128, 128, 128, 128, 128, 128, 128, 128, 128, 128, 128, 128, 128, 128, 128, 128, 128, 128, 128, 128, 128, 128, 128, 128, 128, 128, 128, 128, 128, 128, 128, 128, 128, 128, 128, 128, 128, 128, 128, 128, 128, 128, 128, 128, 128, 128, 128, 128, 128, 128, 128, 128, 128, 128, 128, 128, 128, 128, 128, 128, 128, 128, 128, 128, 128, 128, 128, 128, 128, 128, 128, 128, 128, 128, 128, 128, 128, 128, 128, 128, 128, 128, 128, 128, 128, 128, 128, 128, 128, 128, 128, 128, 128, 128, 128, 128, 128, 128, 128, 128, 128, 128, 128, 128, 128, 128, 128, 128, 128, 128, 128, 128, 128, 128, 128, 128, 128, 128, 128, 128, 128, 128, 128, 128, 128, 128, 128, 128, 128, 128, 128, 128, 128, 128, 128, 128, 128, 128, 128, 128, 128, 128, 128, 128, 128, 128, 128, 128, 128, 128, 128, 128, 128, 128, 128, 128, 128, 128, 128, 128, 128, 128, 128, 128, 128, 128, 128, 128, 128, 128, 128, 128, 128, 128, 128, 128, 128, 128, 128, 128, 128, 128, 128, 128, 128, 128, 128, 128, 128, 128, 128, 128, 128, 128, 128, 128, 128, 128, 128, 128, 128, 128, 128, 128, 128, 128, 128, 128, 128, 128, 128, 128, 128, 128, 128, 128, 128, 128, 128, 128, 128, 128, 128, 128, 128, 128, 128, 128, 128, 128, 128, 128, 128, 128, 128, 128, 128, 128, 128, 128, 128, 128, 128, 128, 128, 128, 128, 128, 128, 128, 128, 128, 128, 128, 128, 128, 128, 128, 128, 128, 128, 128, 128, 128, 128, 128, 128, 128, 128, 128, 128, 128, 128, 128, 128, 128, 128, 128, 128, 128, 128, 128, 128, 128, 128, 128, 128, 128, 128, 128, 128, 128, 128, 128, 128, 128, 128, 128, 128, 128, 128, 128, 128, 128, 128, 128, 128, 128, 128, 128, 128, 128, 128, 128, 128, 128, 128, 128, 128, 128, 128, 128, 128, 128, 128, 128, 128, 128, 128, 128, 128, 128, 128, 128, 128, 128, 128, 128, 128, 128, 128, 128, 120, 120, 128, 120, 120, 120, 120, 120, 120, 120, 120, 120, 120, 120, 120, 120, 120, 120, 120, 120, 120, 120, 120, 120, 120, 120, 120, 120, 120, 128, 120, 120, 128, 120, 120, 128, 120, 120, 120, 120, 120, 120, 120, 120, 120, 120, 120, 120, 128, 120, 120, 120, 120, 120, 120, 120, 120, 120, 120, 120, 120, 120, 120, 120, 120, 120, 120, 120, 120, 120, 120, 120, 120, 120, 120, 120, 128, 128, 120, 128, 128, 128, 128, 128, 128, 128, 128, 128, 128, 128, 128, 128, 128, 128, 128, 128, 128, 128, 128, 128, 128, 128, 128, 128, 128, 128, 128, 128, 128, 128, 128, 128, 128, 128, 128, 128, 128, 128, 128, 128, 128, 128, 128, 128, 128, 128, 128, 128, 128, 128, 128, 128, 128, 128, 128, 128, 128, 128, 128, 128, 128, 128, 128, 128, 128, 128, 128, 128, 128, 128, 128, 128, 128, 128, 128, 128, 128, 128, 128, 128, 128, 128, 128, 128, 128, 128, 128, 128, 128, 128, 128, 128, 128, 128, 128, 128, 128, 128, 128, 128, 128, 128, 128, 128, 128, 128, 128, 128, 128, 128, 128, 128, 128, 128, 128, 128, 128, 128, 128, 128, 128, 128, 128, 128, 128, 128, 128, 128, 128, 128, 128, 128, 128, 128, 128, 128, 128, 128, 128, 128, 128, 128, 128, 128, 128, 128, 128, 128, 128, 128, 128, 128, 128, 128, 128, 128, 128, 128, 128, 128, 128, 128, 128, 128, 128, 128, 128, 128, 128, 128, 128, 128, 128, 128, 128, 128, 128, 128, 128, 128, 128, 128, 128, 128, 128, 128, 128, 128, 128, 128, 128, 128, 128, 128, 128, 128, 128, 128, 128, 128, 128, 128, 128, 128, 128, 128, 128, 128, 128, 128, 128, 128, 128, 128, 128, 128, 128, 128, 128, 128, 128, 128, 128, 128, 128, 128, 128, 128, 128, 128, 128, 128, 128, 128, 128, 128, 128, 128, 128, 128, 128, 128, 128, 128, 128, 128, 128, 128, 128, 128, 128, 128, 128, 128, 128, 128, 128, 128, 128, 128, 128, 128, 128, 128, 128, 128, 128, 128, 128, 128, 128, 128, 128, 128, 128, 128, 128, 128, 128, 128, 128, 128, 128, 128, 128, 128, 128, 128, 128, 128, 128, 128, 128, 128, 128, 128, 128, 128, 128, 128, 128, 128, 128, 128, 128, 128, 128, 128, 128, 128, 128, 128, 128, 128, 128, 128, 128, 128, 128, 128, 128, 128, 128, 128, 128, 128, 128, 128, 128, 128, 128, 128, 128, 128, 128, 128, 128, 128, 128, 128, 128, 128, 128, 128, 128, 128, 128, 128, 128, 128, 128, 128, 128, 128, 128, 128, 128, 128, 128, 128, 128, 128, 128, 128, 128, 128, 128, 128, 128, 128, 128, 128, 128, 128, 128, 128, 128, 128, 128, 128, 128, 128, 128, 128, 128, 128, 128, 128, 128, 128, 128, 128, 128, 128, 128, 128, 128, 128, 128, 128, 128, 128, 128, 128, 128, 128, 128, 128, 128, 128, 128, 128, 128, 128, 128, 128, 128, 128, 128, 128, 128, 128, 128, 128, 128, 128, 128, 128, 128, 128, 128, 128, 128, 128, 128, 128, 128, 128, 128, 128, 128, 128, 128, 128, 128, 128, 128, 128, 128, 128, 128, 128, 128, 128, 128, 128, 128, 128, 128, 128, 128, 128, 128, 128, 128, 128, 128, 128, 128, 128, 128, 128, 128, 128, 128, 128, 128, 128, 128, 128, 128, 128, 128, 128, 128, 128, 128, 128, 128, 128, 128, 128, 128, 128, 128, 128, 128, 128, 128, 128, 128, 128, 128, 128, 128, 128, 128, 128, 128, 128, 128, 128, 128, 128, 128, 128, 128, 128, 128, 128, 128, 128, 128, 128, 128, 128, 128, 128, 128, 128, 128, 128, 128, 128, 128, 128, 128, 128, 128, 128, 128, 128, 128, 128, 128, 128, 128, 128, 128, 128, 128, 128, 128, 128, 128, 128, 128, 128, 128, 128, 128, 128, 128, 128, 128, 128, 128, 128, 128, 128, 128, 128, 128, 128, 128, 128, 128, 128, 128, 128, 128, 128, 128, 128, 128, 128, 128, 128, 128, 128, 128, 128, 128, 128, 128, 128, 128, 128, 128, 128, 128, 128, 128, 128, 128, 128, 128, 128, 128, 128, 128, 128, 128, 128, 128, 128, 128, 128, 128, 128, 128, 128, 128, 128, 128, 128, 128, 128, 128, 128, 128, 128, 128, 128, 128, 128, 128, 128, 128, 128, 128, 128, 128, 128, 128, 128, 128, 128, 128, 128, 128, 128, 128, 128, 128, 128, 128, 128, 128, 128, 128, 128, 128, 128, 128, 128, 128, 128, 128, 128, 128, 128, 128, 128, 128, 128, 128, 128, 128, 128, 128, 128, 128, 128, 128, 128, 128, 128, 128, 128, 128, 128, 128, 128, 128, 128, 128, 128, 128, 128, 128, 128, 128, 128, 128, 128, 128, 128, 128, 128, 128, 128, 128, 128, 128, 128, 128, 128, 128, 128, 128, 128, 128, 128, 128, 128, 128, 128, 128, 128, 128, 128, 128, 128, 128, 128, 128, 128, 128, 128, 128, 128, 128, 128, 128, 128, 128, 128, 128, 128, 128, 128, 128, 128, 128, 128, 128, 128, 128, 128, 128, 128, 128, 128, 128, 128, 128, 128, 128, 128, 128, 128, 128, 128, 128, 128, 128, 128, 128, 128, 128, 128, 128, 128, 128, 128, 128, 128, 128, 128, 128, 128, 128, 128, 128, 128, 128, 128, 128, 128, 128, 128, 128, 128, 128, 128, 128, 128, 128, 128, 128, 128, 128, 128, 128, 128, 128, 128, 128, 128, 128, 128, 128, 128, 128, 128, 128, 128, 128, 128, 128, 128, 128, 128, 128, 128, 128, 128, 128, 128, 128, 128, 128, 128, 128, 128, 128, 128, 128, 128, 128, 128, 128, 128, 128, 128, 128, 128, 128, 128, 128, 128, 128, 128, 128, 128, 128, 128, 128, 128, 128, 128, 128, 128, 128, 128, 128, 128, 128, 128, 128, 128, 128, 128, 128, 128, 128, 128, 128, 128, 128, 128, 128, 128, 128, 128, 128, 128, 128, 128, 128, 128, 128, 128, 128, 128, 128, 128, 128, 128, 128, 128, 128, 128, 128, 128, 128, 128, 128, 128, 128, 128, 128, 128, 128, 128, 128, 128, 128, 128, 128, 128, 128, 128, 128, 128, 128, 128, 128, 128, 128, 128, 128, 128, 128, 128, 128, 128, 128, 128, 128, 128, 128, 128, 128, 128, 128, 128, 128, 128, 128, 128, 128, 128, 128, 128, 128, 128, 128, 128, 128, 128, 128, 128, 128, 128, 128, 128, 128, 128, 128, 128, 128, 128, 128, 128, 128, 128, 128, 128, 128, 128, 128, 128, 128, 128, 128, 128, 128, 128, 128, 128, 128, 128, 128, 128, 128, 128, 128, 128, 128, 128, 128, 128, 128, 128, 128, 128, 128, 128, 128, 128, 128, 128, 128, 128, 128, 128, 128, 128, 128, 128, 128, 128, 128, 128, 128, 128, 128, 128, 128, 128, 128, 128, 128, 128, 128, 128, 128, 128, 128, 128, 128, 128, 128, 128, 128, 128, 128, 128, 128, 128, 128, 128, 128, 128, 128, 128, 128, 128, 128, 128, 128, 128, 128, 128, 128, 128, 128, 128, 128, 128, 128, 128, 128, 128, 128, 128, 128, 128, 128, 128, 128, 128, 128, 128, 128, 128, 128, 128, 128, 128, 128, 128, 128, 128, 128, 128, 128, 128, 128, 128, 128, 128, 128, 128, 128, 128, 128, 128, 128, 128, 128, 128, 128, 128, 128, 128, 128, 128, 128, 128, 128, 128, 128, 128, 128, 128, 128, 128, 128, 128, 128, 128, 128, 128, 128, 128, 128, 128, 128, 128, 128, 128, 128, 128, 128, 128, 128, 128, 128, 128, 128, 128, 128, 128, 128, 128, 128, 128, 128, 128, 128, 128, 128, 128, 128, 128, 128, 128, 128, 128, 128, 128, 128, 128, 128, 128, 128, 128, 128, 128, 128, 128, 128, 128, 128, 128, 128, 128, 128, 128, 128, 128, 128, 128, 128, 128, 128, 128, 128, 128, 128, 128, 128, 128, 128, 128, 128, 128, 128, 128, 128, 128, 128, 128, 128, 128, 128, 128, 128, 128, 128, 128, 128, 128, 128, 128, 128, 128};

void spi_init()
{
  DDRB |= _BV(PB2) | _BV(PB3) | _BV(PB5); // Ustaw pin CS, MOSI, SCK na output
    39d4:	84 b1       	in	r24, 0x04	; 4
    39d6:	8c 62       	ori	r24, 0x2C	; 44
    39d8:	84 b9       	out	0x04, r24	; 4
  PORTB |= _BV(PB2); // CS pocztkowo wysokie
    39da:	2a 9a       	sbi	0x05, 2	; 5

  SPCR |= _BV(SPR0); // 1MHz
    39dc:	8c b5       	in	r24, 0x2c	; 44
    39de:	81 60       	ori	r24, 0x01	; 1
    39e0:	8c bd       	out	0x2c, r24	; 44
  SPCR |= _BV(MSTR); // Ustaw master jako SPI
    39e2:	8c b5       	in	r24, 0x2c	; 44
    39e4:	80 61       	ori	r24, 0x10	; 16
    39e6:	8c bd       	out	0x2c, r24	; 44
  SPCR |= _BV(SPE); // Wcz SPI
    39e8:	8c b5       	in	r24, 0x2c	; 44
    39ea:	80 64       	ori	r24, 0x40	; 64
    39ec:	8c bd       	out	0x2c, r24	; 44
    39ee:	08 95       	ret

000039f0 <send_sample>:
}

void send_sample(uint8_t sample)
{
  uint8_t data1 = 0x30 | (sample >> 4);
    39f0:	98 2f       	mov	r25, r24
    39f2:	92 95       	swap	r25
    39f4:	9f 70       	andi	r25, 0x0F	; 15
    39f6:	90 63       	ori	r25, 0x30	; 48
  uint8_t data2 = sample << 4;
    39f8:	82 95       	swap	r24
    39fa:	80 7f       	andi	r24, 0xF0	; 240

  PORTB &= ~_BV(PB2); // Ustaw CS na niski, rozpocznij transmisj
    39fc:	2a 98       	cbi	0x05, 2	; 5
  SPDR = data1;
    39fe:	9e bd       	out	0x2e, r25	; 46
  loop_until_bit_is_set(SPSR, SPIF);  // Przesyanie pierwszego bajtu
    3a00:	0d b4       	in	r0, 0x2d	; 45
    3a02:	07 fe       	sbrs	r0, 7
    3a04:	fd cf       	rjmp	.-6      	; 0x3a00 <send_sample+0x10>
  SPDR = data2;
    3a06:	8e bd       	out	0x2e, r24	; 46
  loop_until_bit_is_set(SPSR, SPIF);  // Przesyanie drugiego bajtu
    3a08:	0d b4       	in	r0, 0x2d	; 45
    3a0a:	07 fe       	sbrs	r0, 7
    3a0c:	fd cf       	rjmp	.-6      	; 0x3a08 <send_sample+0x18>
  PORTB |= _BV(PB2); // Ustaw CS na wysoki, zakocz transmisj
    3a0e:	2a 9a       	sbi	0x05, 2	; 5
    3a10:	08 95       	ret

00003a12 <main>:

static const uint8_t samples[] PROGMEM = {128, 128, 128, 128, 128, 128, 128, 128, 128, 128, 128, 128, 128, 128, 128, 128, 128, 128, 128, 128, 128, 128, 128, 128, 128, 128, 128, 128, 128, 128, 128, 128, 128, 128, 128, 128, 128, 128, 128, 128, 128, 128, 128, 128, 128, 128, 128, 128, 128, 128, 128, 128, 128, 128, 128, 128, 128, 128, 128, 128, 128, 128, 128, 128, 128, 128, 128, 128, 128, 128, 128, 128, 128, 128, 128, 128, 128, 128, 128, 128, 128, 128, 128, 128, 128, 128, 128, 128, 128, 128, 128, 128, 128, 128, 128, 128, 128, 128, 128, 128, 128, 128, 128, 128, 128, 128, 128, 128, 128, 128, 128, 128, 128, 128, 128, 128, 128, 128, 128, 128, 128, 128, 128, 128, 128, 128, 128, 128, 128, 128, 128, 128, 128, 128, 128, 128, 128, 128, 128, 128, 128, 128, 128, 128, 128, 128, 128, 128, 128, 128, 128, 128, 128, 128, 128, 128, 128, 128, 128, 128, 128, 128, 128, 128, 128, 128, 128, 128, 128, 128, 128, 128, 128, 128, 128, 128, 128, 128, 128, 128, 128, 128, 128, 128, 128, 128, 128, 128, 128, 128, 128, 128, 128, 128, 128, 128, 128, 128, 128, 128, 128, 128, 128, 128, 128, 128, 128, 128, 128, 128, 128, 128, 128, 128, 128, 128, 128, 128, 128, 128, 128, 128, 128, 128, 128, 128, 128, 128, 128, 128, 128, 128, 128, 128, 128, 128, 128, 128, 128, 128, 128, 128, 128, 128, 128, 128, 128, 128, 128, 128, 128, 128, 128, 128, 128, 128, 128, 128, 128, 128, 128, 128, 128, 128, 128, 128, 128, 128, 128, 128, 128, 128, 128, 128, 128, 128, 128, 128, 128, 128, 128, 128, 128, 128, 128, 128, 128, 128, 128, 128, 128, 128, 128, 128, 128, 128, 128, 128, 128, 128, 128, 128, 128, 128, 128, 128, 128, 128, 128, 128, 128, 128, 128, 128, 128, 128, 128, 128, 128, 128, 128, 128, 128, 128, 128, 128, 128, 128, 128, 128, 128, 128, 128, 128, 128, 128, 128, 128, 128, 128, 128, 128, 128, 128, 128, 128, 128, 128, 128, 128, 128, 128, 128, 128, 128, 120, 128, 120, 128, 128, 128, 128, 128, 128, 128, 128, 128, 128, 128, 128, 128, 120, 128, 120, 120, 120, 120, 120, 120, 120, 120, 120, 120, 120, 128, 135, 135, 135, 128, 128, 128, 135, 142, 135, 120, 106, 85, 78, 78, 78, 92, 85, 85, 78, 64, 64, 71, 92, 120, 142, 156, 163, 156, 149, 142, 142, 149, 156, 163, 156, 156, 149, 149, 149, 149, 142, 142, 128, 113, 92, 78, 71, 71, 78, 92, 92, 92, 85, 71, 64, 71, 85, 113, 135, 156, 163, 156, 149, 142, 142, 149, 156, 163, 163, 156, 156, 149, 149, 142, 142, 135, 128, 113, 106, 92, 85, 85, 78, 85, 85, 85, 85, 71, 64, 64, 71, 99, 120, 142, 156, 163, 156, 149, 142, 142, 149, 149, 156, 156, 149, 149, 142, 142, 142, 142, 135, 128, 120, 113, 99, 92, 85, 78, 78, 78, 78, 78, 78, 71, 71, 78, 99, 120, 149, 163, 170, 163, 156, 142, 142, 142, 149, 149, 156, 156, 156, 149, 149, 142, 135, 135, 128, 128, 128, 120, 106, 99, 78, 71, 71, 71, 78, 78, 78, 71, 78, 92, 113, 135, 156, 170, 163, 156, 142, 135, 135, 135, 142, 149, 156, 156, 149, 142, 142, 142, 142, 142, 149, 149, 135, 120, 99, 85, 71, 64, 64, 71, 71, 71, 64, 71, 85, 106, 142, 156, 177, 177, 163, 149, 135, 128, 128, 135, 149, 156, 156, 156, 149, 142, 142, 142, 149, 156, 156, 149, 135, 106, 92, 71, 71, 71, 78, 78, 85, 78, 71, 78, 92, 120, 149, 170, 177, 163, 156, 135, 128, 128, 135, 142, 149, 149, 149, 142, 142, 142, 149, 156, 163, 170, 163, 149, 128, 106, 92, 78, 71, 71, 71, 71, 71, 64, 71, 85, 113, 142, 163, 177, 177, 163, 142, 128, 120, 120, 128, 128, 135, 135, 135, 135, 135, 149, 163, 170, 177, 177, 163, 149, 128, 106, 92, 78, 71, 64, 64, 57, 57, 64, 71, 99, 120, 149, 170, 177, 170, 149, 135, 120, 120, 113, 120, 120, 120, 120, 120, 128, 135, 156, 177, 191, 191, 184, 170, 149, 128, 113, 99, 85, 78, 57, 50, 42, 50, 64, 78, 106, 135, 156, 170, 170, 163, 149, 135, 120, 113, 113, 113, 106, 106, 106, 113, 128, 142, 163, 184, 198, 198, 191, 170, 156, 142, 128, 113, 99, 78, 64, 50, 42, 50, 64, 78, 99, 128, 149, 163, 163, 156, 149, 135, 120, 113, 113, 106, 99, 99, 99, 106, 120, 142, 170, 191, 212, 212, 198, 184, 163, 149, 128, 120, 106, 85, 71, 50, 42, 42, 57, 64, 99, 120, 142, 163, 156, 156, 149, 135, 128, 120, 106, 99, 92, 85, 85, 92, 106, 142, 170, 198, 220, 220, 212, 198, 177, 163, 149, 128, 113, 92, 71, 50, 35, 35, 50, 57, 78, 106, 120, 149, 163, 156, 149, 135, 128, 120, 113, 106, 92, 78, 71, 78, 99, 128, 177, 198, 227, 227, 212, 205, 191, 184, 163, 149, 120, 92, 64, 50, 42, 35, 42, 42, 50, 85, 113, 142, 163, 163, 149, 135, 128, 120, 120, 106, 92, 71, 57, 64, 85, 128, 170, 212, 227, 227, 220, 205, 205, 198, 184, 156, 120, 92, 71, 57, 57, 50, 42, 35, 35, 57, 99, 135, 163, 163, 142, 120, 113, 120, 128, 128, 99, 71, 42, 42, 85, 135, 184, 220, 220, 212, 212, 212, 227, 227, 198, 163, 113, 85, 78, 78, 78, 71, 42, 21, 21, 42, 99, 142, 163, 156, 128, 113, 120, 135, 149, 142, 92, 57, 28, 42, 92, 149, 184, 198, 198, 198, 212, 241, 248, 234, 191, 142, 113, 92, 99, 106, 85, 64, 28, 14, 21, 64, 106, 135, 149, 135, 128, 128, 142, 156, 156, 128, 85, 42, 35, 50, 92, 135, 156, 170, 184, 198, 234, 255, 255, 234, 184, 149, 128, 128, 128, 120, 85, 57, 35, 28, 28, 50, 92, 113, 128, 135, 128, 135, 149, 149, 142, 120, 78, 50, 50, 57, 99, 128, 135, 156, 177, 212, 241, 255, 248, 212, 184, 156, 149, 135, 128, 99, 78, 57, 50, 57, 50, 42, 57, 92, 113, 149, 142, 128, 128, 135, 128, 113, 99, 57, 50, 64, 85, 113, 135, 149, 170, 205, 234, 255, 248, 227, 205, 191, 163, 149, 135, 113, 99, 78, 57, 50, 42, 21, 42, 85, 99, 113, 128, 113, 120, 142, 135, 113, 92, 64, 50, 71, 85, 92, 113, 128, 156, 198, 220, 227, 234, 234, 220, 205, 184, 156, 149, 128, 113, 92, 71, 57, 42, 28, 28, 71, 92, 99, 113, 113, 113, 135, 135, 113, 92, 78, 71, 78, 85, 92, 99, 113, 142, 177, 198, 212, 220, 227, 227, 220, 191, 170, 156, 142, 128, 106, 85, 71, 57, 35, 28, 50, 78, 85, 85, 92, 106, 120, 128, 113, 99, 92, 99, 106, 92, 85, 92, 113, 142, 163, 163, 177, 205, 220, 212, 205, 191, 177, 177, 163, 142, 120, 113, 99, 78, 57, 50, 50, 57, 64, 64, 64, 85, 99, 92, 92, 99, 106, 113, 106, 99, 106, 113, 128, 135, 135, 149, 163, 177, 177, 177, 177, 184, 177, 170, 170, 163, 156, 149, 135, 113, 106, 99, 78, 57, 64, 64, 64, 57, 64, 71, 78, 85, 92, 106, 113, 106, 106, 113, 128, 128, 128, 135, 149, 156, 163, 163, 170, 177, 184, 184, 184, 177, 177, 177, 170, 156, 149, 135, 120, 113, 99, 92, 85, 85, 78, 78, 71, 78, 78, 78, 85, 92, 92, 92, 106, 113, 113, 120, 128, 135, 149, 149, 156, 163, 177, 184, 191, 191, 191, 191, 191, 191, 177, 170, 156, 149, 142, 128, 113, 106, 106, 106, 99, 85, 85, 85, 85, 85, 85, 85, 85, 92, 92, 99, 99, 113, 120, 128, 135, 142, 156, 163, 170, 177, 184, 191, 198, 198, 191, 191, 184, 177, 170, 156, 149, 142, 128, 120, 106, 106, 99, 92, 92, 92, 85, 92, 85, 85, 85, 85, 92, 92, 92, 99, 106, 113, 120, 128, 135, 149, 156, 163, 170, 170, 177, 177, 177, 177, 170, 170, 163, 156, 149, 142, 142, 142, 120, 135, 120, 113, 113, 99, 106, 99, 92, 99, 92, 92, 92, 99, 106, 106, 113, 120, 128, 128, 135, 149, 149, 156, 163, 156, 163, 163, 163, 163, 156, 163, 156, 149, 149, 142, 142, 135, 128, 120, 120, 106, 106, 113, 92, 106, 99, 92, 106, 99, 106, 106, 113, 120, 120, 128, 142, 142, 149, 156, 163, 163, 170, 170, 170, 170, 170, 163, 170, 163, 156, 149, 142, 142, 128, 120, 113, 106, 99, 92, 85, 85, 85, 78, 78, 85, 85, 92, 92, 99, 106, 113, 120, 120, 128, 142, 149, 149, 156, 163, 170, 177, 177, 177, 177, 170, 170, 163, 149, 142, 128, 113, 106, 85, 78, 71, 71, 64, 64, 64, 64, 71, 71, 78, 99, 99, 106, 113, 120, 128, 135, 135, 149, 156, 156, 163, 170, 170, 177, 177, 170, 170, 163, 156, 149, 135, 128, 106, 85, 78, 78, 64, 50, 64, 57, 57, 64, 64, 78, 92, 92, 106, 113, 120, 135, 142, 142, 163, 156, 156, 170, 170, 170, 170, 163, 163, 163, 149, 142, 135, 128, 106, 99, 78, 85, 78, 57, 71, 71, 50, 64, 71, 71, 78, 92, 99, 106, 113, 135, 135, 142, 163, 163, 156, 170, 177, 170, 170, 170, 163, 149, 156, 135, 128, 128, 113, 92, 85, 92, 85, 64, 78, 71, 57, 71, 78, 71, 71, 92, 106, 92, 106, 135, 128, 135, 170, 163, 163, 177, 184, 177, 177, 184, 177, 163, 170, 156, 142, 135, 128, 106, 92, 99, 85, 57, 78, 71, 50, 57, 71, 64, 71, 85, 99, 92, 106, 135, 128, 135, 170, 163, 163, 184, 191, 191, 198, 198, 191, 177, 184, 170, 149, 149, 135, 99, 92, 85, 78, 64, 57, 71, 50, 57, 85, 64, 71, 99, 92, 106, 120, 128, 142, 142, 149, 170, 163, 177, 191, 184, 191, 198, 184, 184, 184, 170, 156, 149, 128, 113, 99, 78, 78, 78, 50, 71, 64, 50, 85, 85, 78, 99, 99, 99, 135, 120, 135, 142, 142, 149, 163, 163, 177, 177, 184, 184, 184, 184, 177, 170, 156, 149, 142, 113, 106, 85, 78, 78, 57, 64, 71, 64, 85, 92, 85, 106, 106, 106, 120, 120, 120, 128, 135, 135, 142, 156, 156, 163, 177, 177, 170, 184, 170, 170, 163, 149, 142, 120, 106, 99, 71, 78, 64, 50, 64, 71, 71, 85, 99, 106, 106, 120, 128, 120, 142, 135, 135, 142, 142, 149, 156, 149, 163, 170, 170, 177, 170, 170, 170, 149, 135, 135, 106, 92, 85, 71, 71, 57, 50, 64, 71, 78, 99, 106, 113, 135, 135, 128, 142, 142, 135, 142, 149, 142, 149, 156, 156, 163, 170, 177, 170, 170, 170, 163, 142, 142, 128, 99, 92, 78, 64, 71, 57, 64, 78, 64, 92, 113, 106, 135, 142, 135, 149, 149, 149, 142, 142, 149, 142, 142, 163, 156, 163, 170, 177, 177, 170, 170, 170, 142, 142, 128, 85, 85, 64, 50, 57, 42, 64, 71, 71, 106, 113, 113, 156, 149, 142, 156, 142, 149, 142, 128, 142, 128, 128, 156, 149, 156, 177, 177, 170, 177, 177, 156, 142, 128, 106, 78, 71, 42, 50, 50, 42, 71, 78, 85, 120, 128, 135, 156, 156, 149, 156, 135, 135, 128, 120, 128, 128, 135, 149, 156, 163, 184, 184, 177, 177, 170, 142, 135, 106, 92, 71, 50, 35, 50, 35, 50, 71, 78, 99, 128, 135, 149, 163, 156, 156, 149, 142, 135, 128, 120, 128, 142, 142, 149, 177, 177, 191, 191, 177, 170, 163, 135, 120, 92, 71, 50, 28, 35, 35, 42, 57, 85, 99, 120, 142, 156, 163, 163, 163, 149, 135, 135, 128, 120, 120, 128, 149, 149, 163, 191, 198, 198, 198, 177, 170, 149, 113, 99, 71, 35, 21, 14, 21, 35, 42, 71, 106, 120, 142, 170, 170, 170, 170, 156, 142, 128, 113, 113, 113, 120, 128, 149, 170, 184, 205, 212, 205, 198, 177, 163, 128, 99, 71, 42, 14, 7, 0, 28, 42, 57, 92, 128, 135, 170, 177, 177, 177, 163, 149, 135, 120, 113, 106, 106, 120, 128, 149, 177, 184, 198, 205, 191, 177, 170, 149, 113, 92, 64, 42, 14, 14, 7, 35, 50, 71, 106, 135, 142, 177, 177, 170, 170, 156, 135, 120, 99, 99, 99, 92, 120, 128, 149, 177, 184, 191, 198, 184, 163, 156, 135, 99, 78, 50, 28, 14, 14, 14, 50, 71, 85, 128, 149, 156, 170, 170, 163, 149, 135, 120, 106, 92, 92, 99, 106, 128, 149, 163, 191, 205, 198, 198, 184, 163, 142, 120, 85, 64, 42, 21, 14, 14, 28, 50, 85, 92, 128, 149, 149, 156, 163, 142, 135, 120, 106, 99, 92, 92, 106, 106, 128, 163, 170, 184, 205, 198, 184, 177, 156, 135, 113, 85, 64, 50, 35, 21, 28, 35, 57, 92, 106, 120, 149, 149, 149, 149, 135, 120, 113, 99, 92, 92, 92, 99, 113, 120, 156, 177, 177, 184, 191, 177, 163, 149, 128, 113, 92, 71, 64, 50, 35, 50, 57, 64, 113, 120, 120, 156, 156, 142, 142, 135, 113, 113, 99, 92, 99, 99, 106, 120, 128, 149, 170, 177, 170, 177, 170, 156, 142, 128, 113, 92, 71, 64, 57, 42, 57, 64, 71, 113, 128, 128, 149, 163, 149, 149, 142, 120, 113, 113, 106, 106, 120, 128, 128, 142, 149, 163, 170, 163, 163, 163, 142, 120, 120, 113, 78, 71, 64, 57, 50, 57, 64, 85, 120, 120, 135, 156, 156, 142, 149, 149, 128, 120, 128, 120, 128, 135, 149, 149, 149, 163, 170, 163, 170, 163, 149, 142, 120, 106, 99, 78, 64, 57, 50, 50, 57, 64, 92, 120, 120, 135, 156, 156, 149, 149, 149, 135, 120, 128, 128, 135, 142, 149, 149, 163, 163, 163, 170, 163, 156, 156, 135, 120, 113, 92, 71, 64, 50, 50, 57, 50, 64, 99, 113, 120, 149, 163, 156, 156, 156, 149, 142, 135, 128, 135, 142, 149, 156, 156, 163, 163, 163, 156, 163, 163, 135, 120, 120, 99, 85, 78, 57, 57, 71, 57, 64, 92, 106, 128, 128, 149, 163, 156, 142, 149, 149, 142, 142, 135, 142, 156, 163, 156, 170, 177, 163, 149, 149, 156, 149, 128, 113, 113, 106, 92, 78, 78, 85, 71, 71, 85, 99, 120, 128, 135, 149, 156, 149, 142, 149, 149, 142, 142, 149, 149, 156, 163, 163, 163, 170, 163, 149, 149, 156, 142, 113, 106, 106, 99, 85, 71, 85, 85, 71, 71, 85, 106, 128, 128, 135, 156, 156, 142, 149, 149, 156, 149, 142, 149, 156, 163, 163, 170, 177, 163, 149, 149, 149, 135, 128, 113, 99, 99, 92, 78, 92, 92, 71, 71, 92, 85, 106, 128, 128, 142, 156, 149, 149, 156, 156, 156, 156, 156, 149, 156, 163, 163, 163, 170, 163, 149, 142, 135, 128, 128, 99, 92, 106, 99, 85, 92, 92, 78, 85, 85, 92, 113, 128, 128, 142, 156, 156, 156, 163, 163, 163, 163, 163, 156, 163, 170, 170, 163, 163, 156, 149, 135, 128, 120, 113, 92, 92, 106, 99, 92, 92, 85, 78, 78, 78, 99, 113, 120, 128, 142, 156, 163, 163, 163, 170, 170, 170, 163, 163, 170, 170, 163, 163, 156, 156, 142, 128, 120, 106, 92, 99, 99, 92, 92, 99, 92, 85, 85, 78, 85, 113, 113, 120, 135, 149, 149, 163, 163, 163, 170, 170, 163, 163, 170, 163, 163, 156, 156, 156, 135, 128, 120, 113, 92, 85, 99, 99, 99, 92, 99, 99, 92, 78, 78, 99, 113, 106, 120, 142, 149, 149, 163, 170, 163, 170, 163, 163, 170, 170, 156, 156, 163, 156, 135, 135, 128, 113, 99, 78, 85, 99, 99, 85, 99, 106, 92, 78, 78, 85, 99, 106, 106, 128, 149, 142, 149, 170, 177, 170, 163, 170, 170, 170, 163, 149, 156, 170, 142, 120, 135, 120, 99, 78, 71, 85, 99, 78, 78, 106, 99, 78, 78, 85, 92, 106, 99, 106, 149, 156, 142, 156, 177, 177, 163, 170, 170, 177, 170, 149, 149, 170, 156, 135, 135, 135, 113, 92, 71, 71, 92, 92, 71, 85, 99, 85, 71, 71, 78, 85, 106, 106, 113, 142, 149, 142, 156, 170, 170, 163, 170, 170, 170, 163, 149, 163, 163, 149, 135, 135, 128, 106, 92, 78, 78, 92, 85, 71, 85, 85, 71, 71, 71, 78, 99, 106, 106, 128, 149, 149, 156, 170, 170, 170, 170, 163, 163, 170, 156, 156, 156, 156, 156, 142, 128, 128, 113, 85, 78, 85, 85, 78, 78, 78, 78, 71, 71, 71, 85, 99, 106, 113, 135, 149, 149, 156, 177, 170, 170, 170, 163, 163, 163, 156, 156, 156, 156, 142, 135, 128, 120, 106, 92, 85, 92, 78, 71, 85, 85, 64, 71, 78, 71, 92, 106, 106, 128, 142, 142, 156, 170, 163, 163, 170, 170, 156, 156, 163, 156, 156, 149, 149, 142, 135, 128, 113, 106, 99, 85, 85, 78, 78, 78, 71, 64, 71, 64, 71, 99, 106, 106, 128, 142, 149, 163, 163, 163, 163, 163, 156, 149, 156, 156, 156, 142, 149, 149, 142, 135, 128, 113, 113, 99, 85, 92, 78, 64, 78, 71, 57, 71, 71, 64, 99, 106, 106, 128, 149, 149, 156, 163, 163, 163, 156, 156, 149, 149, 149, 142, 149, 149, 142, 135, 135, 128, 120, 120, 99, 99, 99, 71, 71, 78, 57, 57, 64, 64, 71, 99, 106, 120, 135, 142, 149, 156, 163, 163, 163, 149, 156, 156, 149, 142, 149, 142, 142, 142, 135, 142, 142, 128, 128, 113, 113, 99, 78, 71, 78, 64, 57, 64, 71, 78, 99, 106, 120, 135, 149, 149, 156, 163, 163, 156, 149, 156, 149, 142, 142, 142, 149, 149, 135, 142, 156, 149, 142, 135, 128, 128, 106, 85, 92, 78, 64, 64, 64, 71, 85, 92, 99, 120, 135, 135, 149, 163, 156, 163, 156, 149, 156, 149, 135, 149, 142, 135, 142, 128, 135, 156, 142, 128, 135, 128, 120, 106, 92, 92, 85, 71, 64, 78, 71, 85, 92, 99, 128, 128, 128, 149, 156, 156, 156, 156, 156, 163, 149, 142, 156, 142, 135, 142, 128, 135, 142, 128, 128, 128, 113, 113, 106, 92, 92, 92, 85, 92, 92, 92, 106, 106, 106, 120, 120, 120, 128, 128, 128, 135, 135, 142, 142, 142, 142, 149, 149, 149, 142, 142, 142, 135, 135, 135, 128, 128, 120, 113, 113, 120, 113, 120, 120, 120, 128, 120, 128, 128, 128, 128, 128, 120, 120, 128, 120, 128, 128, 120, 135, 135, 128, 135, 135, 135, 135, 135, 128, 135, 128, 128, 142, 135, 128, 135, 135, 135, 135, 135, 128, 128, 128, 120, 120, 113, 113, 113, 106, 106, 106, 106, 106, 113, 106, 113, 113, 120, 120, 120, 128, 128, 128, 128, 135, 128, 135, 135, 135, 135, 135, 142, 142, 142, 142, 142, 142, 135, 135, 135, 128, 120, 113, 106, 106, 99, 99, 99, 99, 99, 99, 106, 106, 113, 113, 120, 120, 128, 128, 128, 128, 128, 135, 135, 135, 135, 135, 135, 135, 142, 142, 142, 135, 135, 135, 128, 128, 128, 120, 113, 106, 106, 99, 99, 99, 99, 99, 99, 99, 106, 106, 113, 113, 113, 120, 120, 120, 128, 128, 135, 135, 135, 135, 135, 142, 142, 142, 142, 135, 135, 135, 135, 128, 128, 120, 120, 113, 113, 113, 106, 106, 106, 106, 106, 106, 106, 106, 106, 106, 106, 113, 113, 113, 120, 120, 128, 128, 135, 135, 135, 142, 142, 142, 142, 142, 135, 135, 135, 135, 128, 128, 128, 120, 120, 120, 120, 113, 113, 113, 113, 113, 113, 106, 106, 106, 106, 106, 106, 106, 113, 113, 113, 120, 120, 128, 128, 135, 135, 135, 135, 135, 135, 135, 135, 135, 128, 128, 128, 120, 120, 120, 120, 120, 120, 120, 120, 113, 113, 113, 113, 113, 113, 113, 113, 113, 113, 113, 113, 113, 120, 120, 120, 128, 128, 128, 128, 135, 135, 135, 135, 135, 135, 128, 128, 128, 120, 120, 120, 120, 120, 120, 120, 120, 120, 120, 120, 120, 120, 120, 120, 120, 120, 120, 120, 120, 120, 120, 120, 120, 120, 120, 120, 128, 128, 128, 128, 128, 128, 128, 128, 128, 128, 128, 128, 128, 128, 128, 128, 120, 120, 120, 120, 120, 120, 128, 128, 128, 128, 128, 128, 128, 128, 128, 128, 120, 120, 120, 120, 120, 120, 120, 120, 120, 120, 128, 128, 128, 128, 135, 135, 128, 128, 128, 128, 128, 128, 128, 128, 128, 128, 128, 128, 128, 128, 128, 128, 128, 128, 128, 128, 128, 128, 128, 128, 128, 128, 128, 128, 120, 120, 120, 120, 120, 128, 128, 128, 128, 128, 128, 128, 128, 128, 135, 135, 135, 135, 135, 135, 135, 135, 135, 128, 128, 128, 128, 128, 128, 128, 128, 128, 128, 128, 128, 128, 128, 128, 128, 128, 128, 128, 128, 128, 120, 120, 120, 120, 128, 128, 128, 128, 135, 135, 135, 135, 135, 135, 135, 135, 135, 135, 135, 135, 135, 128, 128, 128, 128, 128, 128, 128, 128, 120, 120, 128, 128, 128, 128, 128, 128, 120, 120, 120, 120, 120, 128, 128, 128, 128, 128, 135, 135, 135, 135, 135, 135, 135, 142, 142, 142, 142, 142, 142, 135, 135, 128, 128, 128, 128, 128, 128, 128, 128, 149, 120, 120, 120, 113, 128, 113, 128, 113, 120, 128, 120, 128, 128, 128, 128, 128, 135, 128, 135, 135, 135, 135, 135, 142, 142, 135, 135, 135, 128, 135, 135, 128, 128, 120, 128, 128, 120, 128, 120, 120, 120, 120, 113, 120, 120, 120, 120, 120, 120, 135, 120, 128, 128, 128, 135, 128, 135, 135, 128, 142, 142, 128, 128, 135, 128, 128, 135, 128, 120, 128, 120, 120, 120, 120, 120, 113, 120, 106, 120, 120, 120, 113, 120, 128, 113, 128, 120, 120, 128, 120, 135, 120, 135, 128, 128, 128, 128, 120, 128, 128, 120, 128, 128, 120, 120, 120, 113, 128, 113, 128, 120, 113, 128, 120, 128, 120, 120, 128, 113, 135, 120, 128, 120, 135, 120, 128, 135, 120, 128, 135, 120, 120, 120, 128, 128, 113, 142, 120, 120, 128, 120, 120, 113, 128, 120, 128, 113, 128, 128, 113, 135, 113, 135, 135, 106, 149, 106, 120, 142, 113, 128, 120, 120, 128, 113, 120, 128, 106, 128, 113, 120, 120, 120, 120, 128, 113, 120, 120, 106, 142, 106, 128, 128, 120, 106, 142, 99, 135, 113, 120, 128, 128, 113, 135, 128, 120, 135, 106, 135, 113, 120, 120, 113, 128, 113, 113, 135, 106, 120, 128, 106, 128, 113, 113, 142, 99, 120, 135, 113, 106, 142, 92, 149, 113, 106, 156, 99, 106, 142, 113, 128, 113, 128, 135, 85, 142, 99, 128, 106, 128, 113, 128, 113, 120, 135, 99, 135, 113, 113, 128, 128, 113, 128, 106, 149, 85, 135, 106, 120, 99, 128, 120, 106, 113, 142, 92, 128, 113, 106, 128, 106, 120, 120, 106, 113, 135, 106, 113, 135, 99, 149, 78, 156, 128, 99, 149, 99, 135, 106, 128, 113, 128, 106, 120, 106, 142, 85, 142, 99, 128, 92, 163, 71, 149, 92, 128, 106, 128, 99, 149, 71, 149, 92, 106, 128, 99, 128, 120, 106, 142, 128, 106, 142, 113, 120, 106, 142, 92, 135, 92, 142, 99, 99, 135, 113, 113, 120, 120, 99, 135, 99, 128, 128, 106, 128, 120, 113, 120, 128, 106, 128, 106, 135, 113, 120, 135, 120, 128, 135, 92, 149, 106, 128, 106, 128, 99, 142, 78, 149, 99, 128, 106, 128, 106, 142, 99, 142, 120, 106, 128, 106, 120, 106, 113, 113, 128, 92, 149, 99, 135, 113, 135, 128, 128, 113, 149, 106, 120, 135, 106, 113, 113, 113, 135, 106, 106, 149, 106, 106, 128, 113, 120, 106, 120, 120, 99, 106, 128, 113, 113, 113, 128, 128, 99, 120, 135, 99, 128, 120, 120, 120, 113, 113, 135, 99, 106, 128, 113, 106, 128, 120, 128, 113, 128, 128, 120, 113, 135, 128, 106, 135, 128, 113, 113, 113, 113, 113, 92, 113, 113, 92, 106, 120, 99, 106, 106, 113, 120, 106, 120, 120, 113, 120, 135, 128, 128, 128, 135, 135, 128, 149, 135, 142, 149, 135, 142, 128, 113, 120, 106, 92, 106, 85, 85, 85, 71, 85, 99, 92, 106, 120, 120, 135, 128, 135, 135, 135, 128, 128, 120, 113, 128, 120, 128, 135, 135, 149, 149, 149, 163, 149, 149, 149, 135, 120, 113, 99, 99, 92, 92, 92, 85, 85, 85, 106, 120, 113, 128, 135, 135, 135, 128, 135, 128, 113, 120, 120, 106, 113, 113, 128, 135, 142, 149, 163, 156, 163, 163, 163, 163, 149, 149, 149, 120, 113, 106, 106, 113, 106, 106, 120, 106, 92, 113, 128, 120, 120, 135, 142, 128, 128, 128, 128, 113, 106, 99, 106, 92, 106, 128, 128, 149, 163, 163, 177, 184, 170, 177, 170, 163, 156, 149, 142, 135, 113, 113, 120, 120, 113, 106, 113, 113, 99, 106, 135, 135, 128, 142, 142, 135, 120, 113, 113, 99, 85, 92, 99, 106, 120, 135, 156, 177, 170, 184, 191, 184, 170, 177, 170, 149, 149, 149, 142, 128, 120, 120, 113, 120, 120, 106, 113, 106, 92, 106, 128, 113, 113, 135, 135, 113, 113, 113, 99, 92, 85, 92, 106, 128, 135, 163, 177, 170, 184, 177, 170, 163, 156, 149, 149, 149, 149, 149, 142, 135, 128, 120, 113, 113, 120, 113, 99, 99, 85, 99, 128, 120, 106, 128, 128, 113, 113, 99, 99, 99, 85, 99, 128, 135, 149, 177, 170, 170, 170, 156, 163, 156, 149, 156, 163, 170, 170, 163, 163, 149, 128, 120, 106, 99, 113, 120, 99, 92, 92, 99, 128, 113, 113, 128, 120, 106, 99, 92, 85, 85, 85, 113, 128, 135, 149, 163, 163, 163, 156, 156, 163, 163, 163, 170, 163, 170, 177, 170, 156, 135, 128, 120, 113, 99, 113, 135, 113, 99, 99, 99, 120, 120, 106, 120, 113, 99, 85, 71, 71, 78, 99, 120, 120, 135, 156, 156, 149, 149, 142, 142, 149, 156, 163, 177, 170, 170, 177, 170, 156, 135, 128, 128, 120, 113, 113, 120, 128, 99, 78, 78, 85, 113, 113, 106, 106, 106, 99, 78, 71, 78, 99, 120, 120, 135, 142, 149, 142, 135, 128, 135, 142, 142, 163, 184, 184, 170, 170, 177, 156, 149, 135, 128, 135, 128, 106, 106, 106, 106, 78, 64, 78, 106, 128, 113, 106, 99, 92, 78, 57, 57, 92, 128, 128, 135, 135, 142, 135, 128, 120, 135, 142, 156, 170, 191, 198, 191, 184, 163, 149, 149, 142, 128, 135, 142, 128, 113, 99, 85, 85, 85, 71, 85, 113, 128, 113, 85, 78, 71, 64, 57, 85, 113, 135, 135, 128, 135, 135, 128, 120, 120, 142, 163, 184, 184, 191, 177, 163, 156, 142, 142, 142, 142, 149, 156, 149, 135, 106, 85, 71, 71, 78, 78, 99, 120, 113, 85, 71, 57, 57, 64, 85, 106, 128, 142, 142, 135, 128, 120, 113, 120, 135, 156, 170, 184, 184, 177, 163, 156, 149, 149, 142, 149, 156, 163, 156, 135, 113, 85, 78, 57, 57, 78, 85, 113, 120, 99, 78, 64, 57, 64, 92, 106, 120, 135, 128, 128, 128, 120, 113, 128, 135, 149, 163, 170, 184, 191, 184, 170, 156, 149, 156, 156, 156, 156, 149, 142, 128, 113, 78, 57, 50, 64, 85, 99, 113, 113, 99, 85, 64, 71, 85, 113, 113, 106, 113, 120, 128, 128, 120, 120, 135, 149, 156, 170, 177, 184, 184, 177, 163, 163, 163, 163, 163, 156, 149, 156, 149, 128, 106, 78, 57, 57, 57, 71, 92, 106, 99, 85, 78, 64, 78, 92, 99, 106, 99, 106, 128, 135, 135, 128, 135, 142, 156, 163, 170, 177, 184, 184, 170, 177, 177, 170, 170, 163, 149, 149, 149, 142, 120, 92, 71, 64, 57, 50, 64, 85, 99, 99, 85, 57, 57, 78, 92, 92, 92, 92, 106, 128, 128, 135, 135, 135, 149, 156, 163, 163, 177, 184, 184, 184, 177, 170, 170, 163, 149, 149, 142, 142, 135, 120, 99, 85, 78, 64, 57, 50, 71, 85, 92, 85, 71, 78, 85, 92, 92, 85, 92, 106, 135, 142, 149, 149, 149, 156, 163, 163, 170, 177, 184, 184, 184, 184, 177, 177, 163, 156, 149, 142, 149, 142, 128, 113, 92, 85, 71, 57, 50, 57, 71, 78, 78, 78, 78, 92, 92, 92, 92, 99, 106, 128, 142, 149, 156, 156, 156, 156, 163, 170, 177, 184, 184, 184, 184, 177, 177, 170, 156, 149, 142, 142, 142, 128, 120, 106, 85, 78, 64, 57, 50, 57, 64, 78, 92, 92, 92, 92, 92, 99, 99, 106, 120, 128, 135, 149, 156, 156, 156, 156, 156, 163, 170, 177, 170, 170, 170, 170, 170, 163, 156, 142, 135, 135, 128, 128, 120, 106, 99, 85, 78, 71, 64, 57, 64, 71, 85, 92, 92, 92, 92, 99, 106, 106, 113, 120, 135, 142, 149, 156, 156, 149, 156, 156, 163, 163, 163, 163, 163, 163, 163, 163, 156, 149, 142, 135, 135, 135, 128, 120, 106, 99, 85, 78, 64, 57, 57, 64, 71, 78, 85, 85, 85, 85, 92, 99, 106, 113, 128, 135, 142, 149, 149, 156, 156, 156, 163, 163, 170, 170, 170, 170, 170, 170, 163, 156, 149, 142, 135, 135, 128, 113, 99, 85, 71, 57, 50, 42, 42, 50, 57, 71, 71, 71, 71, 78, 85, 92, 106, 120, 128, 142, 149, 156, 163, 170, 170, 177, 177, 177, 177, 177, 177, 177, 170, 163, 156, 149, 142, 135, 128, 120, 106, 92, 71, 64, 50, 42, 42, 42, 50, 50, 57, 64, 71, 71, 85, 85, 99, 113, 120, 135, 142, 156, 163, 170, 177, 177, 184, 184, 184, 184, 184, 177, 177, 170, 163, 156, 156, 149, 135, 128, 120, 99, 85, 71, 57, 42, 35, 42, 42, 50, 57, 57, 57, 64, 71, 85, 92, 106, 113, 128, 135, 149, 163, 170, 177, 184, 184, 191, 191, 198, 191, 191, 184, 177, 170, 163, 163, 156, 149, 142, 128, 113, 99, 85, 71, 57, 50, 42, 50, 50, 57, 57, 57, 57, 71, 78, 92, 99, 113, 120, 128, 135, 149, 163, 170, 177, 177, 184, 191, 191, 191, 191, 191, 177, 177, 170, 170, 163, 156, 149, 142, 128, 113, 99, 85, 71, 64, 50, 50, 50, 50, 50, 50, 50, 57, 64, 71, 85, 92, 106, 113, 120, 135, 149, 156, 170, 177, 184, 191, 191, 191, 191, 191, 184, 177, 177, 170, 170, 163, 156, 149, 135, 128, 113, 99, 85, 71, 57, 50, 50, 50, 50, 50, 50, 50, 50, 64, 78, 85, 99, 106, 113, 128, 135, 149, 163, 170, 177, 184, 184, 191, 191, 191, 191, 191, 184, 177, 170, 170, 163, 156, 142, 135, 120, 106, 92, 78, 71, 57, 50, 50, 50, 50, 50, 50, 50, 57, 71, 78, 92, 99, 106, 113, 128, 142, 149, 163, 177, 177, 184, 191, 191, 198, 198, 191, 191, 184, 184, 177, 170, 163, 156, 142, 135, 120, 106, 99, 85, 71, 64, 57, 57, 57, 50, 57, 57, 57, 64, 71, 78, 92, 99, 113, 120, 135, 149, 156, 170, 177, 177, 184, 184, 191, 191, 191, 191, 191, 184, 184, 170, 163, 156, 149, 142, 135, 120, 106, 99, 85, 78, 71, 57, 57, 57, 57, 64, 64, 64, 71, 78, 85, 92, 106, 113, 128, 135, 142, 156, 163, 170, 177, 177, 177, 184, 184, 184, 184, 184, 184, 177, 170, 163, 156, 149, 142, 135, 120, 106, 99, 85, 78, 71, 64, 64, 64, 64, 64, 71, 71, 71, 78, 85, 92, 106, 113, 128, 135, 142, 149, 156, 163, 170, 177, 177, 177, 184, 184, 184, 184, 184, 177, 170, 163, 156, 156, 149, 142, 128, 120, 106, 99, 85, 78, 71, 71, 64, 71, 71, 71, 78, 78, 78, 85, 92, 99, 113, 120, 135, 135, 142, 156, 163, 170, 177, 177, 184, 184, 184, 184, 184, 184, 177, 177, 170, 163, 156, 149, 142, 135, 128, 113, 99, 92, 85, 78, 71, 71, 71, 71, 71, 78, 78, 85, 85, 92, 99, 113, 120, 128, 135, 142, 149, 156, 163, 170, 170, 177, 177, 177, 177, 177, 177, 177, 170, 170, 163, 156, 149, 142, 128, 120, 113, 106, 92, 85, 85, 78, 71, 71, 78, 78, 78, 85, 85, 85, 92, 99, 106, 113, 120, 128, 135, 142, 149, 156, 163, 170, 170, 170, 177, 177, 170, 170, 170, 163, 163, 156, 149, 142, 142, 128, 120, 113, 106, 99, 92, 85, 78, 78, 71, 78, 78, 78, 85, 85, 85, 92, 92, 99, 106, 113, 120, 128, 135, 142, 149, 156, 163, 163, 163, 170, 170, 163, 163, 163, 163, 163, 156, 149, 149, 142, 135, 128, 120, 113, 106, 106, 99, 92, 85, 85, 78, 85, 85, 85, 85, 85, 92, 92, 99, 106, 113, 120, 120, 128, 135, 142, 142, 149, 156, 156, 163, 163, 163, 163, 163, 163, 163, 156, 156, 149, 142, 142, 135, 128, 120, 113, 106, 106, 99, 92, 92, 85, 85, 85, 92, 92, 92, 99, 99, 99, 99, 106, 106, 113, 120, 120, 128, 135, 142, 142, 149, 149, 156, 156, 156, 156, 156, 156, 156, 156, 149, 149, 142, 135, 135, 128, 120, 120, 120, 113, 106, 106, 99, 92, 92, 92, 92, 92, 92, 92, 99, 99, 99, 106, 106, 113, 120, 120, 128, 135, 135, 142, 142, 149, 149, 149, 149, 156, 156, 156, 156, 156, 156, 149, 142, 142, 135, 128, 128, 128, 120, 120, 113, 113, 106, 106, 99, 99, 99, 99, 99, 99, 99, 99, 99, 106, 106, 113, 113, 113, 120, 128, 135, 135, 135, 142, 142, 142, 149, 149, 149, 156, 156, 156, 149, 149, 149, 142, 142, 135, 135, 128, 128, 128, 128, 120, 120, 113, 113, 106, 106, 106, 99, 99, 99, 106, 106, 106, 106, 113, 113, 113, 120, 120, 128, 128, 128, 135, 135, 135, 135, 142, 142, 142, 149, 149, 149, 142, 142, 142, 135, 135, 135, 128, 128, 128, 128, 128, 128, 120, 120, 120, 113, 113, 113, 113, 113, 113, 113, 113, 113, 113, 113, 113, 113, 113, 113, 113, 120, 120, 128, 128, 128, 135, 135, 135, 135, 135, 135, 135, 135, 135, 135, 135, 128, 135, 128, 128, 128, 128, 128, 128, 120, 120, 120, 120, 120, 113, 113, 113, 113, 113, 113, 113, 113, 113, 113, 113, 113, 113, 113, 113, 120, 120, 120, 120, 120, 120, 128, 128, 128, 128, 135, 142, 149, 149, 142, 142, 135, 135, 135, 135, 142, 142, 142, 135, 135, 135, 135, 135, 128, 128, 128, 120, 113, 113, 106, 106, 106, 106, 106, 106, 113, 113, 120, 120, 120, 120, 120, 120, 128, 128, 135, 135, 135, 135, 135, 135, 135, 135, 135, 128, 128, 128, 120, 120, 120, 113, 113, 113, 113, 113, 113, 106, 106, 106, 106, 106, 106, 106, 106, 113, 113, 113, 113, 113, 120, 120, 120, 120, 113, 113, 113, 113, 120, 113, 113, 113, 113, 113, 113, 113, 113, 113, 113, 113, 113, 113, 120, 120, 120, 120, 120, 120, 120, 120, 120, 120, 120, 120, 120, 120, 120, 120, 120, 120, 120, 120, 113, 113, 113, 113, 113, 113, 113, 120, 120, 128, 149, 163, 163, 156, 135, 113, 106, 120, 128, 128, 120, 113, 106, 113, 128, 135, 135, 135, 142, 149, 156, 156, 135, 128, 113, 113, 120, 128, 135, 142, 142, 135, 128, 128, 128, 128, 128, 120, 113, 106, 113, 120, 128, 128, 120, 128, 128, 142, 142, 142, 135, 120, 120, 120, 128, 128, 128, 120, 120, 128, 135, 135, 128, 106, 99, 99, 106, 113, 113, 106, 106, 99, 106, 113, 120, 128, 128, 135, 135, 135, 128, 128, 128, 120, 120, 113, 113, 120, 128, 128, 135, 128, 120, 120, 120, 120, 113, 113, 106, 106, 106, 113, 113, 113, 106, 106, 106, 113, 113, 113, 113, 113, 113, 113, 120, 120, 128, 120, 120, 120, 120, 128, 128, 128, 120, 113, 113, 120, 120, 128, 120, 120, 113, 113, 120, 120, 120, 113, 113, 113, 113, 113, 113, 113, 106, 106, 113, 113, 120, 120, 120, 113, 113, 113, 120, 120, 120, 120, 120, 120, 128, 128, 128, 120, 120, 128, 128, 128, 128, 128, 128, 120, 120, 120, 120, 120, 113, 113, 113, 113, 113, 120, 113, 113, 106, 106, 113, 113, 113, 113, 113, 120, 120, 120, 128, 128, 128, 128, 128, 128, 128, 128, 128, 120, 120, 120, 128, 128, 128, 120, 120, 120, 128, 128, 128, 120, 120, 113, 113, 120, 120, 120, 120, 113, 106, 113, 113, 120, 120, 120, 113, 113, 120, 120, 128, 128, 128, 128, 128, 135, 135, 135, 135, 128, 120, 128, 128, 128, 128, 128, 120, 128, 128, 135, 142, 142, 135, 128, 113, 113, 120, 128, 128, 120, 120, 113, 113, 113, 120, 120, 120, 113, 113, 120, 128, 142, 142, 142, 135, 135, 135, 142, 142, 135, 128, 120, 120, 128, 135, 135, 135, 135, 128, 135, 135, 135, 135, 128, 120, 120, 120, 120, 120, 120, 120, 113, 113, 113, 106, 106, 106, 106, 113, 128, 135, 142, 149, 149, 142, 135, 135, 128, 128, 128, 120, 120, 113, 113, 120, 120, 128, 128, 128, 128, 120, 128, 128, 135, 135, 135, 128, 128, 120, 120, 120, 128, 120, 120, 113, 113, 113, 113, 113, 113, 120, 128, 128, 135, 142, 142, 142, 135, 135, 128, 128, 120, 120, 113, 113, 113, 113, 113, 113, 106, 113, 113, 120, 128, 128, 135, 135, 135, 135, 135, 135, 135, 128, 128, 120, 120, 120, 120, 120, 120, 113, 113, 113, 113, 120, 128, 135, 135, 135, 135, 135, 135, 135, 128, 128, 120, 113, 113, 113, 113, 113, 106, 106, 106, 113, 120, 128, 135, 142, 142, 142, 142, 142, 142, 142, 135, 128, 120, 120, 120, 128, 128, 120, 113, 113, 113, 120, 120, 128, 135, 135, 135, 142, 142, 142, 142, 142, 128, 128, 120, 120, 120, 120, 120, 113, 106, 106, 113, 113, 120, 128, 135, 142, 142, 149, 149, 149, 149, 142, 135, 135, 128, 128, 128, 128, 128, 128, 120, 120, 120, 120, 128, 128, 128, 135, 135, 142, 142, 142, 142, 142, 135, 135, 128, 128, 120, 120, 120, 113, 113, 113, 113, 113, 120, 128, 135, 142, 149, 149, 156, 156, 149, 149, 142, 135, 135, 128, 128, 120, 128, 128, 128, 128, 128, 120, 128, 128, 128, 128, 135, 135, 135, 142, 142, 142, 135, 135, 128, 120, 120, 120, 120, 120, 113, 113, 113, 113, 113, 120, 128, 135, 135, 142, 142, 142, 142, 142, 142, 135, 128, 120, 120, 120, 120, 128, 128, 128, 128, 120, 120, 128, 128, 128, 128, 128, 135, 135, 142, 142, 135, 135, 128, 128, 120, 120, 120, 120, 113, 113, 113, 113, 113, 120, 120, 128, 128, 135, 142, 142, 149, 142, 135, 135, 128, 128, 120, 128, 128, 128, 128, 128, 128, 135, 128, 128, 128, 120, 120, 128, 128, 135, 135, 135, 135, 128, 128, 128, 128, 120, 120, 120, 113, 113, 106, 106, 106, 106, 113, 113, 128, 135, 135, 142, 142, 142, 142, 135, 135, 128, 128, 120, 120, 120, 120, 120, 128, 128, 128, 128, 128, 128, 120, 120, 120, 120, 128, 128, 128, 128, 128, 128, 128, 120, 120, 120, 120, 113, 113, 113, 113, 106, 113, 113, 113, 120, 128, 128, 135, 135, 135, 135, 135, 128, 128, 120, 120, 113, 113, 120, 120, 128, 128, 128, 120, 120, 120, 120, 120, 120, 120, 120, 120, 128, 128, 128, 128, 128, 120, 120, 120, 120, 120, 113, 113, 106, 106, 106, 106, 113, 113, 120, 120, 128, 128, 135, 135, 128, 128, 128, 128, 120, 120, 120, 120, 120, 120, 128, 128, 128, 128, 128, 120, 120, 120, 120, 120, 128, 128, 128, 128, 128, 128, 120, 120, 120, 113, 113, 113, 113, 113, 106, 106, 106, 113, 113, 113, 120, 128, 135, 135, 135, 135, 135, 135, 128, 128, 128, 120, 120, 120, 120, 120, 128, 128, 120, 120, 120, 113, 120, 120, 120, 120, 128, 128, 128, 128, 128, 120, 120, 120, 113, 113, 113, 113, 113, 106, 106, 106, 106, 113, 113, 120, 128, 128, 135, 135, 135, 135, 135, 128, 128, 120, 120, 120, 120, 120, 120, 120, 120, 120, 120, 113, 120, 120, 120, 120, 120, 120, 128, 128, 128, 128, 128, 120, 120, 113, 113, 113, 113, 113, 106, 106, 106, 106, 113, 120, 120, 128, 128, 128, 135, 135, 135, 135, 128, 128, 120, 113, 113, 113, 120, 120, 120, 120, 120, 120, 120, 120, 120, 120, 120, 120, 128, 128, 128, 128, 128, 120, 120, 113, 113, 113, 113, 113, 113, 113, 113, 113, 113, 113, 120, 120, 128, 128, 135, 135, 135, 135, 135, 128, 128, 120, 120, 120, 120, 128, 128, 128, 128, 120, 120, 120, 120, 120, 120, 120, 120, 120, 128, 128, 128, 128, 128, 120, 120, 120, 120, 113, 113, 113, 113, 113, 113, 113, 120, 120, 128, 128, 128, 128, 128, 135, 135, 135, 128, 120, 120, 113, 113, 120, 120, 120, 120, 120, 120, 120, 120, 120, 120, 120, 120, 120, 120, 128, 128, 128, 128, 128, 120, 120, 120, 120, 120, 113, 120, 120, 120, 120, 120, 120, 120, 128, 128, 128, 128, 128, 128, 128, 120, 120, 120, 120, 120, 120, 120, 120, 120, 120, 120, 113, 113, 113, 113, 120, 120, 128, 128, 128, 128, 128, 128, 128, 128, 120, 120, 120, 120, 120, 120, 113, 120, 120, 120, 120, 120, 128, 128, 128, 128, 128, 120, 120, 120, 120, 120, 120, 120, 120, 120, 120, 120, 120, 120, 120, 120, 120, 128, 128, 135, 135, 135, 135, 128, 128, 128, 128, 128, 128, 120, 120, 120, 120, 120, 120, 120, 120, 120, 120, 128, 128, 128, 128, 128, 120, 120, 120, 128, 128, 120, 120, 120, 120, 113, 120, 120, 120, 120, 128, 128, 128, 128, 128, 135, 135, 135, 128, 128, 128, 120, 120, 120, 120, 120, 120, 120, 120, 120, 120, 120, 128, 128, 128, 128, 120, 120, 120, 120, 120, 120, 120, 120, 120, 120, 120, 120, 120, 120, 120, 120, 120, 120, 128, 128, 128, 128, 128, 128, 128, 128, 128, 128, 120, 120, 120, 120, 120, 120, 120, 120, 120, 120, 120, 120, 120, 120, 120, 113, 113, 120, 120, 120, 128, 120, 120, 120, 120, 120, 120, 120, 120, 120, 120, 120, 120, 120, 128, 128, 128, 128, 128, 128, 120, 120, 120, 120, 120, 120, 120, 120, 120, 120, 120, 120, 120, 128, 128, 120, 120, 120, 120, 120, 120, 128, 128, 128, 128, 128, 120, 120, 120, 120, 120, 120, 120, 120, 120, 120, 120, 128, 128, 128, 128, 128, 128, 120, 120, 120, 120, 120, 120, 120, 120, 120, 120, 120, 120, 128, 128, 120, 120, 120, 113, 120, 120, 120, 128, 120, 120, 120, 120, 120, 120, 120, 120, 120, 120, 120, 120, 120, 120, 120, 128, 128, 120, 120, 120, 120, 120, 120, 120, 120, 120, 120, 120, 120, 120, 120, 128, 128, 120, 120, 120, 113, 113, 120, 120, 120, 128, 128, 120, 120, 120, 120, 120, 120, 120, 120, 120, 120, 113, 120, 120, 120, 120, 120, 128, 128, 120, 120, 120, 120, 120, 120, 120, 120, 120, 120, 120, 120, 128, 128, 128, 128, 120, 120, 120, 120, 120, 128, 128, 128, 128, 128, 128, 128, 128, 128, 128, 128, 120, 120, 120, 120, 120, 128, 128, 128, 128, 128, 128, 128, 128, 128, 128, 128, 128, 128, 128, 128, 128, 128, 128, 128, 128, 128, 128, 128, 128, 128, 128, 128, 128, 128, 128, 128, 128, 128, 128, 128, 128, 128, 128, 128, 128, 128, 128, 128, 128, 128, 128, 128, 128, 128, 128, 128, 128, 128, 128, 128, 128, 128, 128, 128, 128, 128, 128, 128, 128, 128, 128, 128, 128, 128, 128, 128, 135, 135, 135, 135, 135, 135, 128, 128, 128, 128, 128, 128, 128, 135, 128, 128, 128, 128, 128, 128, 128, 128, 128, 128, 128, 128, 128, 128, 128, 128, 135, 135, 135, 135, 135, 135, 128, 128, 128, 128, 128, 135, 135, 135, 135, 135, 135, 135, 128, 128, 128, 128, 128, 128, 128, 128, 128, 128, 128, 128, 128, 128, 128, 128, 128, 128, 128, 128, 128, 128, 128, 128, 128, 128, 128, 128, 128, 128, 128, 128, 128, 128, 128, 128, 128, 128, 128, 128, 128, 128, 128, 128, 128, 128, 128, 128, 128, 128, 128, 128, 128, 128, 128, 128, 128, 128, 128, 128, 128, 128, 128, 128, 128, 128, 128, 128, 128, 128, 128, 128, 128, 128, 128, 128, 128, 128, 128, 128, 128, 128, 128, 128, 128, 128, 128, 128, 128, 128, 128, 128, 128, 128, 128, 128, 128, 128, 128, 128, 128, 128, 128, 128, 128, 128, 128, 128, 128, 128, 128, 128, 128, 128, 128, 128, 128, 128, 128, 128, 128, 128, 128, 128, 135, 135, 135, 135, 135, 135, 135, 135, 135, 135, 128, 128, 128, 128, 128, 128, 128, 128, 128, 128, 128, 128, 128, 128, 128, 128, 128, 128, 128, 128, 128, 128, 128, 128, 128, 135, 135, 135, 135, 135, 135, 135, 128, 128, 128, 128, 128, 128, 128, 128, 128, 128, 128, 128, 128, 128, 128, 128, 128, 128, 128, 128, 128, 128, 128, 128, 128, 128, 128, 128, 128, 128, 128, 128, 128, 128, 128, 128, 128, 128, 128, 128, 128, 128, 128, 128, 128, 128, 128, 128, 128, 128, 128, 128, 128, 128, 128, 128, 128, 128, 120, 120, 120, 120, 120, 120, 120, 120, 120, 120, 120, 120, 120, 120, 120, 120, 120, 120, 120, 120, 120, 120, 120, 120, 120, 120, 120, 120, 120, 120, 128, 128, 128, 128, 128, 128, 128, 120, 120, 120, 120, 120, 120, 120, 120, 120, 120, 120, 120, 120, 120, 120, 120, 120, 120, 120, 120, 120, 120, 120, 120, 120, 120, 120, 120, 120, 120, 128, 128, 128, 128, 120, 120, 120, 120, 120, 120, 120, 120, 120, 120, 120, 120, 120, 120, 120, 120, 120, 120, 120, 120, 120, 120, 120, 120, 120, 120, 120, 120, 120, 120, 120, 120, 120, 120, 120, 120, 120, 120, 120, 120, 120, 120, 120, 120, 120, 120, 120, 120, 120, 120, 120, 120, 120, 120, 120, 120, 120, 120, 120, 120, 113, 113, 113, 113, 113, 113, 113, 113, 113, 113, 113, 113, 113, 113, 120, 120, 120, 120, 120, 120, 120, 120, 120, 120, 120, 120, 120, 120, 120, 120, 120, 120, 120, 120, 120, 120, 120, 113, 113, 113, 113, 113, 113, 113, 113, 113, 113, 113, 113, 113, 113, 113, 113, 113, 113, 113, 120, 120, 120, 120, 120, 120, 120, 120, 120, 120, 120, 120, 120, 120, 120, 120, 120, 113, 113, 113, 113, 113, 113, 113, 113, 113, 113, 120, 120, 120, 120, 120, 120, 120, 120, 120, 120, 120, 120, 120, 120, 120, 120, 120, 120, 120, 120, 120, 120, 120, 120, 120, 120, 120, 120, 120, 120, 120, 120, 120, 120, 120, 120, 120, 120, 120, 120, 120, 120, 120, 120, 120, 120, 120, 120, 120, 120, 120, 120, 120, 120, 120, 120, 120, 120, 120, 120, 128, 128, 120, 120, 120, 120, 128, 128, 120, 120, 120, 120, 120, 120, 120, 120, 120, 120, 120, 120, 120, 120, 120, 120, 120, 120, 120, 120, 120, 120, 120, 120, 120, 120, 120, 120, 120, 120, 120, 120, 120, 120, 120, 120, 120, 120, 120, 120, 120, 120, 120, 120, 120, 120, 120, 120, 120, 120, 120, 120, 120, 120, 120, 120, 120, 120, 120, 120, 120, 120, 120, 120, 120, 120, 120, 120, 120, 120, 120, 128, 128, 128, 120, 120, 120, 128, 128, 128, 128, 120, 120, 120, 120, 120, 120, 120, 120, 120, 120, 120, 120, 120, 120, 120, 120, 120, 120, 120, 120, 120, 120, 120, 120, 120, 120, 120, 128, 128, 128, 128, 128, 128, 128, 128, 128, 128, 128, 128, 128, 128, 128, 128, 128, 128, 128, 128, 128, 128, 128, 128, 128, 120, 120, 120, 120, 120, 120, 120, 120, 120, 120, 120, 120, 128, 128, 128, 128, 128, 128, 128, 128, 128, 128, 128, 128, 128, 128, 128, 128, 128, 128, 128, 128, 128, 128, 128, 128, 128, 128, 128, 128, 128, 128, 120, 120, 120, 120, 120, 120, 120, 120, 120, 128, 128, 128, 128, 128, 128, 128, 128, 128, 128, 128, 128, 128, 128, 128, 128, 128, 128, 128, 128, 128, 128, 128, 128, 128, 128, 128, 128, 128, 128, 128, 128, 128, 128, 128, 128, 128, 128, 120, 120, 120, 120, 120, 128, 128, 128, 128, 128, 128, 128, 128, 128, 128, 128, 128, 128, 128, 128, 128, 128, 128, 128, 128, 128, 128, 128, 128, 128, 128, 128, 128, 128, 128, 128, 128, 128, 128, 128, 128, 128, 128, 128, 128, 128, 128, 128, 128, 128, 128, 128, 128, 128, 128, 128, 128, 128, 128, 128, 128, 128, 128, 128, 135, 135, 135, 135, 135, 128, 128, 128, 128, 128, 128, 128, 128, 128, 128, 128, 128, 128, 128, 128, 128, 128, 128, 128, 128, 128, 128, 128, 128, 128, 128, 128, 128, 128, 128, 128, 128, 128, 128, 128, 128, 128, 128, 128, 128, 128, 128, 128, 128, 128, 128, 128, 128, 128, 128, 128, 128, 128, 128, 120, 120, 120, 120, 120, 120, 120, 120, 120, 120, 120, 120, 128, 128, 128, 128, 128, 128, 128, 128, 128, 128, 128, 128, 128, 128, 128, 128, 128, 128, 128, 128, 128, 128, 128, 120, 120, 120, 120, 120, 120, 120, 120, 120, 120, 120, 120, 120, 120, 120, 120, 120, 120, 120, 120, 120, 120, 120, 120, 120, 120, 120, 120, 120, 120, 128, 128, 128, 128, 128, 128, 128, 128, 128, 128, 128, 128, 128, 128, 120, 120, 120, 120, 120, 120, 120, 120, 120, 120, 120, 120, 120, 120, 120, 120, 120, 120, 128, 128, 128, 128, 128, 128, 128, 128, 128, 128, 128, 128, 128, 128, 128, 128, 128, 128, 128, 128, 128, 128, 128, 128, 128, 128, 128, 128, 120, 120, 120, 120, 120, 120, 120, 120, 120, 120, 128, 128, 128, 128, 128, 128, 128, 128, 128, 128, 128, 128, 128, 128, 128, 128, 128, 128, 128, 128, 128, 128, 128, 128, 128, 128, 128, 128, 128, 128, 128, 128, 128, 128, 128, 128, 128, 128, 128, 128, 128, 128, 128, 128, 128, 128, 128, 128, 128, 128, 128, 128, 128, 128, 128, 128, 128, 128, 128, 128, 128, 128, 128, 128, 128, 128, 128, 128, 128, 128, 128, 128, 128, 128, 128, 128, 128, 128, 128, 128, 128, 128, 128, 128, 128, 128, 128, 128, 128, 128, 128, 128, 128, 128, 128, 128, 128, 128, 128, 128, 128, 128, 128, 128, 128, 128, 128, 128, 128, 128, 128, 128, 128, 128, 128, 128, 128, 128, 128, 120, 120, 120, 128, 128, 128, 128, 128, 128, 128, 128, 128, 128, 128, 128, 128, 128, 128, 128, 128, 128, 128, 128, 128, 128, 128, 128, 128, 128, 128, 128, 128, 128, 128, 128, 128, 128, 128, 128, 128, 128, 120, 120, 120, 128, 128, 128, 128, 128, 120, 120, 120, 120, 120, 120, 120, 120, 120, 120, 120, 120, 120, 120, 120, 120, 120, 128, 128, 128, 128, 128, 128, 128, 128, 128, 128, 128, 128, 128, 128, 128, 128, 128, 128, 128, 128, 128, 128, 128, 128, 128, 128, 128, 128, 128, 128, 120, 120, 120, 120, 120, 120, 120, 120, 120, 120, 120, 120, 120, 120, 120, 120, 120, 120, 120, 128, 128, 128, 128, 128, 128, 128, 120, 120, 120, 128, 128, 128, 128, 128, 128, 128, 128, 128, 128, 128, 128, 128, 128, 128, 128, 128, 128, 120, 120, 128, 128, 120, 120, 120, 120, 120, 128, 128, 128, 128, 128, 128, 128, 128, 128, 128, 128, 128, 128, 128, 128, 128, 128, 128, 128, 128, 128, 128, 128, 128, 128, 128, 128, 128, 128, 128, 128, 128, 128, 128, 128, 128, 128, 128, 128, 128, 128, 128, 128, 128, 128, 128, 128, 128, 128, 128, 128, 128, 128, 128, 128, 128, 128, 128, 128, 128, 128, 128, 128, 128, 128, 128, 128, 128, 128, 128, 128, 128, 128, 128, 128, 128, 128, 128, 128, 128, 128, 128, 128, 128, 128, 128, 128, 128, 128, 128, 128, 128, 128, 128, 128, 128, 128, 128, 128, 128, 128, 128, 120, 120, 120, 120, 120, 120, 120, 120, 120, 120, 120, 120, 120, 120, 120, 120, 120, 120, 120, 120, 120, 120, 120, 120, 120, 128, 128, 128, 120, 120, 120, 120, 120, 120, 120, 120, 120, 120, 120, 120, 120, 120, 120, 120, 120, 120, 120, 120, 120, 120, 120, 120, 120, 120, 120, 120, 120, 120, 120, 120, 120, 120, 120, 120, 120, 120, 120, 120, 120, 120, 120, 120, 120, 120, 120, 120, 120, 120, 120, 120, 120, 120, 120, 120, 120, 120, 120, 120, 120, 120, 120, 120, 120, 120, 120, 120, 120, 120, 120, 120, 120, 120, 120, 120, 120, 120, 120, 120, 120, 120, 120, 120, 120, 120, 120, 120, 120, 120, 120, 120, 120, 120, 120, 120, 120, 120, 120, 120, 120, 120, 120, 120, 120, 120, 120, 120, 120, 120, 120, 120, 120, 120, 120, 120, 120, 120, 120, 120, 120, 120, 120, 120, 120, 120, 120, 120, 120, 120, 120, 120, 120, 120, 120, 120, 120, 120, 120, 120, 120, 120, 120, 120, 120, 120, 120, 120, 120, 120, 120, 120, 120, 120, 120, 120, 120, 120, 120, 120, 120, 120, 120, 120, 120, 120, 120, 120, 120, 120, 120, 120, 120, 120, 120, 120, 120, 120, 120, 120, 120, 120, 120, 120, 120, 120, 120, 120, 120, 120, 120, 120, 120, 120, 120, 120, 120, 120, 120, 120, 120, 120, 120, 120, 120, 120, 120, 120, 120, 120, 120, 120, 120, 120, 120, 120, 120, 120, 120, 120, 120, 120, 120, 120, 120, 120, 120, 120, 120, 120, 120, 120, 120, 120, 120, 120, 128, 128, 128, 128, 128, 128, 128, 120, 120, 120, 120, 120, 120, 120, 120, 120, 120, 120, 120, 120, 120, 120, 128, 128, 120, 120, 120, 120, 120, 120, 120, 128, 128, 128, 128, 128, 128, 128, 128, 128, 128, 128, 128, 128, 128, 128, 128, 120, 120, 120, 120, 120, 128, 128, 128, 128, 128, 128, 128, 128, 128, 120, 120, 120, 120, 120, 120, 120, 128, 128, 128, 128, 128, 128, 128, 128, 128, 128, 128, 128, 128, 128, 120, 120, 120, 128, 128, 128, 128, 128, 128, 128, 128, 128, 128, 128, 128, 128, 120, 120, 120, 120, 120, 120, 120, 128, 128, 128, 128, 128, 128, 128, 128, 120, 120, 120, 120, 120, 128, 128, 128, 128, 128, 128, 128, 128, 128, 128, 128, 128, 128, 128, 128, 128, 128, 128, 128, 128, 128, 128, 128, 128, 128, 128, 128, 128, 128, 128, 128, 128, 128, 128, 128, 128, 128, 128, 128, 128, 128, 128, 128, 128, 128, 128, 128, 128, 128, 128, 128, 128, 128, 128, 128, 128, 128, 128, 128, 128, 128, 128, 128, 128, 128, 128, 128, 128, 128, 128, 128, 128, 128, 128, 128, 128, 128, 128, 128, 128, 128, 128, 128, 128, 128, 128, 128, 128, 128, 128, 128, 128, 128, 128, 128, 128, 128, 128, 128, 128, 128, 128, 128, 128, 128, 128, 128, 128, 128, 128, 128, 128, 128, 128, 128, 128, 128, 128, 128, 128, 128, 128, 128, 128, 128, 128, 128, 128, 128, 128, 128, 128, 128, 128, 128, 128, 128, 128, 128, 128, 128, 128, 128, 128, 128, 128, 128, 128, 128, 128, 128, 128, 128, 128, 128, 128, 128, 128, 128, 128, 128, 128, 128, 128, 128, 128, 128, 128, 128, 128, 128, 128, 128, 128, 128, 128, 128, 128, 128, 128, 128, 128, 128, 128, 128, 128, 128, 128, 128, 128, 128, 128, 128, 128, 128, 128, 128, 128, 128, 128, 128, 128, 128, 128, 128, 128, 128, 128, 128, 128, 128, 128, 128, 128, 128, 128, 128, 128, 128, 128, 128, 128, 128, 128, 128, 128, 128, 128, 128, 128, 128, 128, 128, 128, 128, 128, 120, 120, 120, 120, 120, 120, 120, 120, 120, 120, 120, 120, 120, 120, 120, 120, 120, 120, 120, 120, 120, 120, 120, 120, 120, 120, 120, 120, 120, 120, 120, 120, 120, 120, 120, 120, 120, 120, 120, 120, 120, 120, 120, 120, 120, 120, 120, 120, 120, 120, 120, 120, 120, 120, 120, 120, 120, 120, 120, 120, 120, 120, 120, 120, 120, 120, 120, 120, 120, 120, 120, 120, 120, 120, 120, 120, 120, 120, 120, 120, 120, 120, 120, 120, 120, 120, 120, 120, 120, 120, 120, 120, 120, 120, 120, 120, 120, 120, 120, 120, 120, 120, 120, 120, 120, 120, 120, 120, 120, 120, 120, 120, 120, 120, 120, 120, 120, 120, 120, 120, 120, 120, 120, 128, 128, 128, 128, 128, 128, 128, 128, 128, 128, 128, 128, 128, 128, 128, 128, 128, 128, 120, 120, 120, 120, 120, 120, 120, 120, 120, 128, 128, 128, 128, 128, 128, 128, 128, 128, 128, 128, 128, 128, 128, 128, 128, 128, 128, 128, 128, 128, 128, 128, 128, 128, 128, 128, 128, 128, 128, 128, 128, 128, 128, 128, 128, 128, 128, 128, 120, 120, 120, 120, 120, 120, 120, 120, 120, 120, 120, 120, 120, 120, 120, 120, 120, 120, 128, 128, 128, 128, 128, 128, 128, 128, 128, 128, 120, 120, 120, 120, 120, 120, 120, 120, 120, 120, 120, 120, 120, 120, 120, 120, 120, 120, 120, 120, 120, 120, 120, 120, 120, 120, 120, 120, 120, 120, 120, 120, 120, 120, 120, 120, 120, 120, 120, 120, 120, 120, 120, 120, 120, 120, 120, 120, 120, 120, 120, 120, 120, 128, 120, 120, 120, 120, 120, 120, 120, 120, 120, 120, 120, 120, 120, 120, 120, 120, 120, 120, 120, 120, 120, 120, 120, 120, 120, 120, 120, 120, 120, 120, 120, 120, 128, 128, 128, 128, 120, 120, 120, 120, 128, 128, 128, 128, 128, 128, 120, 120, 120, 120, 120, 120, 120, 120, 120, 120, 120, 120, 120, 120, 120, 120, 120, 120, 120, 120, 120, 120, 120, 120, 120, 120, 120, 120, 120, 120, 120, 120, 120, 120, 120, 120, 120, 120, 120, 120, 120, 120, 120, 120, 120, 120, 120, 120, 120, 120, 120, 120, 120, 120, 120, 120, 120, 120, 120, 120, 120, 120, 120, 120, 120, 120, 120, 120, 120, 120, 120, 120, 120, 120, 120, 120, 120, 120, 120, 120, 120, 120, 120, 120, 120, 120, 120, 120, 120, 120, 128, 128, 120, 120, 120, 120, 120, 120, 120, 120, 120, 120, 120, 120, 120, 120, 120, 120, 120, 120, 120, 120, 120, 120, 120, 120, 120, 120, 120, 120, 120, 120, 120, 120, 120, 120, 120, 120, 120, 120, 120, 120, 120, 120, 120, 120, 120, 120, 120, 120, 120, 120, 120, 120, 120, 120, 128, 128, 128, 128, 128, 128, 128, 128, 128, 128, 128, 128, 128, 128, 128, 128, 128, 128, 128, 128, 128, 128, 128, 128, 128, 128, 128, 128, 128, 128, 128, 128, 128, 128, 128, 128, 128, 128, 128, 128, 128, 120, 120, 120, 120, 120, 120, 120, 120, 120, 128, 120, 120, 120, 120, 120, 120, 120, 120, 120, 120, 120, 120, 120, 120, 120, 120, 120, 120, 120, 120, 120, 120, 120, 120, 120, 120, 120, 120, 120, 120, 120, 120, 120, 120, 120, 120, 120, 120, 120, 120, 120, 120, 120, 120, 120, 120, 120, 120, 120, 120, 120, 120, 120, 120, 120, 120, 120, 120, 120, 120, 120, 120, 120, 120, 120, 120, 120, 120, 120, 120, 120, 120, 120, 120, 120, 120, 120, 120, 120, 120, 120, 120, 120, 120, 120, 120, 120, 120, 120, 120, 120, 120, 120, 120, 120, 120, 120, 120, 120, 120, 120, 120, 120, 120, 120, 120, 120, 120, 120, 120, 120, 120, 120, 120, 120, 120, 120, 120, 120, 120, 120, 120, 120, 120, 120, 120, 120, 120, 120, 120, 120, 120, 120, 120, 120, 120, 120, 120, 120, 120, 120, 120, 128, 128, 128, 128, 120, 120, 120, 120, 120, 120, 120, 120, 128, 128, 128, 128, 128, 128, 128, 128, 128, 128, 128, 128, 128, 120, 120, 120, 120, 120, 128, 128, 128, 128, 128, 128, 128, 128, 128, 128, 128, 128, 128, 128, 128, 128, 128, 128, 128, 128, 128, 128, 128, 128, 128, 128, 128, 128, 128, 128, 128, 128, 128, 128, 128, 128, 128, 128, 128, 128, 128, 128, 128, 128, 128, 128, 128, 120, 120, 120, 120, 120, 120, 120, 120, 120, 120, 120, 120, 120, 120, 120, 128, 128, 128, 128, 128, 128, 128, 128, 128, 128, 128, 128, 128, 128, 128, 128, 128, 128, 128, 128, 128, 128, 128, 128, 128, 128, 128, 128, 128, 128, 128, 128, 128, 128, 128, 128, 128, 128, 128, 128, 128, 128, 128, 128, 128, 128, 128, 128, 128, 128, 128, 128, 128, 128, 128, 128, 128, 128, 128, 128, 128, 128, 128, 128, 128, 128, 128, 128, 128, 128, 128, 128, 128, 128, 128, 128, 128, 128, 128, 128, 128, 128, 128, 128, 128, 128, 128, 128, 128, 128, 128, 128, 128, 128, 128, 128, 128, 128, 128, 128, 128, 128, 128, 128, 128, 128, 128, 128, 128, 128, 128, 128, 128, 128, 128, 128, 128, 128, 128, 128, 128, 128, 128, 128, 128, 128, 128, 128, 128, 128, 128, 128, 128, 128, 128, 128, 128, 128, 128, 128, 128, 128, 128, 128, 128, 128, 128, 128, 128, 128, 128, 128, 128, 128, 128, 128, 128, 128, 128, 128, 128, 128, 128, 128, 128, 128, 128, 128, 128, 128, 128, 128, 128, 128, 128, 128, 128, 128, 128, 128, 128, 128, 128, 128, 128, 128, 128, 128, 128, 128, 128, 128, 128, 128, 128, 128, 128, 128, 128, 128, 128, 128, 128, 128, 128, 128, 128, 128, 128, 128, 128, 128, 128, 128, 128, 128, 128, 128, 128, 128, 128, 128, 128, 128, 128, 128, 128, 128, 128, 128, 128, 128, 128, 128, 128, 128, 128, 128, 128, 128, 128, 128, 128, 128, 128, 128, 128, 128, 128, 128, 128, 128, 128, 128, 128, 128, 128, 128, 128, 128, 128, 128, 128, 128, 128, 128, 128, 128, 128, 128, 128, 128, 128, 128, 128, 128, 128, 128, 128, 128, 128, 128, 128, 128, 128, 128, 128, 128, 128, 128, 128, 128, 128, 128, 128, 128, 128, 128, 128, 128, 128, 128, 128, 128, 128, 128, 128, 128, 128, 128, 128, 120, 120, 120, 120, 120, 120, 120, 120, 120, 120, 120, 120, 120, 120, 120, 120, 120, 120, 120, 120, 120, 120, 120, 120, 120, 120, 120, 120, 120, 120, 120, 120, 120, 120, 120, 120, 120, 120, 120, 120, 120, 120, 120, 120, 120, 120, 120, 120, 120, 120, 120, 120, 120, 120, 120, 120, 120, 120, 120, 120, 120, 120, 120, 120, 120, 120, 120, 120, 120, 120, 120, 120, 120, 120, 120, 120, 120, 120, 120, 120, 120, 120, 120, 120, 120, 120, 120, 120, 120, 120, 120, 120, 120, 120, 120, 120, 120, 120, 120, 120, 120, 120, 120, 120, 120, 120, 120, 120, 120, 120, 120, 120, 120, 120, 120, 120, 120, 120, 120, 120, 120, 120, 120, 120, 120, 120, 120, 120, 120, 120, 120, 120, 120, 120, 120, 120, 120, 120, 120, 120, 120, 120, 120, 120, 120, 120, 120, 120, 120, 120, 120, 120, 120, 120, 120, 120, 120, 120, 120, 120, 120, 120, 120, 120, 120, 120, 120, 120, 120, 120, 120, 120, 120, 120, 120, 120, 120, 120, 120, 120, 120, 120, 120, 120, 120, 120, 120, 120, 120, 120, 120, 120, 120, 120, 120, 120, 120, 120, 120, 120, 120, 120, 120, 120, 120, 120, 120, 120, 120, 120, 120, 120, 120, 120, 120, 120, 120, 120, 120, 120, 120, 120, 120, 120, 120, 120, 120, 120, 120, 120, 120, 120, 120, 120, 120, 120, 120, 120, 120, 120, 120, 120, 120, 120, 120, 120, 120, 120, 120, 120, 120, 120, 120, 120, 120, 120, 120, 120, 120, 120, 120, 120, 120, 120, 120, 120, 120, 120, 120, 120, 120, 120, 120, 120, 120, 120, 120, 120, 120, 120, 120, 120, 120, 120, 120, 120, 120, 120, 120, 120, 120, 120, 120, 120, 120, 120, 120, 120, 120, 120, 120, 120, 120, 120, 120, 120, 120, 120, 120, 120, 120, 120, 120, 120, 120, 120, 120, 120, 120, 120, 120, 120, 120, 120, 120, 120, 120, 120, 120, 120, 120, 120, 120, 120, 120, 120, 120, 120, 120, 120, 120, 120, 120, 120, 120, 120, 120, 120, 120, 120, 120, 120, 120, 120, 120, 120, 120, 120, 120, 120, 120, 120, 120, 120, 120, 120, 120, 120, 120, 120, 120, 120, 120, 120, 120, 120, 120, 120, 120, 120, 120, 120, 120, 120, 128, 128, 128, 128, 128, 128, 128, 128, 128, 128, 128, 128, 128, 128, 128, 128, 128, 128, 128, 128, 128, 128, 128, 128, 128, 128, 128, 128, 128, 128, 128, 128, 128, 128, 128, 128, 128, 128, 128, 128, 128, 128, 128, 128, 128, 128, 128, 128, 128, 128, 128, 128, 128, 128, 128, 128, 128, 128, 128, 128, 128, 128, 128, 128, 128, 128, 128, 128, 128, 128, 128, 128, 128, 128, 128, 128, 128, 128, 128, 128, 128, 128, 128, 128, 128, 128, 128, 128, 128, 128, 128, 128, 128, 128, 128, 128, 128, 128, 128, 128, 128, 128, 128, 128, 128, 128, 128, 128, 128, 128, 128, 128, 128, 128, 128, 128, 128, 128, 128, 128, 128, 128, 128, 128, 128, 128, 128, 128, 128, 128, 128, 128, 128, 128, 128, 128, 128, 128, 128, 128, 128, 128, 128, 128, 128, 128, 128, 128, 128, 128, 128, 128, 128, 128, 128, 128, 128, 128, 128, 120, 120, 120, 120, 120, 120, 120, 128, 120, 120, 120, 120, 120, 120, 128, 128, 128, 128, 128, 128, 128, 128, 128, 128, 128, 128, 128, 128, 128, 128, 128, 128, 128, 128, 120, 120, 120, 120, 120, 120, 128, 128, 128, 128, 128, 128, 128, 128, 128, 128, 128, 128, 128, 128, 128, 128, 128, 128, 128, 128, 128, 128, 128, 128, 128, 128, 128, 128, 128, 128, 128, 128, 128, 128, 128, 128, 128, 128, 128, 128, 128, 128, 128, 128, 128, 128, 128, 128, 128, 128, 128, 128, 128, 120, 128, 128, 128, 128, 128, 128, 128, 128, 128, 128, 128, 128, 128, 128, 128, 128, 128, 128, 128, 128, 128, 128, 128, 128, 120, 120, 120, 120, 120, 120, 120, 120, 128, 128, 128, 128, 128, 128, 128, 128, 128, 128, 128, 128, 128, 128, 128, 128, 128, 128, 128, 128, 128, 128, 128, 128, 128, 128, 128, 128, 128, 128, 128, 128, 128, 128, 128, 128, 128, 128, 128, 128, 128, 128, 128, 128, 128, 128, 128, 128, 128, 128, 128, 128, 128, 128, 128, 128, 128, 128, 128, 128, 128, 128, 128, 128, 128, 128, 128, 128, 128, 128, 128, 128, 128, 128, 128, 128, 128, 128, 128, 128, 128, 128, 128, 128, 128, 128, 128, 128, 128, 128, 128, 128, 128, 128, 128, 128, 128, 128, 128, 128, 128, 128, 128, 128, 128, 128, 128, 128, 128, 128, 128, 128, 128, 128, 128, 128, 128, 128, 128, 120, 120, 120, 120, 120, 120, 120, 120, 120, 128, 128, 128, 128, 120, 128, 120, 120, 120, 120, 120, 120, 120, 120, 120, 120, 120, 120, 120, 120, 120, 120, 120, 120, 120, 120, 120, 120, 120, 120, 120, 120, 120, 120, 120, 120, 120, 120, 120, 120, 120, 120, 120, 120, 120, 120, 120, 120, 120, 120, 120, 120, 120, 120, 120, 120, 120, 120, 120, 120, 120, 120, 120, 120, 120, 120, 120, 120, 120, 120, 120, 120, 120, 120, 120, 120, 120, 120, 120, 120, 120, 120, 120, 120, 120, 120, 120, 120, 120, 120, 120, 120, 120, 120, 120, 128, 128, 128, 128, 128, 128, 128, 128, 128, 128, 128, 128, 128, 128, 128, 128, 128, 120, 120, 120, 120, 120, 120, 120, 120, 120, 128, 128, 128, 128, 128, 128, 128, 128, 128, 128, 128, 128, 128, 128, 128, 128, 128, 128, 128, 128, 128, 128, 128, 128, 128, 128, 128, 128, 128, 128, 128, 128, 128, 128, 128, 128, 128, 128, 128, 128, 128, 128, 128, 128, 128, 128, 128, 128, 128, 128, 128, 128, 128, 128, 128, 128, 128, 128, 128, 128, 128, 128, 128, 128, 128, 128, 128, 128, 128, 128, 128, 128, 128, 128, 128, 128, 128, 128, 128, 128, 128, 128, 128, 128, 128, 128, 128, 128, 128, 128, 128, 128, 128, 128, 128, 128, 128, 128, 128, 128, 128, 128, 128, 128, 128, 128, 128, 128, 128, 128, 128, 128, 128, 128, 128, 128, 128, 128, 128, 128, 128, 128, 128, 128, 128, 128, 128, 128, 128, 128, 128, 128, 128, 128, 128, 128, 128, 128, 128, 128, 128, 128, 128, 128, 128, 128, 128, 128, 128, 128, 128, 128, 128, 128, 128, 128, 128, 128, 128, 128, 128, 128, 128, 128, 128, 128, 128, 128, 128, 128, 128, 128, 128, 128, 128, 128, 128, 128, 128, 128, 128, 128, 128, 128, 128, 128, 128, 128, 128, 128, 128, 128, 128, 128, 128, 128, 128, 128, 128, 128, 128, 128, 128, 120, 120, 120, 120, 120, 120, 120, 120, 120, 120, 120, 120, 120, 120, 120, 120, 120, 120, 120, 120, 120, 120, 120, 120, 120, 128, 120, 120, 120, 120, 120, 120, 120, 120, 120, 128, 128, 128, 128, 128, 128, 128, 120, 120, 120, 120, 120, 120, 120, 120, 120, 120, 120, 120, 120, 120, 120, 120, 120, 120, 120, 120, 120, 120, 120, 120, 120, 120, 120, 120, 120, 120, 120, 120, 120, 120, 120, 120, 120, 120, 120, 120, 120, 120, 120, 120, 120, 120, 120, 120, 120, 120, 120, 120, 120, 120, 120, 120, 120, 120, 120, 120, 120, 120, 120, 120, 120, 120, 120, 120, 120, 120, 120, 120, 120, 120, 120, 120, 120, 120, 120, 120, 120, 120, 120, 120, 120, 120, 120, 120, 120, 120, 120, 120, 120, 120, 120, 120, 120, 120, 120, 120, 120, 120, 120, 120, 120, 120, 120, 120, 120, 120, 120, 120, 120, 120, 120, 120, 120, 120, 120, 120, 120, 120, 120, 120, 120, 120, 120, 120, 120, 120, 120, 120, 120, 120, 120, 120, 120, 120, 120, 120, 120, 120, 120, 120, 120, 120, 120, 120, 120, 120, 120, 120, 120, 120, 120, 120, 120, 120, 120, 120, 120, 120, 120, 120, 120, 120, 120, 120, 120, 120, 120, 120, 120, 120, 120, 120, 120, 120, 120, 120, 120, 120, 120, 120, 120, 120, 120, 120, 120, 120, 120, 120, 120, 120, 120, 120, 120, 120, 120, 120, 120, 120, 120, 120, 120, 120, 120, 120, 120, 120, 120, 120, 120, 120, 120, 120, 120, 120, 120, 120, 120, 120, 120, 120, 120, 120, 120, 120, 120, 120, 120, 120, 120, 120, 120, 120, 120, 120, 120, 120, 120, 120, 120, 120, 120, 120, 120, 120, 120, 120, 120, 120, 120, 120, 120, 120, 120, 120, 128, 120, 128, 128, 128, 128, 128, 128, 128, 128, 128, 120, 120, 120, 120, 120, 120, 120, 120, 120, 120, 120, 120, 120, 120, 120, 120, 120, 120, 120, 120, 120, 120, 120, 128, 128, 128, 128, 128, 128, 128, 128, 128, 128, 128, 128, 128, 128, 128, 128, 128, 128, 128, 128, 128, 128, 128, 128, 128, 128, 128, 128, 128, 128, 128, 128, 128, 128, 128, 128, 128, 128, 128, 128, 128, 128, 128, 128, 128, 128, 128, 128, 128, 128, 128, 128, 128, 128, 128, 128, 128, 128, 128, 128, 128, 128, 128, 128, 128, 128, 128, 128, 128, 128, 128, 128, 128, 128, 128, 128, 128, 128, 128, 128, 128, 128, 128, 128, 128, 128, 128, 128, 128, 128, 128, 128, 128, 128, 128, 128, 128, 128, 128, 128, 128, 128, 128, 128, 128, 128, 128, 128, 128, 128, 128, 128, 128, 128, 128, 128, 128, 128, 128, 128, 128, 128, 128, 128, 128, 128, 128, 128, 128, 128, 128, 128, 128, 128, 128, 128, 128, 128, 128, 128, 128, 128, 128, 128, 128, 128, 128, 128, 128, 128, 128, 128, 128, 128, 128, 128, 128, 128, 128, 128, 128, 128, 128, 128, 128, 128, 128, 128, 128, 128, 128, 128, 128, 128, 128, 128, 128, 128, 128, 128, 128, 128, 128, 128, 128, 128, 128, 128, 128, 128, 128, 128, 128, 128, 128, 128, 128, 128, 128, 128, 128, 128, 128, 128, 128, 128, 128, 128, 128, 128, 128, 128, 128, 128, 128, 128, 128, 128, 128, 128, 128, 128, 128, 128, 128, 128, 128, 128, 128, 128, 128, 128, 128, 128, 128, 128, 128, 128, 128, 128, 128, 120, 120, 120, 120, 128, 128, 128, 128, 128, 128, 128, 128, 128, 128, 128, 128, 128, 128, 128, 128, 128, 128, 128, 128, 128, 128, 128, 120, 120, 120, 120, 120, 120, 120, 120, 120, 120, 120, 120, 120, 120, 120, 120, 120, 120, 120, 120, 120, 120, 120, 128, 128, 128, 128, 128, 128, 128, 128, 128, 128, 128, 128, 128, 128, 128, 120, 120, 120, 120, 120, 120, 120, 120, 120, 120, 128, 128, 128, 128, 128, 128, 120, 120, 128, 128, 128, 128, 128, 128, 128, 128, 128, 128, 128, 128, 128, 128, 128, 128, 120, 120, 120, 120, 120, 120, 120, 120, 120, 120, 120, 120, 120, 120, 120, 120, 120, 120, 120, 120, 120, 120, 120, 120, 120, 120, 120, 128, 128, 128, 128, 128, 128, 128, 128, 128, 128, 128, 128, 128, 120, 120, 128, 128, 128, 128, 128, 128, 128, 120, 120, 120, 120, 120, 120, 120, 120, 120, 120, 120, 120, 120, 120, 120, 120, 120, 120, 120, 120, 120, 120, 120, 120, 120, 120, 120, 120, 120, 120, 120, 120, 120, 120, 120, 120, 120, 120, 120, 120, 120, 120, 120, 120, 120, 120, 120, 120, 120, 120, 120, 120, 120, 120, 120, 120, 120, 120, 120, 120, 120, 120, 120, 120, 120, 120, 120, 120, 120, 120, 120, 120, 120, 120, 120, 120, 120, 120, 120, 120, 120, 120, 120, 120, 120, 120, 120, 120, 120, 120, 120, 120, 120, 120, 120, 120, 120, 120, 120, 120, 120, 120, 120, 120, 120, 120, 120, 120, 120, 120, 120, 120, 120, 120, 120, 120, 120, 120, 120, 120, 120, 120, 120, 120, 120, 120, 120, 120, 120, 120, 120, 120, 120, 120, 120, 120, 120, 120, 128, 128, 128, 128, 128, 128, 128, 128, 128, 128, 128, 128, 128, 128, 128, 128, 128, 128, 128, 128, 128, 128, 128, 128, 128, 128, 128, 120, 120, 120, 120, 120, 120, 128, 120, 128, 128, 128, 128, 128, 128, 120, 120, 120, 120, 128, 128, 120, 128, 128, 128, 128, 128, 128, 128, 128, 128, 128, 128, 128, 128, 120, 120, 128, 120, 120, 120, 128, 128, 128, 128, 128, 128, 128, 128, 128, 128, 128, 128, 128, 128, 128, 128, 128, 128, 128, 128, 128, 128, 128, 128, 128, 128, 128, 128, 128, 128, 128, 128, 128, 128, 128, 128, 128, 128, 128, 128, 128, 128, 128, 128, 128, 128, 128, 128, 128, 128, 128, 128, 128, 128, 128, 128, 128, 128, 128, 128, 128, 128, 128, 128, 128, 128, 128, 128, 128, 128, 128, 128, 128, 128, 128, 128, 128, 128, 128, 128, 128, 128, 128, 128, 128, 128, 128, 128, 128, 128, 128, 128, 128, 128, 128, 128, 128, 128, 128, 128, 128, 128, 128, 128, 128, 128, 128, 128, 128, 128, 128, 128, 128, 128, 128, 128, 128, 128, 128, 128, 128, 128, 128, 128, 128, 128, 128, 128, 128, 128, 128, 128, 128, 128, 128, 128, 128, 128, 128, 128, 128, 128, 128, 128, 128, 128, 128, 128, 128, 128, 128, 128, 128, 128, 128, 128, 128, 128, 128, 128, 128, 128, 128, 128, 128, 128, 128, 128, 128, 128, 128, 128, 128, 128, 128, 128, 128, 128, 128, 128, 128, 128, 128, 128, 128, 128, 128, 128, 128, 128, 128, 128, 128, 128, 128, 128, 128, 128, 128, 128, 128, 128, 128, 128, 128, 128, 128, 128, 128, 128, 128, 128, 120, 120, 120, 120, 120, 120, 120, 120, 120, 120, 120, 120, 120, 120, 120, 120, 120, 120, 120, 120, 120, 120, 120, 120, 120, 120, 120, 120, 120, 120, 120, 120, 120, 120, 120, 120, 120, 120, 120, 120, 120, 120, 120, 120, 120, 120, 120, 120, 120, 120, 120, 120, 120, 120, 120, 120, 120, 120, 120, 120, 120, 120, 120, 120, 120, 120, 120, 120, 120, 120, 120, 120, 120, 120, 120, 120, 120, 120, 120, 120, 120, 120, 120, 120, 120, 120, 120, 120, 120, 120, 120, 120, 120, 120, 120, 120, 120, 120, 120, 120, 120, 120, 120, 120, 120, 120, 120, 120, 120, 120, 120, 120, 120, 120, 120, 120, 120, 120, 120, 120, 120, 120, 120, 120, 120, 120, 120, 120, 120, 120, 120, 120, 120, 120, 120, 120, 120, 120, 120, 120, 120, 120, 120, 120, 120, 120, 120, 120, 120, 120, 120, 120, 120, 120, 120, 120, 120, 120, 120, 120, 120, 120, 120, 120, 120, 120, 120, 120, 120, 120, 120, 120, 120, 120, 120, 120, 120, 120, 120, 120, 120, 120, 120, 120, 120, 120, 120, 120, 120, 120, 120, 120, 120, 120, 120, 120, 120, 120, 120, 120, 120, 120, 120, 120, 120, 120, 120, 120, 120, 120, 120, 120, 120, 120, 120, 128, 120, 120, 120, 120, 120, 120, 120, 120, 120, 120, 120, 120, 120, 120, 128, 128, 128, 120, 120, 120, 128, 120, 120, 128, 128, 128, 128, 128, 128, 128, 128, 128, 128, 128, 128, 128, 128, 128, 128, 128, 128, 128, 128, 128, 128, 128, 120, 128, 120, 120, 128, 128, 120, 120, 120, 128, 128, 120, 128, 128, 128, 128, 128, 128, 128, 128, 120, 128, 128, 128, 128, 128, 128, 128, 128, 128, 128, 128, 128, 128, 128, 128, 128, 128, 128, 128, 128, 128, 128, 128, 128, 128, 128, 128, 128, 128, 128, 128, 128, 128, 128, 128, 128, 128, 128, 128, 128, 128, 128, 128, 128, 128, 128, 128, 128, 128, 128, 128, 128, 128, 128, 128, 128, 128, 128, 128, 128, 128, 128, 128, 128, 128, 128, 128, 128, 128, 128, 128, 128, 128, 128, 128, 128, 128, 128, 128, 128, 128, 128, 128, 128, 128, 128, 128, 128, 128, 128, 128, 128, 128, 128, 128, 128, 128, 128, 128, 128, 128, 128, 128, 128, 128, 128, 128, 128, 128, 128, 128, 128, 128, 128, 128, 128, 128, 128, 128, 128, 128, 128, 128, 128, 128, 128, 128, 128, 128, 128, 128, 128, 128, 128, 128, 128, 128, 128, 128, 128, 128, 128, 128, 128, 128, 128, 128, 128, 128, 128, 128, 128, 128, 128, 128, 128, 128, 128, 128, 128, 128, 128, 128, 128, 128, 128, 128, 128, 128, 128, 128, 128, 128, 128, 128, 128, 128, 128, 128, 128, 128, 128, 128, 128, 128, 128, 128, 128, 128, 128, 128, 128, 128, 128, 128, 128, 128, 128, 128, 128, 128, 128, 128, 128, 128, 128, 128, 128, 128, 128, 128, 128, 128, 128, 128, 128, 128, 128, 128, 128, 128, 128, 128, 128, 128, 128, 128, 128, 128, 128, 128, 128, 128, 128, 128, 128, 128, 128, 128, 128, 128, 128, 128, 128, 128, 128, 128, 128, 128, 128, 128, 128, 128, 128, 128, 128, 128, 128, 128, 128, 128, 128, 128, 128, 128, 128, 128, 128, 128, 128, 128, 128, 128, 128, 128, 128, 128, 128, 128, 128, 128, 128, 128, 128, 128, 128, 128, 128, 128, 128, 128, 128, 128, 128, 128, 128, 128, 128, 128, 128, 128, 128, 128, 128, 128, 128, 128, 128, 128, 128, 128, 128, 128, 128, 128, 128, 128, 128, 128, 128, 128, 128, 128, 128, 128, 128, 128, 128, 128, 128, 128, 128, 128, 128, 128, 128, 128, 128, 128, 128, 128, 128, 128, 128, 128, 128, 128, 120, 120, 128, 120, 120, 120, 120, 120, 120, 120, 120, 120, 120, 120, 120, 120, 120, 120, 120, 120, 120, 120, 120, 120, 120, 120, 120, 120, 120, 128, 120, 120, 128, 120, 120, 128, 120, 120, 120, 120, 120, 120, 120, 120, 120, 120, 120, 120, 128, 120, 120, 120, 120, 120, 120, 120, 120, 120, 120, 120, 120, 120, 120, 120, 120, 120, 120, 120, 120, 120, 120, 120, 120, 120, 120, 120, 128, 128, 120, 128, 128, 128, 128, 128, 128, 128, 128, 128, 128, 128, 128, 128, 128, 128, 128, 128, 128, 128, 128, 128, 128, 128, 128, 128, 128, 128, 128, 128, 128, 128, 128, 128, 128, 128, 128, 128, 128, 128, 128, 128, 128, 128, 128, 128, 128, 128, 128, 128, 128, 128, 128, 128, 128, 128, 128, 128, 128, 128, 128, 128, 128, 128, 128, 128, 128, 128, 128, 128, 128, 128, 128, 128, 128, 128, 128, 128, 128, 128, 128, 128, 128, 128, 128, 128, 128, 128, 128, 128, 128, 128, 128, 128, 128, 128, 128, 128, 128, 128, 128, 128, 128, 128, 128, 128, 128, 128, 128, 128, 128, 128, 128, 128, 128, 128, 128, 128, 128, 128, 128, 128, 128, 128, 128, 128, 128, 128, 128, 128, 128, 128, 128, 128, 128, 128, 128, 128, 128, 128, 128, 128, 128, 128, 128, 128, 128, 128, 128, 128, 128, 128, 128, 128, 128, 128, 128, 128, 128, 128, 128, 128, 128, 128, 128, 128, 128, 128, 128, 128, 128, 128, 128, 128, 128, 128, 128, 128, 128, 128, 128, 128, 128, 128, 128, 128, 128, 128, 128, 128, 128, 128, 128, 128, 128, 128, 128, 128, 128, 128, 128, 128, 128, 128, 128, 128, 128, 128, 128, 128, 128, 128, 128, 128, 128, 128, 128, 128, 128, 128, 128, 128, 128, 128, 128, 128, 128, 128, 128, 128, 128, 128, 128, 128, 128, 128, 128, 128, 128, 128, 128, 128, 128, 128, 128, 128, 128, 128, 128, 128, 128, 128, 128, 128, 128, 128, 128, 128, 128, 128, 128, 128, 128, 128, 128, 128, 128, 128, 128, 128, 128, 128, 128, 128, 128, 128, 128, 128, 128, 128, 128, 128, 128, 128, 128, 128, 128, 128, 128, 128, 128, 128, 128, 128, 128, 128, 128, 128, 128, 128, 128, 128, 128, 128, 128, 128, 128, 128, 128, 128, 128, 128, 128, 128, 128, 128, 128, 128, 128, 128, 128, 128, 128, 128, 128, 128, 128, 128, 128, 128, 128, 128, 128, 128, 128, 128, 128, 128, 128, 128, 128, 128, 128, 128, 128, 128, 128, 128, 128, 128, 128, 128, 128, 128, 128, 128, 128, 128, 128, 128, 128, 128, 128, 128, 128, 128, 128, 128, 128, 128, 128, 128, 128, 128, 128, 128, 128, 128, 128, 128, 128, 128, 128, 128, 128, 128, 128, 128, 128, 128, 128, 128, 128, 128, 128, 128, 128, 128, 128, 128, 128, 128, 128, 128, 128, 128, 128, 128, 128, 128, 128, 128, 128, 128, 128, 128, 128, 128, 128, 128, 128, 128, 128, 128, 128, 128, 128, 128, 128, 128, 128, 128, 128, 128, 128, 128, 128, 128, 128, 128, 128, 128, 128, 128, 128, 128, 128, 128, 128, 128, 128, 128, 128, 128, 128, 128, 128, 128, 128, 128, 128, 128, 128, 128, 128, 128, 128, 128, 128, 128, 128, 128, 128, 128, 128, 128, 128, 128, 128, 128, 128, 128, 128, 128, 128, 128, 128, 128, 128, 128, 128, 128, 128, 128, 128, 128, 128, 128, 128, 128, 128, 128, 128, 128, 128, 128, 128, 128, 128, 128, 128, 128, 128, 128, 128, 128, 128, 128, 128, 128, 128, 128, 128, 128, 128, 128, 128, 128, 128, 128, 128, 128, 128, 128, 128, 128, 128, 128, 128, 128, 128, 128, 128, 128, 128, 128, 128, 128, 128, 128, 128, 128, 128, 128, 128, 128, 128, 128, 128, 128, 128, 128, 128, 128, 128, 128, 128, 128, 128, 128, 128, 128, 128, 128, 128, 128, 128, 128, 128, 128, 128, 128, 128, 128, 128, 128, 128, 128, 128, 128, 128, 128, 128, 128, 128, 128, 128, 128, 128, 128, 128, 128, 128, 128, 128, 128, 128, 128, 128, 128, 128, 128, 128, 128, 128, 128, 128, 128, 128, 128, 128, 128, 128, 128, 128, 128, 128, 128, 128, 128, 128, 128, 128, 128, 128, 128, 128, 128, 128, 128, 128, 128, 128, 128, 128, 128, 128, 128, 128, 128, 128, 128, 128, 128, 128, 128, 128, 128, 128, 128, 128, 128, 128, 128, 128, 128, 128, 128, 128, 128, 128, 128, 128, 128, 128, 128, 128, 128, 128, 128, 128, 128, 128, 128, 128, 128, 128, 128, 128, 128, 128, 128, 128, 128, 128, 128, 128, 128, 128, 128, 128, 128, 128, 128, 128, 128, 128, 128, 128, 128, 128, 128, 128, 128, 128, 128, 128, 128, 128, 128, 128, 128, 128, 128, 128, 128, 128, 128, 128, 128, 128, 128, 128, 128, 128, 128, 128, 128, 128, 128, 128, 128, 128, 128, 128, 128, 128, 128, 128, 128, 128, 128, 128, 128, 128, 128, 128, 128, 128, 128, 128, 128, 128, 128, 128, 128, 128, 128, 128, 128, 128, 128, 128, 128, 128, 128, 128, 128, 128, 128, 128, 128, 128, 128, 128, 128, 128, 128, 128, 128, 128, 128, 128, 128, 128, 128, 128, 128, 128, 128, 128, 128, 128, 128, 128, 128, 128, 128, 128, 128, 128, 128, 128, 128, 128, 128, 128, 128, 128, 128, 128, 128, 128, 128, 128, 128, 128, 128, 128, 128, 128, 128, 128, 128, 128, 128, 128, 128, 128, 128, 128, 128, 128, 128, 128, 128, 128, 128, 128, 128, 128, 128, 128, 128, 128, 128, 128, 128, 128, 128, 128, 128, 128, 128, 128, 128, 128, 128, 128, 128, 128, 128, 128, 128, 128, 128, 128, 128, 128, 128, 128, 128, 128, 128, 128, 128, 128, 128, 128, 128, 128, 128, 128, 128, 128, 128, 128, 128, 128, 128, 128, 128, 128, 128, 128, 128, 128, 128, 128, 128, 128, 128, 128, 128, 128, 128, 128, 128, 128, 128, 128, 128, 128, 128, 128, 128, 128, 128, 128, 128, 128, 128, 128, 128, 128, 128, 128, 128, 128, 128, 128, 128, 128, 128, 128, 128, 128, 128, 128, 128, 128, 128, 128, 128, 128, 128, 128, 128, 128, 128, 128, 128, 128, 128, 128, 128, 128, 128, 128, 128, 128, 128, 128, 128, 128, 128, 128, 128, 128, 128, 128, 128, 128, 128, 128, 128, 128, 128, 128, 128, 128, 128, 128, 128, 128, 128, 128, 128, 128, 128, 128, 128, 128, 128, 128, 128, 128, 128, 128, 128, 128, 128, 128, 128, 128, 128, 128, 128, 128, 128, 128, 128, 128, 128, 128, 128, 128, 128, 128, 128, 128, 128, 128, 128, 128, 128, 128, 128, 128, 128, 128, 128, 128, 128, 128, 128, 128, 128, 128, 128, 128, 128, 128, 128, 128, 128, 128, 128, 128, 128, 128, 128, 128, 128, 128, 128, 128, 128, 128, 128, 128, 128, 128, 128, 128, 128, 128, 128, 128, 128, 128, 128, 128, 128, 128, 128, 128, 128, 128, 128, 128, 128, 128, 128, 128, 128, 128, 128, 128, 128, 128, 128, 128, 128, 128, 128, 128, 128, 128, 128, 128, 128, 128, 128, 128, 128, 128, 128, 128, 128, 128, 128, 128, 128, 128, 128, 128, 128, 128, 128, 128, 128, 128, 128, 128, 128, 128, 128, 128, 128, 128, 128, 128, 128, 128, 128, 128, 128, 128, 128, 128, 128, 128, 128, 128, 128, 128, 128, 128, 128, 128, 128, 128, 128, 128, 128, 128, 128, 128, 128, 128, 128, 128, 128, 128, 128, 128, 128, 128, 128, 128, 128, 128, 128, 128, 128, 128, 128, 128, 128, 128, 128, 128, 128, 128, 128, 128, 128, 128, 128, 128, 128, 128, 128, 128, 128, 128, 128, 128, 128, 128, 128, 128, 128, 128, 128, 128, 128, 128, 128, 128, 128, 128, 128, 128, 128, 128, 128, 128, 128, 128, 128, 128, 128, 128, 128, 128, 128, 128, 128, 128, 128};

void spi_init()
{
  DDRB |= _BV(PB2) | _BV(PB3) | _BV(PB5); // Ustaw pin CS, MOSI, SCK na output
    3a12:	84 b1       	in	r24, 0x04	; 4
    3a14:	8c 62       	ori	r24, 0x2C	; 44
    3a16:	84 b9       	out	0x04, r24	; 4
  PORTB |= _BV(PB2); // CS pocztkowo wysokie
    3a18:	2a 9a       	sbi	0x05, 2	; 5

  SPCR |= _BV(SPR0); // 1MHz
    3a1a:	8c b5       	in	r24, 0x2c	; 44
    3a1c:	81 60       	ori	r24, 0x01	; 1
    3a1e:	8c bd       	out	0x2c, r24	; 44
  SPCR |= _BV(MSTR); // Ustaw master jako SPI
    3a20:	8c b5       	in	r24, 0x2c	; 44
    3a22:	80 61       	ori	r24, 0x10	; 16
    3a24:	8c bd       	out	0x2c, r24	; 44
  SPCR |= _BV(SPE); // Wcz SPI
    3a26:	8c b5       	in	r24, 0x2c	; 44
    3a28:	80 64       	ori	r24, 0x40	; 64
    3a2a:	8c bd       	out	0x2c, r24	; 44
    3a2c:	e8 e6       	ldi	r30, 0x68	; 104
    3a2e:	f0 e0       	ldi	r31, 0x00	; 0
{
  spi_init();

  while(1){
    for(uint16_t i = 0; i < 14675; i++){
      send_sample(pgm_read_byte(&samples[i]));
    3a30:	84 91       	lpm	r24, Z
  SPCR |= _BV(SPE); // Wcz SPI
}

void send_sample(uint8_t sample)
{
  uint8_t data1 = 0x30 | (sample >> 4);
    3a32:	98 2f       	mov	r25, r24
    3a34:	92 95       	swap	r25
    3a36:	9f 70       	andi	r25, 0x0F	; 15
    3a38:	90 63       	ori	r25, 0x30	; 48
  uint8_t data2 = sample << 4;
    3a3a:	82 95       	swap	r24
    3a3c:	80 7f       	andi	r24, 0xF0	; 240

  PORTB &= ~_BV(PB2); // Ustaw CS na niski, rozpocznij transmisj
    3a3e:	2a 98       	cbi	0x05, 2	; 5
  SPDR = data1;
    3a40:	9e bd       	out	0x2e, r25	; 46
  loop_until_bit_is_set(SPSR, SPIF);  // Przesyanie pierwszego bajtu
    3a42:	0d b4       	in	r0, 0x2d	; 45
    3a44:	07 fe       	sbrs	r0, 7
    3a46:	fd cf       	rjmp	.-6      	; 0x3a42 <main+0x30>
  SPDR = data2;
    3a48:	8e bd       	out	0x2e, r24	; 46
  loop_until_bit_is_set(SPSR, SPIF);  // Przesyanie drugiego bajtu
    3a4a:	0d b4       	in	r0, 0x2d	; 45
    3a4c:	07 fe       	sbrs	r0, 7
    3a4e:	fd cf       	rjmp	.-6      	; 0x3a4a <main+0x38>
  PORTB |= _BV(PB2); // Ustaw CS na wysoki, zakocz transmisj
    3a50:	2a 9a       	sbi	0x05, 2	; 5
	#else
		//round up by default
		__ticks_dc = (uint32_t)(ceil(fabs(__tmp)));
	#endif

	__builtin_avr_delay_cycles(__ticks_dc);
    3a52:	83 ef       	ldi	r24, 0xF3	; 243
    3a54:	91 e0       	ldi	r25, 0x01	; 1
    3a56:	01 97       	sbiw	r24, 0x01	; 1
    3a58:	f1 f7       	brne	.-4      	; 0x3a56 <main+0x44>
    3a5a:	00 c0       	rjmp	.+0      	; 0x3a5c <main+0x4a>
    3a5c:	00 00       	nop
    3a5e:	31 96       	adiw	r30, 0x01	; 1
int main()
{
  spi_init();

  while(1){
    for(uint16_t i = 0; i < 14675; i++){
    3a60:	99 e3       	ldi	r25, 0x39	; 57
    3a62:	eb 3b       	cpi	r30, 0xBB	; 187
    3a64:	f9 07       	cpc	r31, r25
    3a66:	21 f7       	brne	.-56     	; 0x3a30 <main+0x1e>
    3a68:	e1 cf       	rjmp	.-62     	; 0x3a2c <main+0x1a>

00003a6a <_exit>:
    3a6a:	f8 94       	cli

00003a6c <__stop_program>:
    3a6c:	ff cf       	rjmp	.-2      	; 0x3a6c <__stop_program>
